MPASM 5.66              ../QUIZSHOW_MAIN.ASM   3-1-2017  12:21:15         PAGE  1


LOC  OBJECT CODE     LINE SOURCE TEXT
  VALUE

                      00001 ; vim:set syntax=pic ts=8:
                      00002 ;
                      00003                 LIST N=86
                      00004 ;@@@@@@@@@@@@@@@@@@@@@@@@@@@@@@@@@@@@@@@@@@@@@@@@@@@@@@@@@@@@@@@@@@@@@@@@@@@@@
                      00005 ;@@                                                                         @@
                      00006 ;@@  @@@   @   @  @@@@@  @@@@@                QUIZ SHOW HARDWARE CONTROLLER @@
                      00007 ;@@ @   @  @   @    @        @                FIRMWARE VERSION 4.0          @@ 
                      00008 ;@@ @   @  @   @    @       @                                               @@
                      00009 ;@@ @   @  @   @    @      @                  FOR HARDWARE REVISION 4.0     @@
                      00010 ;@@ @ @ @  @   @    @     @                   QSCC - QUIZ SHOW CONTESTANT   @@
                      00011 ;@@ @  @@  @   @    @    @                    QSRC - QUIZ SHOW REMOTE       @@
                      00012 ;@@ @@@@@   @@@   @@@@@  @@@@@                                              @@
                      00013 ;@@                                                                         @@
                      00014 ;@@@@@@@@@@@@@@@@@@@@@@@@@@@@@@@@@@@@@@@@@@@@@@@@@@@@@@@@@@@@@@@@@@@@@@@@@@@@@
                      00015 ;
                      00016 ; Based on Lumos controller firmware 3.0, PWD-2 firmware (particularly 
                      00017 ; readerboard controls), and previous Quizshow hardware designs.  All of the
                      00018 ; above are copyright (c) Steven L. Willoughby, All Rights Reserved.
                      00019 ;
                      00020 ; ************                                                           /\
                      00021 ; * WARNING! *    EXPERIMENTAL DESIGN FOR EDUCATIONAL PURPOSES          /  \
                      00022 ; * WARNING! *                USE AT YOUR OWN RISK!                    / !  \
                      00023 ; ************                                                        /______\
                      00024 ; 
                      00025 ; PLEASE READ AND BE SURE YOU UNDERSTAND THE FOLLOWING SAFETY WARNINGS:
                      00026 ;
                      00027 ; THIS FIRMWARE AND THE ACCOMPANYING HARDWARE AND CONTROLLING SOFTWARE ARE
                      00028 ; EXPERIMENTAL "HOBBYIST" DESIGNS AND ARE NOT INTENDED FOR GENERAL CONSUMER USE
                      00029 ; OR FOR ANY APPLICATION WHERE THERE IS ANY POSSIBILITY OF RISK OF INJURY,
                      00030 ; PROPERTY DAMAGE, OR ANY OTHER SITUATION WHERE ANY FAILURE OF THE FIRMWARE,
                      00031 ; SOFTWARE AND/OR HARDWARE COULD RESULT IN HARM TO ANYONE OR ANYTHING.  
                      00032 ;
                      00033 ; THIS FIRMWARE, SOFTWARE, AND/OR HARDWARE ARE NOT INTENDED NOR RECOMMENDED 
                      00034 ; FOR APPLICATIONS INVOLVING LIFE SUPPORT OR SAFETY-CRITICAL SYSTEMS, RUNNING 
                      00035 ; FIREWORKS/PYROTECHNIC DISPLAYS, ETC.  
                      00036 ;
                      00037 ; BY OBTAINING AND USING THIS FIRMWARE, AND/OR ACCOMPANYING HARDWARE AND/OR 
                      00038 ; CONTROLLING SOFTWARE, YOU AGREE TO THESE CONDITIONS AND THAT TO THE FULLEST 
                      00039 ; EXTENT OF APPLICABLE LAW, THE ABOVE-LISTED ITEMS AND ALL ACCOMPANYING 
                      00040 ; DOCUMENTATION AND OTHER MATERIALS ARE PROVIDED TO YOU AS-IS, WITHOUT WARRANTY 
                      00041 ; OF ANY KIND, EXPRESSED OR IMPLIED, INCLUDING BUT NOT LIMITED TO THE IMPLIED
                      00042 ; WARRANTIES OF MERCHANTABILITY OR FITNESS FOR ANY PARTICULAR PURPOSE.  YOU 
                      00043 ; FURTHER AGREE TO DEFEND, INDEMNIFY, AND HOLD BLAMELESS, THE AUTHOR, STEVEN 
                      00044 ; L. Willoughby AND ANY OF HIS AGENTS AND ASSOCIATES ASSISTING WITH THIS WORK, 
                      00045 ; FROM ANY DAMAGES DIRECT OR INCIDENTAL ARISING FROM THE USE OF, OR INABILITY 
                      00046 ; TO USE, THE ABOVE-LISTED PRODUCTS.
                      00047 ; 
                      00048 ;
                      00049 ; Copyright (c) 2014 by Steven L. Willoughby, Aloha, Oregon, USA.  
                      00050 ; All Rights Reserved.  Quiz Show portions are unreleased trade secret
                      00051 ; information.
                      00052 ;
                      00053 ; Based on previous works by the same author, some of which are released
                      00054 ; under the Open Software License, version 3.0, which portions are available
                      00055 ; separately for free download.
                      00056 ;
                      00057 ; -*- -*- -* -*- -*- -*- -*- -*- -*- -*- -*- -*- -*- -*- -* -*- -*- -*- -*- -*-
                      00058 ;
                      00059 ; Main implementation module.
                      00060 ;
                      00061 #include "lumos_config.inc"
                      00001 ; vim:set syntax=pic ts=8:
                      00002 ;
                      00003                 LIST N=86
                      00004 ;@@@@@@@@@@@@@@@@@@@@@@@@@@@@@@@@@@@@@@@@@@@@@@@@@@@@@@@@@@@@@@@@@@@@@@@@@@@@@
                      00005 ;@@                                                                         @@
                      00006 ;@@ @      @   @  @   @   @@@    @@@          LUMOS: LIGHT ORCHESTRATION    @@
                      00007 ;@@ @      @   @  @@ @@  @   @  @   @         SYSTEM FIRMWARE VERSION 3.0   @@
                      00008 ;@@ @      @   @  @ @ @  @   @  @                                           @@
                      00009 ;@@ @      @   @  @   @  @   @   @@@   @@@@@  FOR 24- AND 48-CHANNEL AC/DC  @@
                      00010 ;@@ @      @   @  @   @  @   @      @         LUMOS CONTROLLER UNITS        @@
                      00011 ;@@ @      @   @  @   @  @   @  @   @         BASED ON THE PIC18F4685 CHIP  @@
                      00012 ;@@ @@@@@   @@@   @   @   @@@    @@@                                        @@
                      00013 ;@@                                                                         @@
                      00014 ;@@@@@@@@@@@@@@@@@@@@@@@@@@@@@@@@@@@@@@@@@@@@@@@@@@@@@@@@@@@@@@@@@@@@@@@@@@@@@
                      00015 ;
                      00016 ; Copyright (c) 2012, 2014 by Steven L. Willoughby, Aloha, Oregon, USA.  
                      00017 ; All Rights Reserved.  
                      00018 ; Released under the terms and conditions of the Open Software
                      00019 ; License, version 3.0.
MPASM 5.66              ../QUIZSHOW_MAIN.ASM   3-1-2017  12:21:15         PAGE  2


LOC  OBJECT CODE     LINE SOURCE TEXT
  VALUE

                      00020 ;
                      00021 ; Portions based on earlier code copyright (c) 2004, 2005, 2006, 2007
                      00022 ; Steven L. Willoughby, Aloha, Oregon, USA.  All Rights Reserved.
                      00023 ;
                      00024 ; -*- -*- -* -*- -*- -*- -*- -*- -* -*- -*- -*- -*- -*- -* -*- -*- -*- -*- -*-
                      00025 ;
                      00026 ; Configuration options.  Set these as desired and then re-assemble the
                      00027 ; code to produce the desired version of the ROM.
                      00028 ;
                      00029 ; 
                      00030 
                      00031 ;==============================================================================
                      00032 ; CONFIGURATION OPTIONS
                      00033 ;==============================================================================
                      00034 #ifndef LUMOS_CONFIG_INC
                      00035 #define LUMOS_CONFIG_INC
                      00036 #define LUMOS_CHIP_MASTER       0x41    ; 48-channel master CPU
                      00037 #define LUMOS_CHIP_SLAVE        0x42    ; 48-channel slave CPU
                      00038 #define LUMOS_CHIP_STANDALONE   0x43    ; 24-channel CPU
                      00039 #define LUMOS_CHIP_4CHANNEL     0x44    ; 4-channel CPU
                      00040 #define LUMOS_CHIP_QSCC         0x45    ; Private code; custom hardware
                      00041 #define LUMOS_CHIP_QSRC         0x46    ; Private code; custom hardware
                      00042 ;
                      00043 ; Un-comment one of these to select board type for this ROM image:
                      00044 ;
                      00045 ;#define LUMOS_CHIP_TYPE                LUMOS_CHIP_MASTER
                      00046 ;#define LUMOS_CHIP_TYPE                LUMOS_CHIP_SLAVE
                      00047 ;#define LUMOS_CHIP_TYPE                LUMOS_CHIP_STANDALONE
                      00048 ;#define LUMOS_CHIP_TYPE                LUMOS_CHIP_4CHANNEL
                      00049 ;#define LUMOS_CHIP_TYPE                LUMOS_CHIP_QSCC
                      00050 #define LUMOS_CHIP_TYPE         LUMOS_CHIP_QSRC
                      00051 ;
                      00052 ;
                      00053 ;
                      00054 #define LUMOS_ZC                0x55
                      00055 #define LUMOS_INTERNAL          0x58
                      00056 
                      00057  IF LUMOS_CHIP_TYPE == LUMOS_CHIP_MASTER || LUMOS_CHIP_TYPE == LUMOS_CHIP_SLAVE
                      00058   #define LUMOS_SLICE_TIMER LUMOS_ZC
                      00059  ELSE
                      00060   IF LUMOS_CHIP_TYPE == LUMOS_CHIP_STANDALONE || LUMOS_CHIP_TYPE == LUMOS_CHIP_4CHANNEL || LUMOS_CHIP_TY
                            PE == LUMOS_CHIP_QSCC || LUMOS_CHIP_TYPE == LUMOS_CHIP_QSRC
                      00061    #define LUMOS_SLICE_TIMER LUMOS_INTERNAL
                      00062   ELSE
                      00063    ERROR "LUMOS_CHIP_TYPE must be set to MASTER, SLAVE, 4CHANNEL, QSCC, QSRC, or STANDALONE"
                      00064   ENDIF
                      00065  ENDIF
                      00066  
                      00067  IF LUMOS_SLICE_TIMER != LUMOS_ZC && LUMOS_SLICE_TIMER != LUMOS_INTERNAL
                      00068   ERROR "LUMOS_SLICE_TIMER must be set to ZC or INTERNAL"
                      00069  ENDIF
                      00070 
                      00071 
                      00072  IF LUMOS_CHIP_TYPE == LUMOS_CHIP_MASTER
                      00073   #define ROLE_MASTER       (1)
                      00074   #define ROLE_SLAVE        (0)
                      00075   #define ROLE_STANDALONE   (0)
                      00076   #define NUM_CHANNELS      (.48)
                      00077   #define QSCC_PORT         (0)
                      00078  ELSE
                      00079   IF LUMOS_CHIP_TYPE == LUMOS_CHIP_SLAVE
                      00080    #define ROLE_MASTER      (0)
                      00081    #define ROLE_SLAVE       (1)
                      00082    #define ROLE_STANDALONE  (0)
                      00083    #define NUM_CHANNELS     (.48)
                      00084    #define QSCC_PORT        (0)
                      00085   ELSE
                      00086    IF LUMOS_CHIP_TYPE == LUMOS_CHIP_STANDALONE
                      00087     #define ROLE_MASTER     (0)
                      00088     #define ROLE_SLAVE      (0)
                      00089     #define ROLE_STANDALONE (1)
                      00090     #define NUM_CHANNELS    (.24)
                      00091     #define QSCC_PORT       (0)
                      00092    ELSE
                      00093     IF LUMOS_CHIP_TYPE == LUMOS_CHIP_4CHANNEL
                      00094      #define ROLE_MASTER     (0)
                      00095      #define ROLE_SLAVE      (0)
                      00096      #define ROLE_STANDALONE (1)
                      00097      #define NUM_CHANNELS    (.4)
                      00098      #define QSCC_PORT       (0)
MPASM 5.66              ../QUIZSHOW_MAIN.ASM   3-1-2017  12:21:15         PAGE  3


LOC  OBJECT CODE     LINE SOURCE TEXT
  VALUE

                      00099     ELSE
                      00100      IF LUMOS_CHIP_TYPE == LUMOS_CHIP_QSCC
                      00101       #define ROLE_MASTER     (0)
                      00102       #define ROLE_SLAVE      (0)
                      00103       #define ROLE_STANDALONE (1)
                      00104       #define NUM_CHANNELS    (.14)
                      00105       #define QSCC_PORT       (1)
                      00106      ELSE
                      00107       IF LUMOS_CHIP_TYPE == LUMOS_CHIP_QSRC
                      00108        #define ROLE_MASTER     (0)
                      00109        #define ROLE_SLAVE      (0)
                      00110        #define ROLE_STANDALONE (1)
                      00111        #define NUM_CHANNELS    (.20)
                      00112        #define QSCC_PORT       (1)
                      00113       ELSE
                      00114        ERROR "Invalid LUMOS_CHIP_TYPE"
                      00115       ENDIF
                      00116      ENDIF
                      00117     ENDIF
                      00118    ENDIF
                      00119   ENDIF
                      00120  ENDIF
                      00121 
                      00122 #define LUMOS_ARCH_4685  (0x4685)
                      00123 #define LUMOS_ARCH_14K50 (0x1450)
                      00124 
                      00125  IF LUMOS_CHIP_TYPE == LUMOS_CHIP_MASTER || LUMOS_CHIP_TYPE == LUMOS_CHIP_SLAVE || LUMOS_CHIP_TYPE == LU
                            MOS_CHIP_STANDALONE || LUMOS_CHIP_TYPE == LUMOS_CHIP_QSCC || LUMOS_CHIP_TYPE == LUMOS_CHIP_QSRC
                      00126   #define LUMOS_ARCH LUMOS_ARCH_4685
                      00127   PROCESSOR 18F4685
                      00128   #include <p18f4685.inc>
                      00001         LIST
                      00002 
                      00003 ;==========================================================================
                      00004 ; Build date : Feb 01 2016
                      00005 ;  MPASM PIC18F4685 processor include
                      00006 ; 
                      00007 ;  (c) Copyright 1999-2016 Microchip Technology, All rights reserved
                      00008 ;==========================================================================
                      00009 
                      05131         LIST
                      00129  ELSE
                      00130   IF LUMOS_CHIP_TYPE == LUMOS_CHIP_4CHANNEL
                      00131    #define LUMOS_ARCH LUMOS_ARCH_14K50
                      00132    PROCESSOR 18F14K50
                      00133    #include <p18f14k50.inc>
                      00134   ELSE
                      00135    ERROR "Invalid LUMOS_CHIP_TYPE"
                      00136   ENDIF
                      00137  ENDIF
                      00138 
                      00139 ; set DMX_ENABLED to 1 to include the experimental DMX-handling code.
                      00140 #define DMX_ENABLED 0
                      00141 ;
                      00142 ; The following public symbols can be used after this file is
                      00143 ; included (and this file should be included everywhere before
                      00144 ; anything else is included, and in lieu of PROCESSOR directives
                      00145 ; or #includes which bring in processor-specific bits--this file
                      00146 ; will do that for you):
                      00147 ;
                      00148 ; LUMOS_CHIP_TYPE:  Will be one of the following, to show what the intent
                      00149 ;                   of the target chip will be and what its particular 
                      00150 ;                   I/O pin assignments are, role in the overall circuit, etc.
                      00151 ;                   (use the ROLE_* values where possible, though, in your logic)
                      00152 ;
                      00153 ;       LUMOS_CHIP_MASTER       - 48-channel (2-CPU) controller, master CPU
                      00154 ;       LUMOS_CHIP_SLAVE        - 48-channel (2-CPU) controller, slave CPU
                      00155 ;       LUMOS_CHIP_STANDALONE   - 24-channel (1-CPU) controller, sole CPU
                      00156 ;       LUMOS_CHIP_4CHANNEL     - 4-channel  (1-CPU) controller, sole CPU
                      00157 ;       LUMOS_CHIP_QSCC         - private configuration for custom hardware
                      00158 ;       LUMOS_CHIP_QSRC         - private configuration for custom hardware
                      00159 ;
                      00160 ; LUMOS_SLICE_TIMER: Will be one of the following, to specify where the PWM
                      00161 ;                   slice timer sync pulse is coming from:
                      00162 ;
                      00163 ;       LUMOS_ZC        - Hardware zero-crossing detector to PIC interrupt pin
                      00164 ;       LUMOS_INTERNAL  - Internal timing system (using PIC timer module)
                      00165 ;
                      00166 ; LUMOS_ARCH:       Will be one of the following, to show what PIC device
                      00167 ;                   is targeted, strictly to determine chip-specific details,
MPASM 5.66              ../QUIZSHOW_MAIN.ASM   3-1-2017  12:21:15         PAGE  4


LOC  OBJECT CODE     LINE SOURCE TEXT
  VALUE

                      00168 ;                   not how Lumos is using it.
                      00169 ;
                      00170 ;       "14K50"         - The PIC18F14K50
                      00171 ;       "4685"          - The PIC18F4685
                      00172 ;
                      00173 ; ROLE_MASTER           - (bool) true if this chip is the master in master/slave arrangement
                      00174 ; ROLE_SLAVE            - (bool) true if this chip is the slave in master/slave arrangement
                      00175 ; ROLE_STANDALONE       - (bool) true if this is the only chip, must run entire board function
                      00176 ; NUM_CHANNELS          - (int) number of output SSR channels
                      00177 #endif
                      00062 #include "lumos_set_ssr.inc"
                      00001 ; vim:set syntax=pic ts=8:
                      00002 ;
                      00003                 LIST N=86
                      00004 ;@@@@@@@@@@@@@@@@@@@@@@@@@@@@@@@@@@@@@@@@@@@@@@@@@@@@@@@@@@@@@@@@@@@@@@@@@@@@@
                      00005 ;@@                                                                         @@
                      00006 ;@@ @      @   @  @   @   @@@    @@@          LUMOS: LIGHT ORCHESTRATION    @@
                      00007 ;@@ @      @   @  @@ @@  @   @  @   @         SYSTEM FIRMWARE VERSION 3.0   @@
                      00008 ;@@ @      @   @  @ @ @  @   @  @                                           @@
                      00009 ;@@ @      @   @  @   @  @   @   @@@   @@@@@  FOR 24- AND 48-CHANNEL AC/DC  @@
                      00010 ;@@ @      @   @  @   @  @   @      @         LUMOS CONTROLLER UNITS        @@
                      00011 ;@@ @      @   @  @   @  @   @  @   @         BASED ON THE PIC18F4685 CHIP  @@
                      00012 ;@@ @@@@@   @@@   @   @   @@@    @@@                                        @@
                      00013 ;@@                                                                         @@
                      00014 ;@@@@@@@@@@@@@@@@@@@@@@@@@@@@@@@@@@@@@@@@@@@@@@@@@@@@@@@@@@@@@@@@@@@@@@@@@@@@@
                      00015 ;
                      00016 ; Copyright (c) 2012, 2014 by Steven L. Willoughby, Aloha, Oregon, USA.  
                      00017 ; All Rights Reserved.  
                      00018 ; Released under the terms and conditions of the Open Software
                      00019 ; License, version 3.0.
                      00020 ;
                      00021 ; Portions based on earlier code copyright (c) 2004, 2005, 2006, 2007
                      00022 ; Steven L. Willoughby, Aloha, Oregon, USA.  All Rights Reserved.
                      00023 ;
                      00024 ; -*- -*- -* -*- -*- -*- -*- -*- -* -*- -*- -*- -*- -*- -* -*- -*- -*- -*- -*-
                      00025 ;
                      00026 #ifndef LUMOS_SET_SSR_INC
                      00027 #define LUMOS_SET_SSR_INC
                      00028 
                      00029  IF LUMOS_ARCH == LUMOS_ARCH_4685
  00000400            00030 SSR_DATA_BANK   EQU     0x400
  00000500            00031 MAIN_DATA       EQU     0x500
  000000C8            00032 YY_BUF_LEN      EQU     .200
                      00033  ELSE
                      00034   IF LUMOS_ARCH == LUMOS_ARCH_14K50
                      00035 SSR_DATA_BANK   EQU     0x060
                      00036 MAIN_DATA       EQU     0x088
                      00037 YY_BUF_LEN      EQU     .90 
                      00038   ELSE
                      00039    ERROR "Invalid architecture switch for SSR_DATA_BANK"
                      00040   ENDIF
                      00041  ENDIF
                      00042 
                      00043 ;
                      00044 ; SSR_FLAGS words for each output show state information about those
                      00045 ; channels.
                      00046 ;
  00000007            00047 FADE_UP         EQU     7       ; 1-------  This channel is fading up
  00000006            00048 FADE_DOWN       EQU     6       ; -1------  This channel is fading down
  00000005            00049 FADE_CYCLE      EQU     5       ; --1-----  This channel is fading up<-->down
  00000004            00050 MAX_OFF_TIME    EQU     4       ; ---1----  Use maximum off-time in cycle
  00000080            00051 BIT_FADE_UP     EQU     0x80
  00000040            00052 BIT_FADE_DOWN   EQU     0x40
  00000020            00053 BIT_FADE_CYCLE  EQU     0x20
  00000010            00054 BIT_MAX_OFF_TIME EQU    0x10
                      00055 
                      00056 SET_SSR_VALUE MACRO IDX, LEVEL
                      00057         BANKSEL SSR_DATA_BANK
                      00058          MOVLW  LEVEL
                      00059          MOVWF  SSR_00_VALUE+IDX, BANKED
                      00060          CLRF   SSR_00_STEP+IDX, BANKED
                      00061          CLRF   SSR_00_SPEED+IDX, BANKED
                      00062          CLRF   SSR_00_COUNTER+IDX, BANKED
                      00063          CLRF   SSR_00_FLAGS+IDX, BANKED
                      00064         ENDM
                      00065 
                      00066 SET_SSR_PATTERN MACRO IDX, LEVEL, STEP, SPEED, FLAGS
                      00067         BANKSEL SSR_DATA_BANK
                      00068          MOVLW  LEVEL
                      00069          MOVWF  SSR_00_VALUE+IDX, BANKED
MPASM 5.66              ../QUIZSHOW_MAIN.ASM   3-1-2017  12:21:15         PAGE  5


LOC  OBJECT CODE     LINE SOURCE TEXT
  VALUE

                      00070          MOVLW  STEP
                      00071          MOVWF  SSR_00_STEP+IDX, BANKED
                      00072          MOVLW  SPEED
                      00073          MOVWF  SSR_00_SPEED+IDX, BANKED
                      00074          MOVWF  SSR_00_COUNTER+IDX, BANKED
                      00075          MOVLW  FLAGS
                      00076          MOVWF  SSR_00_FLAGS+IDX, BANKED
                      00077         ENDM
                      00078 
                      00079 SET_SSR_NORMAL_MODE MACRO IDX
                      00080          SET_SSR_PATTERN IDX, 0, 1, 3, BIT_FADE_UP|BIT_FADE_CYCLE
                      00081         ENDM
                      00082 
                      00083 SET_SSR_DMX_MODE MACRO IDX
                      00084          SET_SSR_PATTERN IDX, 0, 1, 1, BIT_FADE_UP|BIT_FADE_CYCLE
                      00085         ENDM
                      00086 
                      00087 SET_SSR_RAPID_FLASH MACRO IDX
                      00088          SET_SSR_PATTERN IDX, 255, 255, 30, BIT_FADE_DOWN|BIT_FADE_CYCLE
                      00089         ENDM
                      00090 
                      00091 SET_SSR_BLINK_FADE MACRO IDX
                      00092          SET_SSR_PATTERN IDX, 255,   2,  1, BIT_FADE_DOWN
                      00093         ENDM
                      00094 
                      00095 SET_SSR_SLOW_FLASH MACRO IDX
                      00096          SET_SSR_PATTERN IDX, 255, 255, 30, BIT_FADE_DOWN|BIT_FADE_CYCLE|BIT_MAX_OFF_TIME
                      00097         ENDM
                      00098 
                      00099 SET_SSR_RAPID_FADE MACRO IDX
                      00100          SET_SSR_PATTERN IDX, 0, 4, 1, BIT_FADE_UP|BIT_FADE_CYCLE
                      00101         ENDM
                      00102 
                      00103 SET_SSR_SLOW_FADE MACRO IDX
                      00104          SET_SSR_PATTERN IDX, 0, 1, 1, BIT_FADE_UP|BIT_FADE_CYCLE
                      00105         ENDM
                      00106 
                      00107 SET_SSR_STEADY MACRO IDX
                      00108          SET_SSR_VALUE IDX, 255
                      00109         ENDM
                      00110 
                      00111 SET_SSR_OFF MACRO IDX
                      00112          SET_SSR_VALUE IDX, 0
                      00113         ENDM
                      00114 #endif
                      00063 #include "lumos_ssr_state.inc"
                      00001 ; vim:set syntax=pic ts=8:
                      00002 ;
                      00003 ;@@@@@@@@@@@@@@@@@@@@@@@@@@@@@@@@@@@@@@@@@@@@@@@@@@@@@@@@@@@@@@@@@@@@@@@@@@@@@
                      00004 ;@@                                                                         @@
                      00005 ;@@ @      @   @  @   @   @@@    @@@          LUMOS: LIGHT ORCHESTRATION    @@
                      00006 ;@@ @      @   @  @@ @@  @   @  @   @         SYSTEM FIRMWARE VERSION 3.0   @@
                      00007 ;@@ @      @   @  @ @ @  @   @  @                                           @@
                      00008 ;@@ @      @   @  @   @  @   @   @@@   @@@@@  FOR 4-, 24-, AND 48-CH AC/DC  @@
                      00009 ;@@ @      @   @  @   @  @   @      @         LUMOS CONTROLLER UNITS        @@
                      00010 ;@@ @      @   @  @   @  @   @  @   @         BASED ON THE PIC18F4685 AND   @@
                      00011 ;@@ @@@@@   @@@   @   @   @@@    @@@          PIC18F14K50 CHIPS             @@
                      00012 ;@@                                                                         @@
                      00013 ;@@@@@@@@@@@@@@@@@@@@@@@@@@@@@@@@@@@@@@@@@@@@@@@@@@@@@@@@@@@@@@@@@@@@@@@@@@@@@
                      00014 ;
                      00015 ; Copyright (c) 2015 by Steven L. Willoughby, Aloha, Oregon, USA.  All Rights
                      00016 ; Reserved.  Released under the terms and conditions of the Open Software
                      00017 ; License, version 3.0.
                      00018 ;
                      00019 ; Portions based on earlier code copyright (c) 2004, 2005, 2006, 2007
                      00020 ; Steven L. Willoughby, Aloha, Oregon, USA.  All Rights Reserved.
                      00021 ;
                      00022 ; -*- -*- -* -*- -*- -*- -*- -*- -* -*- -*- -*- -*- -*- -* -*- -*- -*- -*- -*-
                      00023 ;
                      00024 ; SSR state register bits
                      00025 ;
                      00026 ;==============================================================================
                      00027 ; SSR STATE BITS      
                      00028 ;==============================================================================
                      00029 ;                     ___7______6______5______4______3______2______1______0__
                      00030 ; SSR_STATE          |      |      |SLICE |PRIV_ |SLEEP |DRAIN |PRE_  |TEST_ |
                      00031 ;                    |INCYC |PRECYC| _UPD | MODE |_MODE |_TR   |PRIV  |MODE  |
                      00032 ;                    |______|______|______|______|______|______|______|______|
                      00033 ; SSR_STATE2         |TEST_ |TEST_ |TEST_ |ALL_  |PRIV_ |INHIBI|MSB_  |LITER |
                      00034 ;                    |PAUSE |UPD   |BUTTON|OFF   |FORBID|T_OUTP|ESC   |AL_ESC|
MPASM 5.66              ../QUIZSHOW_MAIN.ASM   3-1-2017  12:21:15         PAGE  6


LOC  OBJECT CODE     LINE SOURCE TEXT
  VALUE

                      00035 ;                    |______|______|______|______|______|UT____|______|______|
                      00036 ;
  00000007            00037 INCYC           EQU     7
  00000006            00038 PRECYC          EQU     6
  00000005            00039 SLICE_UPD       EQU     5
  00000004            00040 PRIV_MODE       EQU     4
  00000003            00041 SLEEP_MODE      EQU     3
  00000002            00042 DRAIN_TR        EQU     2
  00000001            00043 PRE_PRIV        EQU     1
  00000000            00044 TEST_MODE       EQU     0
                      00045 
  00000007            00046 TEST_PAUSE      EQU     7
  00000006            00047 TEST_UPD        EQU     6
  00000005            00048 TEST_BUTTON     EQU     5
  00000004            00049 ALL_OFF         EQU     4
  00000003            00050 PRIV_FORBID     EQU     3
  00000002            00051 INHIBIT_OUTPUT  EQU     2
  00000001            00052 MSB_ESC         EQU     1
  00000000            00053 LITERAL_ESC     EQU     0
                      00064 #include "quizshow_config.inc"
                      00001 ; vim:set syntax=pic ts=8:
                      00002 ;
                      00003                 LIST N=86
                      00004 ;@@@@@@@@@@@@@@@@@@@@@@@@@@@@@@@@@@@@@@@@@@@@@@@@@@@@@@@@@@@@@@@@@@@@@@@@@@@@@
                      00005 ;@@                                                                         @@
                      00006 ;@@  @@@   @   @  @@@@@  @@@@@                QUIZ SHOW HARDWARE CONTROLLER @@
                      00007 ;@@ @   @  @   @    @        @                FIRMWARE VERSION 4.0          @@ 
                      00008 ;@@ @   @  @   @    @       @                                               @@
                      00009 ;@@ @   @  @   @    @      @                  FOR HARDWARE REVISION 4.0     @@
                      00010 ;@@ @ @ @  @   @    @     @                   QSCC - QUIZ SHOW CONTESTANT   @@
                      00011 ;@@ @  @@  @   @    @    @                    QSRC - QUIZ SHOW REMOTE       @@
                      00012 ;@@ @@@@@   @@@   @@@@@  @@@@@                                              @@
                      00013 ;@@                                                                         @@
                      00014 ;@@@@@@@@@@@@@@@@@@@@@@@@@@@@@@@@@@@@@@@@@@@@@@@@@@@@@@@@@@@@@@@@@@@@@@@@@@@@@
                      00015 ;
                      00016 ; Copyright (c) 2014 by Steven L. Willoughby, Aloha, Oregon, USA.  
                      00017 ; All Rights Reserved.  Quiz Show portions are unreleased trade secret
                      00018 ; information.
                      00019 ;
                      00020 ; Based on previous works by the same author, some of which are released
                      00021 ; under the Open Software License, version 3.0, which portions are available
                      00022 ; separately for free download.
                      00023 ;
                      00024 ; -*- -*- -* -*- -*- -*- -*- -*- -* -*- -*- -*- -*- -*- -* -*- -*- -*- -*- -*-
                      00025 ;
                      00026 ; Configuration options.  Set these as desired and then re-assemble the
                      00027 ; code to produce the desired version of the ROM.
                      00028 ;
                      00029 ; 
                      00030 ;==============================================================================
                      00031 ; CONFIGURATION OPTIONS
                      00032 ;==============================================================================
                      00033 ;
                      00034 ; Note: set LUMOS_CHIP_TYPE to LUMOS_CHIP_QSCC or _QSRC in lumos_config.inc
                      00035 ;
                      00065 #include "qscc_hook_main_pins.inc"
                      00001 ; vim:set syntax=pic ts=8:
                      00002 ;
                      00003                 LIST N=86
                      00004 ;@@@@@@@@@@@@@@@@@@@@@@@@@@@@@@@@@@@@@@@@@@@@@@@@@@@@@@@@@@@@@@@@@@@@@@@@@@@@@
                      00005 ;@@                                                                         @@
                      00006 ;@@  @@@   @   @  @@@@@  @@@@@                QUIZ SHOW HARDWARE CONTROLLER @@
                      00007 ;@@ @   @  @   @    @        @                FIRMWARE VERSION 4.0          @@ 
                      00008 ;@@ @   @  @   @    @       @                                               @@
                      00009 ;@@ @   @  @   @    @      @                  FOR HARDWARE REVISION 4.0     @@
                      00010 ;@@ @ @ @  @   @    @     @                   QSCC - QUIZ SHOW CONTESTANT   @@
                      00011 ;@@ @  @@  @   @    @    @                    QSRC - QUIZ SHOW REMOTE       @@
                      00012 ;@@ @@@@@   @@@   @@@@@  @@@@@                                              @@
                      00013 ;@@                                                                         @@
                      00014 ;@@@@@@@@@@@@@@@@@@@@@@@@@@@@@@@@@@@@@@@@@@@@@@@@@@@@@@@@@@@@@@@@@@@@@@@@@@@@@
                      00015 ;
                      00016 ; Copyright (c) 2014 by Steven L. Willoughby, Aloha, Oregon, USA.  
                      00017 ; All Rights Reserved.  Quiz Show portions are unreleased trade secret
                      00018 ; information.
                      00019 ;
                      00020 ; Based on previous works by the same author, some of which are released
                      00021 ; under the Open Software License, version 3.0, which portions are available
                      00022 ; separately for free download.
                      00023 ;
                      00024 ; -*- -*- -* -*- -*- -*- -*- -*- -* -*- -*- -*- -*- -*- -* -*- -*- -*- -*- -*-
MPASM 5.66              ../QUIZSHOW_MAIN.ASM   3-1-2017  12:21:15         PAGE  7


LOC  OBJECT CODE     LINE SOURCE TEXT
  VALUE

                      00025 ;
                      00026 ; This hooks into the Lumos device initialization code which sets up I/O pins.
                      00027 ; We want them arranged differently than the Lumos controllers do, but we put
                      00028 ; the QuizShow code here to keep the Lumos product clean and separate.
                      00029 ; 
                      00030         IF LUMOS_CHIP_TYPE != LUMOS_CHIP_QSCC && LUMOS_CHIP_TYPE != LUMOS_CHIP_QSRC
                      00031          ERROR "qscc_hook_main_pins only used for QS*C systems"
                      00032         ENDIF
                      00033 
                      00034 ;
                      00035 ; QSCC
                      00036 ;
                      00037                     IF LUMOS_CHIP_TYPE == LUMOS_CHIP_QSCC
                      00038 N_BUTTONS            EQU        .6      ; X L A B C D
                      00039 BTN_IDX_X0           EQU        .0
                      00040 BTN_IDX_L0           EQU        .1
                      00041 BTN_IDX_A0           EQU        .2
                      00042 BTN_IDX_B0           EQU        .3
                      00043 BTN_IDX_C0           EQU        .4
                      00044 BTN_IDX_D0           EQU        .5
                      00045 PORT_X0              EQU        PORTA
                      00046 PORT_L0              EQU        PORTA
                      00047 PORT_A0              EQU        PORTA
                      00048 PORT_B0              EQU        PORTA
                      00049 PORT_C0              EQU        PORTA
                      00050 PORT_D0              EQU        PORTA
                      00051 BIT_X0               EQU        1
                      00052 BIT_L0               EQU        0
                      00053 BIT_A0               EQU        5
                      00054 BIT_B0               EQU        4
                      00055 BIT_C0               EQU        3
                      00056 BIT_D0               EQU        2
                      00057 
                      00058 QS_SENS_PORT         EQU        PORTA           ;      76543210
                      00059 QS_SENS_MASK         EQU        B'00111111'     ; RA:  00ABCDXL
                      00060 QS_SENS_CONF         EQU        B'00101000'     ; A+C -> config mode
                      00061 
                      00062 PORT_RX              EQU        PORTC
                      00063 BIT_RX               EQU        7
                      00064 
                      00065 HAS_T_R              EQU        1
                      00066 HAS_ACTIVE           EQU        0
                      00067 HAS_SENSORS          EQU        0
                      00068 HAS_OPTION           EQU        0
                      00069 HAS_STATUS_LEDS      EQU        0
                      00070 HAS_POWER_CTRL       EQU        0
                      00071 
                      00072 PLAT_T_R             EQU        LATC
                      00073 PORT_T_R             EQU        PORTC
                      00074 TRIS_T_R             EQU        TRISC
                      00075 BIT_T_R              EQU        3
                      00076 
                      00077 CHAN_X0R             EQU        .0
                      00078 CHAN_X0G             EQU        .1
                      00079 CHAN_X0B             EQU        .2
                      00080 CHAN_L0R             EQU        .3
                      00081 CHAN_L0Y             EQU        .4
                      00082 CHAN_L0G             EQU        .5
                      00083 CHAN_A0L             EQU        .6
                      00084 CHAN_B0L             EQU        .7
                      00085 CHAN_C0L             EQU        .8
                      00086 CHAN_D0L             EQU        .9
                      00087 CHAN_F_R             EQU        .10
                      00088 CHAN_F_G             EQU        .11
                      00089 CHAN_F_B             EQU        .12
                      00090 CHAN_F_W             EQU        .13
                      00091 
                      00092 PLAT_0               EQU        LATC    ; XR
                      00093 PLAT_1               EQU        LATC    ; XG
                      00094 PLAT_2               EQU        LATC    ; XB
                      00095 PLAT_3               EQU        LATE    ; LR
                      00096 PLAT_4               EQU        LATE    ; LY
                      00097 PLAT_5               EQU        LATE    ; LG
                      00098 PLAT_6               EQU        LATB    ; AL
                      00099 PLAT_7               EQU        LATB    ; BL
                      00100 PLAT_8               EQU        LATB    ; CL
                      00101 PLAT_9               EQU        LATB    ; DL
                      00102 PLAT_10              EQU        LATB    ; FR
                      00103 PLAT_11              EQU        LATB    ; FG
                      00104 PLAT_12              EQU        LATB    ; FB
MPASM 5.66              ../QUIZSHOW_MAIN.ASM   3-1-2017  12:21:15         PAGE  8


LOC  OBJECT CODE     LINE SOURCE TEXT
  VALUE

                      00105 PLAT_13              EQU        LATB    ; FW
                      00106 SSR_MAX              EQU        .13
                      00107 
                      00108 BIT_0                EQU        2       ; XR
                      00109 BIT_1                EQU        1       ; XG
                      00110 BIT_2                EQU        0       ; XB
                      00111 BIT_3                EQU        2       ; LR
                      00112 BIT_4                EQU        0       ; LY
                      00113 BIT_5                EQU        1       ; LG
                      00114 BIT_6                EQU        7       ; AL
                      00115 BIT_7                EQU        6       ; BL
                      00116 BIT_8                EQU        5       ; CL
                      00117 BIT_9                EQU        4       ; DL
                      00118 BIT_10               EQU        3       ; FR
                      00119 BIT_11               EQU        2       ; FG
                      00120 BIT_12               EQU        1       ; FB
                      00121 BIT_13               EQU        0       ; FW
                      00122 
                      00123                     ELSE
                      00124                      IF LUMOS_CHIP_TYPE == LUMOS_CHIP_QSRC
  0000000A            00125 N_BUTTONS             EQU       .10     ; X0 L0 X1 L1 ... X4 L4
  00000000            00126 BTN_IDX_X0            EQU       .0
  00000001            00127 BTN_IDX_L0            EQU       .1
  00000002            00128 BTN_IDX_X1            EQU       .2
  00000003            00129 BTN_IDX_L1            EQU       .3
  00000004            00130 BTN_IDX_X2            EQU       .4
  00000005            00131 BTN_IDX_L2            EQU       .5
  00000006            00132 BTN_IDX_X3            EQU       .6
  00000007            00133 BTN_IDX_L3            EQU       .7
  00000008            00134 BTN_IDX_X4            EQU       .8
  00000009            00135 BTN_IDX_L4            EQU       .9
                      00136 
  00000F80            00137 QS_SENS_PORT          EQU       PORTA           ;      76543210
  0000003F            00138 QS_SENS_MASK          EQU       B'00111111'     ; RA:  00LXXLXL
  00000028            00139 QS_SENS_CONF          EQU       B'00101000'     ;        220011
  00000006            00140 QS_SENS_STAND         EQU       B'00000110'     ; L2+X0: CONF; X1+L0: stand
                      00141 
  00000F80            00142 PORT_X0               EQU       PORTA
  00000F80            00143 PORT_L0               EQU       PORTA
  00000F80            00144 PORT_X1               EQU       PORTA
  00000F80            00145 PORT_L1               EQU       PORTA
  00000F80            00146 PORT_X2               EQU       PORTA
  00000F80            00147 PORT_L2               EQU       PORTA
  00000F82            00148 PORT_X3               EQU       PORTC
  00000F83            00149 PORT_L3               EQU       PORTD
  00000F83            00150 PORT_X4               EQU       PORTD
  00000F82            00151 PORT_L4               EQU       PORTC
  00000003            00152 BIT_X0                EQU       3
  00000002            00153 BIT_L0                EQU       2
  00000001            00154 BIT_X1                EQU       1
  00000000            00155 BIT_L1                EQU       0
  00000004            00156 BIT_X2                EQU       4
  00000005            00157 BIT_L2                EQU       5
  00000004            00158 BIT_X3                EQU       4
  00000000            00159 BIT_L3                EQU       0
  00000004            00160 BIT_X4                EQU       4
  00000005            00161 BIT_L4                EQU       5
                      00162 
  00000F82            00163 PORT_RX               EQU       PORTC
  00000007            00164 BIT_RX                EQU       7
                      00165 
  00000001            00166 HAS_T_R               EQU       1
  00000000            00167 HAS_ACTIVE            EQU       0
  00000000            00168 HAS_SENSORS           EQU       0
  00000000            00169 HAS_OPTION            EQU       0
  00000000            00170 HAS_STATUS_LEDS       EQU       0
  00000000            00171 HAS_POWER_CTRL        EQU       0
                      00172 
  00000F8B            00173 PLAT_T_R              EQU       LATC
  00000F82            00174 PORT_T_R              EQU       PORTC
  00000F94            00175 TRIS_T_R              EQU       TRISC
  00000003            00176 BIT_T_R               EQU       3
                      00177 
  00000000            00178 CHAN_X0R              EQU       .0
  00000001            00179 CHAN_X0G              EQU       .1
  00000002            00180 CHAN_X0B              EQU       .2
  00000003            00181 CHAN_L0R              EQU       .3
  00000004            00182 CHAN_X1R              EQU       .4
  00000005            00183 CHAN_X1G              EQU       .5
  00000006            00184 CHAN_X1B              EQU       .6
MPASM 5.66              ../QUIZSHOW_MAIN.ASM   3-1-2017  12:21:15         PAGE  9


LOC  OBJECT CODE     LINE SOURCE TEXT
  VALUE

  00000007            00185 CHAN_L1R              EQU       .7
  00000008            00186 CHAN_X2R              EQU       .8
  00000009            00187 CHAN_X2G              EQU       .9
  0000000A            00188 CHAN_X2B              EQU       .10
  0000000B            00189 CHAN_L2R              EQU       .11
  0000000C            00190 CHAN_X3R              EQU       .12
  0000000D            00191 CHAN_X3G              EQU       .13
  0000000E            00192 CHAN_X3B              EQU       .14
  0000000F            00193 CHAN_L3R              EQU       .15
  00000010            00194 CHAN_X4R              EQU       .16
  00000011            00195 CHAN_X4G              EQU       .17
  00000012            00196 CHAN_X4B              EQU       .18
  00000013            00197 CHAN_L4R              EQU       .19
  00000013            00198 CHAN_HB               EQU       CHAN_L4R
  00000F8B            00199 PLAT_0                EQU       LATC    ; X0R
  00000F8B            00200 PLAT_1                EQU       LATC    ; X0G
  00000F8B            00201 PLAT_2                EQU       LATC    ; X0B
  00000F8D            00202 PLAT_3                EQU       LATE    ; L0R
  00000F8A            00203 PLAT_4                EQU       LATB    ; X1R
  00000F8A            00204 PLAT_5                EQU       LATB    ; X1G
  00000F8A            00205 PLAT_6                EQU       LATB    ; X1B
  00000F8A            00206 PLAT_7                EQU       LATB    ; L1R
  00000F8A            00207 PLAT_8                EQU       LATB    ; X2R
  00000F8A            00208 PLAT_9                EQU       LATB    ; X2G
  00000F8A            00209 PLAT_10               EQU       LATB    ; X2B
  00000F8D            00210 PLAT_11               EQU       LATE    ; L2R
  00000F8C            00211 PLAT_12               EQU       LATD    ; X3R
  00000F8C            00212 PLAT_13               EQU       LATD    ; X3G
  00000F8C            00213 PLAT_14               EQU       LATD    ; X3B
  00000F8D            00214 PLAT_15               EQU       LATE    ; L3R
  00000F8A            00215 PLAT_16               EQU       LATB    ; X4R
  00000F8C            00216 PLAT_17               EQU       LATD    ; X4G
  00000F8C            00217 PLAT_18               EQU       LATD    ; X4B
  00000F8C            00218 PLAT_19               EQU       LATD    ; L4R
  00000013            00219 SSR_MAX               EQU       .19
                      00220 
  00000002            00221 BIT_0                 EQU       2       ; X0R
  00000001            00222 BIT_1                 EQU       1       ; X0G
  00000000            00223 BIT_2                 EQU       0       ; X0B
  00000002            00224 BIT_3                 EQU       2       ; L0R
  00000007            00225 BIT_4                 EQU       7       ; X1R
  00000006            00226 BIT_5                 EQU       6       ; X1G
  00000005            00227 BIT_6                 EQU       5       ; X1B
  00000004            00228 BIT_7                 EQU       4       ; L1R
  00000003            00229 BIT_8                 EQU       3       ; X2R
  00000002            00230 BIT_9                 EQU       2       ; X2G
  00000001            00231 BIT_10                EQU       1       ; X2B
  00000000            00232 BIT_11                EQU       0       ; L2R
  00000007            00233 BIT_12                EQU       7       ; X3R
  00000006            00234 BIT_13                EQU       6       ; X3G
  00000005            00235 BIT_14                EQU       5       ; X3B
  00000001            00236 BIT_15                EQU       1       ; L3R
  00000000            00237 BIT_16                EQU       0       ; X4R
  00000003            00238 BIT_17                EQU       3       ; X4G
  00000001            00239 BIT_18                EQU       1       ; X4B
  00000002            00240 BIT_19                EQU       2       ; L4R
                      00241 
  00000001            00242 HAS_FACTORY_RESET    EQU        1       ; this unit has factory reset jumper support
                      00243                                         ; wire a special jumper plug for player #5
                      00244                                         ; to connect X input to PGD pin on ISCP port
                      00245                                         ; connect jumper, power on, then pull jumper
  00000000            00246 FRST_TRISTATE_TEST   EQU        0       ; need to change tristate bits for test pins
  00000F83            00247 FRST_RECEIVER_P      EQU        PORT_X4 ; pin to receive jumpered signal
  00000004            00248 FRST_RECEIVER_B      EQU        BIT_X4  ; bit to receive jumpered signal
  00000F8A            00249 FRST_SENDER_P        EQU        LATB    ; pin to send jumpered signal   PGD=<B7>
  00000007            00250 FRST_SENDER_B        EQU        7       ; bit to send jumpered signal
  00000F8C            00251 FRST_SIG_A_P         EQU        PLAT_19 ; lights to flash for factory reset (on)
  00000002            00252 FRST_SIG_A_B         EQU        BIT_19  ; lights to flash for factory reset
  00000F8B            00253 FRST_SIG_B_P         EQU        PLAT_0  ; lights to flash for factory reset (off)
  00000002            00254 FRST_SIG_B_B         EQU        BIT_0   ; lights to flash for factory reset
  00000F8B            00255 FRST_SIG_C_P         EQU        PLAT_2  ; lights to flash for factory reset (on)
  00000000            00256 FRST_SIG_C_B         EQU        BIT_2   ; lights to flash for factory reset
                      00257                      ENDIF
                      00258                     ENDIF
                      00259 
                      00066 #include "qscc_bits.inc"
                      00001 ; vim:set syntax=pic ts=8:
                      00002 ;
                      00003                 LIST N=86
                      00004 ;@@@@@@@@@@@@@@@@@@@@@@@@@@@@@@@@@@@@@@@@@@@@@@@@@@@@@@@@@@@@@@@@@@@@@@@@@@@@@
MPASM 5.66              ../QUIZSHOW_MAIN.ASM   3-1-2017  12:21:15         PAGE 10


LOC  OBJECT CODE     LINE SOURCE TEXT
  VALUE

                      00005 ;@@                                                                         @@
                      00006 ;@@  @@@   @   @  @@@@@  @@@@@                QUIZ SHOW HARDWARE CONTROLLER @@
                      00007 ;@@ @   @  @   @    @        @                FIRMWARE VERSION 4.0          @@ 
                      00008 ;@@ @   @  @   @    @       @                                               @@
                      00009 ;@@ @   @  @   @    @      @                  FOR HARDWARE REVISION 4.0     @@
                      00010 ;@@ @ @ @  @   @    @     @                   QSCC - QUIZ SHOW CONTESTANT   @@
                      00011 ;@@ @  @@  @   @    @    @                    QSRC - QUIZ SHOW REMOTE       @@
                      00012 ;@@ @@@@@   @@@   @@@@@  @@@@@                                              @@
                      00013 ;@@                                                                         @@
                      00014 ;@@@@@@@@@@@@@@@@@@@@@@@@@@@@@@@@@@@@@@@@@@@@@@@@@@@@@@@@@@@@@@@@@@@@@@@@@@@@@
                      00015 ;
                      00016 ; Copyright (c) 2014 by Steven L. Willoughby, Aloha, Oregon, USA.  
                      00017 ; All Rights Reserved.  Quiz Show portions are unreleased trade secret
                      00018 ; information.
                      00019 ;
                      00020 ; Based on previous works by the same author, some of which are released
                      00021 ; under the Open Software License, version 3.0, which portions are available
                      00022 ; separately for free download.
                      00023 ;
                      00024 ; -*- -*- -* -*- -*- -*- -*- -*- -* -*- -*- -*- -*- -*- -* -*- -*- -*- -*- -*-
                      00025 ;
                      00026 ; This defines the bits for bit-encoded flags, etc.
                      00027 ; 
                      00028 #ifndef QSCC_BITS_INC
                      00029 #define QSCC_BITS_INC
                      00030 
                      00031         IF LUMOS_CHIP_TYPE != LUMOS_CHIP_QSCC && LUMOS_CHIP_TYPE != LUMOS_CHIP_QSRC
                      00032          ERROR "qscc_bits only used for QS*C systems"
                      00033         ENDIF
                      00034                                         ; QUIZSHOW_FLAGS
  00000002            00035 QS_FLAG_DOING120 EQU    2               ; -----1--      Doing "every 1/120 sec tasks" now
  00000001            00036 QS_FLAG_ON_120_S EQU    1               ; ------1-      Need to do "every 1/120 sec tasks" now
  00000000            00037 QS_FLAG_SCANNING EQU    0               ; -------1      Scanner running
                      00038 
                      00039                                         ; BTN_??_FLAGS
  00000004            00040 BTN_FLG_LCK_ACK EQU     4               ; ---1----      Button lock acknowledged already
  00000003            00041 BTN_FLG_ACTIVE  EQU     3               ; ----1---      Button being pressed now
  00000002            00042 BTN_FLG_LOCKED  EQU     2               ; -----1--      Button locked out
  00000001            00043 BTN_FLG_MASKED  EQU     1               ; ------1-      Button ignored
  00000000            00044 BTN_FLG_PRESSED EQU     0               ; -------1      Button pressed already
                      00045 
  00000C00            00046 QUIZSHOW_DATA   EQU     0xC00
                      00047 #endif
                      00067         RADIX   DEC
  0000                00068         EXTERN  QUIZSHOW_FLAGS
  0000                00069         EXTERN  QS_BTN_TMR_T
  0000                00070         EXTERN  QS_BTN_TMR_U
  0000                00071         EXTERN  SSR_STATE
  0000                00072         GLOBAL  BTN_X0_TIME_T
  0000                00073         GLOBAL  BTN_X0_TIME_U
  0000                00074         GLOBAL  BTN_X0_TIME_H
  0000                00075         GLOBAL  BTN_X0_TIME_L
  0000                00076         GLOBAL  BTN_X0_FLAGS
  0000                00077         GLOBAL  QUIZSHOW_LCKTM
                      00078 ;#include "serial-io.inc"
                      00079 
                      00080 ; Works on Software Alchemy Quiz Show QSCC and QSRC boards revision 4.0.
                      00081 ;
                      00082 ; N.B. THE BOARD SELECT BITS IN LUMOS_CONFIG.INC MUST BE SELECTED
                      00083 ; FOR THE TARGET CONFIGURATION!  EACH ROM IS DIFFERENT!
                      00084 ;
                      00085 ; Target Microcontroller is PIC18F4685, Q=40MHz (100nS instruction cycle)
                      00086 ;
                      00087 ; Serial control (RS-485) at 19.2kbps by default.
                      00088 ; Configurable from 300 to 250000 baud.
                      00089 ;
                      00090 ; OPTION BUTTON:
                      00091 ; XXX The Lumos controllers have an OPTION button which starts configuration
                      00092 ; XXX mode.  QS*C boards don't have those, so instead boot the unit while
                      00093 ; XXX holding down the A and D buttons (QSCC) or the L2 and L0 buttons (QSRC)
                      00094 ; XXX to enter configuration mode.
                      00095 ; 
                      00096 ;=============================================================================
                      00097 ; IMPLEMENTATION NOTES
                      00098 ;-----------------------------------------------------------------------------
                      00099 ;
                      00100 ; The QUIZSHOW controller firmware consists of a number of somewhat 
                      00101 ; independent subsystems:
                      00102 ; 
                      00103 ; LUMOS
MPASM 5.66              ../QUIZSHOW_MAIN.ASM   3-1-2017  12:21:15         PAGE 11


LOC  OBJECT CODE     LINE SOURCE TEXT
  VALUE

                      00104 ;       The QSCC and QSRC boards are also Lumos SSR controllers which implement
                      00105 ;       most of the standard Lumos commands.  The various lights used by the
                      00106 ;       quiz show are mapped to Lumos channels.  The Lumos firmware is included
                      00107 ;       into the quizshow firmware, with some special switches enabled to adapt
                      00108 ;       it to this hardware.
                      00109 ;
                      00110 ; START
                      00111 ;       Initializes the microcontroller, starts up the required peripherals,
                      00112 ;       and enters the main loop
                      00113 ;
                      00114 ; SIO
                      00115 ;       Handles all serial I/O operations in the background (interrupt-driven)
                      00116 ;       so the rest of the code only needs to be concerned with higher-level
                      00117 ;       reads and writes.  Buffers hold 256 characters each of input and output.
                      00118 ;
                      00119 ; ISR
                      00120 ;       The interrupt service routine manages a set of counters and timers:
                      00121 ;       1. We run a 120 Hz timer which provides timing for the dimmers.
                      00122 ;
                      00123 ; MAIN_LOOP
                      00124 ;       Manages the display of the readerboards.
                      00125 ;       Updates the status of the SSR lines if it's time to do so
                      00126 ;       Receives a character from the serial line if one's waiting
                      00127 ;
                      00128 ; INTERPRETER
                      00129 ;       When a byte is received on the serial line, it is processed by
                      00130 ;       a small state machine.  The current state is held in YY_STATE (named
                      00131 ;       in honor of the venerable yacc).
                      00132 ;
                      00133 ;-----------------------------------------------------------------------------
                      00134 ; Command Protocol:
                      00135 ;                     ___7______6______5______4______3______2______1______0__
                      00136 ; Command Byte:      |      |                    |                           |
                      00137 ;                    |   1  |    Command code    |   Target device address   |
                      00138 ;                    |______|______|______|______|______|______|______|______|
                      00139 ;
                      00140 ; Any byte with its MSB set is the beginning of a command.  If the target 
                      00141 ; device matches this unit's address, the state machine kicks into gear and
                      00142 ; processes the command (which may require some following data bytes, all
                      00143 ; of which must have their MSB cleared).  Otherwise, the unit ignores the
                      00144 ; byte.
                      00145 ;
                      00146 ;                     ___7______6______5______4______3______2______1______0__
                      00147 ; Extended Command:  |      |                    |                           |
                      00148 ;                    |   1  |          7         |   Target device address   |
                      00149 ;                    |______|______|______|______|______|______|______|______|
                      00150 ;                    |      |                                                |
                      00151 ;                    |   0  |                  Command code                  |
                      00152 ;                    |______|______|______|______|______|______|______|______|
                      00153 ;
                      00154 ; The most common commands are given ID 0-6 so that they may be sent in as few
                      00155 ; bytes as possible (as few as a single byte), but we have more than 8 commands
                      00156 ; so we have an extended code.  If the command code is 7 (all bits set), then
                      00157 ; the following byte contains the actual command code which may be any value
                      00158 ; from 0-127.
                      00159 ;
                      00160 ;                     ___7______6______5______4______3______2______1______0__
                      00161 ; Data Byte:         |      |                                                |
                      00162 ;                    |   0  |                      Data                      |
                      00163 ;                    |______|______|______|______|______|______|______|______|
                      00164 ;
                      00165 ; Any byte with its MSB cleared is a data byte, and is ignored unless we're
                      00166 ; in the middle of interpreting a multi-byte command, in which case it's interpreted
                      00167 ; appropriately as data supporting the command being executed.  This way, other
                      00168 ; devices which share the same protocol format but not necessarily a compatible
                      00169 ; command set may safely know which bytes can be ignored without knowing the
                      00170 ; details of each other's command sets.
                      00171 ;
                      00172 ; Two special bytes are recognized:
                      00173 ;
                      00174 ;                     ___7______6______5______4______3______2______1______0__
                      00175 ; MSB Escape:        |      |                                                |
                      00176 ;                    |   0  |   1      1      1      1      1      1      0  |
                      00177 ;                    |______|______|______|______|______|______|______|______|
                      00178 ;
                      00179 ; If this ($7E) byte is received, it is ignored but the next byte received will
                      00180 ; have its MSB bit set.  This allows data bytes to have full 8-bit values without
                      00181 ; violating the communication protocol described above.  That second byte is not
                      00182 ; interpreted further.
                      00183 ;
MPASM 5.66              ../QUIZSHOW_MAIN.ASM   3-1-2017  12:21:15         PAGE 12


LOC  OBJECT CODE     LINE SOURCE TEXT
  VALUE

                      00184 ;                     ___7______6______5______4______3______2______1______0__
                      00185 ; Literal Escape     |      |                                                |
                      00186 ;                    |   0  |   1      1      1      1      1      1      1  |
                      00187 ;                    |______|______|______|______|______|______|______|______|
                      00188 ;
                      00189 ; If this ($7F) byte is received, it is ignored but the next byte is accepted
                      00190 ; as-is without further interpretation.
                      00191 ;
                      00192 ; Specific Example Cases of interest:
                      00193 ;       Sequence    Resulting byte
                      00194 ;       $7E $7E     $FE
                      00195 ;       $7E $7F     $FF
                      00196 ;       $7F $7E     $7E
                      00197 ;       $7F $7F     $7F
                      00198 ;
                      00199 ; A command byte (received with MSB already set) trumps all of the above.  It is
                      00200 ; taken as the start of a command and the escape sequence in progress is canceled.
                      00201 ;
                      00202 ; Commands recognized (L indicates Lumos commands):
                      00203 ;
                      00204 ;   COMMAND  CODE  BITS
                      00205 ;L  BLACKOUT 0     1000aaaa
                      00206 ;L  ON_OFF   1     1001aaaa 0scccccc            Turn channel <c> on (<s>=1) or off (<s>=0)
                      00207 ;L  SET_LVL  2     1010aaaa 0hcccccc 0vvvvvvv    Set dimmer level <v>:<h> on channel <c>
                      00208 ;L  BULK_UPD 3     1011aaaa 0mcccccc ...                Bulk-upload multiple channel levels
                      00209 ;L  RAMP_LVL 4     1100aaaa Cdcccccc ...         Ramp channel <c> smoothly up (<d>=1) or down (<C>=1 cyc
                            le)
                      00210 ;   SCAN_ST  5     1101aaaa                      Start scanning buttons
                      00211 ;   SCAN_Q   6     1110aaaa 0000000s             Read scan results / Stop
                      00212 ;   EXTENDED 7     1111aaaa                      Extended command, decoded further in next byte
                      00213 ;L@ SLEEP    7+0   1111aaaa 00000000 01011010 01011010  Put unit to sleep
                      00214 ;L@ WAKE     7+1   1111aaaa 00000001 01011010 01011010  Take unit out of sleep mode
                      00215 ;L  SHUTDOWN 7+2   1111aaaa 00000010 01011000 01011001  Take unit completely offline
                      00216 ;L< QUERY    7+3   1111aaaa 00000011 00100100 01010100  Report device status
                      00217 ;X! DEF_SEQ  7+4   1111aaaa 00000100 0iiiiiii ...       Define sequence <i>
                      00218 ;X  EXEC_SEQ 7+5   1111aaaa 00000101 0iiiiiii           Execute sequence <i> (0=stop)
                      00219 ;X! CLR_SEQ  7+8   1111aaaa 00001000 01000011 01000001  Erase all stored sequences
                      00220 ;L  XPRIV    7+9   1111aaaa 00001001                    Forbid priviliged mode
                      00221 ;            7+10  1111aaaa 00001010                    Reserved for future use
                      00222 ;             :        :        :                           :     :     :    : 
                      00223 ;            7+28  1111aaaa 00011100                    Reserved for future use                 
                      00224 ;   OUT_SCAN 7+29  1111aaaa 00011101                    SCAN_Q reply
                      00225 ;L  OUT_NAK  7+30  1111aaaa 00011110                    QUERY NAK                               
                      00226 ;L  OUT_RPLY 7+31  1111aaaa 00011111 ...                Reply to QUERY command_________________ 
                      00227 ;   IC_***** 7+32  11110000 00100000                    Reserved (Lumos internal)
                      00228 ;             :        :        :                           :     :   :      :         ////////
                      00229 ;            7+63  11110000 00111111                    Reserved for new commands______////////
                      00230 ;*! CF_PHASE 7+64  1111aaaa 010000pp 0ppppppp 01010000 01001111   Phase offset=<p>       CONFIG
                      00231 ;*! CF_ADDR  7+96  1111aaaa 0110AAAA 01001001 01000001 01000100   Change address to <A>  ||||||
                      00232 ;*  CF_NOPRV 7+112 1111aaaa 01110000                              Leave privileged mode  ||||||
                      00233 ;*  CF_CONF  7+113 1111aaaa 01110001 ...                          Configure device       ||||||
                      00234 ;*! CF_BAUD  7+114 1111aaaa 01110010 0bbbbbbb 00100110            Set baud rate to <b>   ||||||
                      00235 ;*! CF_RESET 7+115 1111aaaa 01110011 00100100 01110010            Reset factory defaults ||||||
                      00236 ;*  CF_XPRIV 7+116 1111aaaa 01110100                              Forbid priviliged mode ||||||
                      00237 ;*           7+117 1111aaaa 01110101                     Reserved for future config cmd  ||||||
                      00238 ;*                     :        :                            :     :     :      :    :   ||||||
                      00239 ;*           7+127 1111aaaa 01111111                     Reserved for future config cmd__||||||
                      00240 ;
                      00241 ; Legend:
                      00242 ;   X Not yet implemented; planned for future; subject to change
                      00243 ;   @ Unit may automatically take this action
                      00244 ;   * Privileged configuration-mode command
                      00245 ;   ! Permanent effect (written to EEPROM)
                      00246 ;   < Command generates response data (back to host)
                      00247 ;   a Device address (0-15)
                      00248 ;   b Baud rate code (0-127), but units may only define a small subset of those values
                      00249 ;   c Output channel (0-63, but unit may only support a lesser number)
                      00250 ;   d Direction: up (<d>=1) or down (<d>=0).
                      00251 ;   h High-res level bit (LSB of 8-bit value when in high-res mode)
                      00252 ;   m Mode (1=high-res, 0=low-res)
                      00253 ;   n Number of items affected
                      00254 ;   s Output state: 0=off, 1=on
                      00255 ;   v Value of dimmer (0-127) (most significant 7 bits of dimmer value)
                      00256 ;
                      00257 ; Payloads for many-byte commands
                      00258 ;
                      00259 ; BULK_UPD:  00cccccc 0nnnnnnn v0 v1 v2 ... vn 01010101
                      00260 ;       Updates <n>+1 channels starting at <c>, giving <v> values for each as per SET_LVL.
                      00261 ;
                      00262 ; RAMP_LVL:  Cdcccccc 0sssssss 0ttttttt   Channel <c> up/down in <s>+1 steps every <t>+1/120 sec
MPASM 5.66              ../QUIZSHOW_MAIN.ASM   3-1-2017  12:21:15         PAGE 13


LOC  OBJECT CODE     LINE SOURCE TEXT
  VALUE

                      00263 ;
                      00264 ; DEF_SEQ:   0iiiiiii 0nnnnnnn (...)*<n+1> 01000100 01110011  Define sequence <i> of length <n+1>
                      00265 ;                                                             0 is boot sequence, 1-63 is EEPROM
                      00266 ;                                                             64-127 is RAM.
                      00267 ;
                      00268 ; CF_BAUD:   Values recognized:
                      00269 ;       00000000 ($00)      300 baud
                      00270 ;       00000001 ($01)      600
                      00271 ;       00000010 ($02)    1,200
                      00272 ;       00000011 ($03)    2,400
                      00273 ;       00000100 ($04)    4,800
                      00274 ;       00000101 ($05)    9,600
                      00275 ;       00000110 ($06)   19,200
                      00276 ;       00000111 ($07)   38,400
                      00277 ;       00001000 ($08)   57,600
                      00278 ;       00001001 ($09)  115,200
                      00279 ;       00001010 ($0A)  250,000
                      00280 ;
                      00281 ;
                      00282 ; Response packet from QUERY command (37 bytes):
                      00283 ; note the ROM version byte also serves to indicate the format of the response
                      00284 ; bytes which follow.  If the query packet format changes, the ROM version byte
                      00285 ; MUST also change.
                      00286 ;
                      00287 ;    1111aaaa 00011111 00110000 0ABCDdcc 0ccccccc 0ABCDqsf 0ABCDXpp 0ppppppp 
                      00288 ;        \__/           \_/\__/  \__/|\_________/  \__/|||  \__/|\_________/  
                      00289 ;          |             maj |     | |   |           | |||   |  |      `--phase
                      00290 ;          `--reporting    minor   | |   `--DMX      | |||   |  `--config locked?
                      00291 ;              unit addr  rom      | |      channel  | |||   `--active
                      00292 ;                         vers.    | |               | ||`--mem full?
                      00293 ;                                  | `--DMX mode?    | |`--sleeping?
                      00294 ;                                  `--configured     | `--config mode?
                      00295 ;                                                    `--masks
                      00296 ;
                      00297 ;    0eeeeeee 0eeeeeee 0MMMMMMM 0MMMMMMM 0X0iiiii 0xxxxxxx 
                      00298 ;     \______________/  \______________/  | \___/  \_____/
                      00299 ;        `--EEPROM free    `--RAM free    |   |       `--executing seq.
                      00300 ;                                         |   `--device model
                      00301 ;                                         `--seq running?
                      00302 ;
                      00303 ;    0owE0000 0IIIIIII 0iiiiiii 0PPPPPPP        Sensor trigger info for A
                      00304 ;    0owE0001 0IIIIIII 0iiiiiii 0PPPPPPP        Sensor trigger info for B
                      00305 ;    0owE0010 0IIIIIII 0iiiiiii 0PPPPPPP        Sensor trigger info for C
                      00306 ;    0owE0011 0IIIIIII 0iiiiiii 0PPPPPPP        Sensor trigger info for D
                      00307 ;
                      00308 ;    0fffffff 0fffffff 000000pp 0ppppppp ssssssss ssssssss 00110011
                      00309 ;    \______/ \______/       \_________/ \______S/N______/
                      00310 ;        |        |               `--phase (channels 24-47)
                      00311 ;        |        `--fault code (channels 24-47)
                      00312 ;        `--fault code (channels 0-23)
                      00313 ;
                      00314 ; Response to SCAN_Q query commands:
                      00315 ; Note that the ROM version dictates these changes too, so if this format
                      00316 ; changes the ROM version MUST change (as reported in the QUERY response
                      00317 ; above).
                      00318 ;                               31       23       15       7      0
                      00319 ;    1111aaaa 00011101 0R0nnnnn tttttttt tttttttt tttttttt tttttttt ...
                      00320 ;        \__/           | \___/ \_________________________________/
                      00321 ;          |            |   |                    | (x n)
                      00322 ;          `--reporting | number of    0=not pressed yet
                      00323 ;              unit addr| buttons     >0=microseconds elapsed before press
                      00324 ;                       | reported            (range: .000001~4294.967295 s)
                      00325 ;                       0=scanning stopped       00:00.000001~71:34.967295 
                      00326 ;                       1=scanner is still running
                      00327 ;                      
                      00328 ;    01010001 00101010 
                      00329 ;
                      00330 ; QSCC sends 6 buttons: X, L, A, B, C, D.
                      00331 ; QSRC sends 10 buttons: X0, L0, X1, L1, X2, L2, X3, L3, X4, L4.  
                      00332 ;
                      00333 ; Also note that the controller is allowed to send OUT_NAK packets to the
                      00334 ; host in response to QUERY commands.  This does not complete the exchange,
                      00335 ; but serves to ask the host to continue waiting if the device won't be able
                      00336 ; to reply to the QUERY for long enough that it risks a timeout.  The host
                      00337 ; is under no obligation to respect the OUT_NAK packets.
                      00338 ;
                      00339 ;   1111aaaa 00011110 
                      00340 ;
                      00341 ; A controller MUST never send data except in response to an explicit
                      00342 ; request from the host.  Controllers MUST immediately cease sending
MPASM 5.66              ../QUIZSHOW_MAIN.ASM   3-1-2017  12:21:15         PAGE 14


LOC  OBJECT CODE     LINE SOURCE TEXT
  VALUE

                      00343 ; data upon receiving any bytes on the network (this indicates that
                      00344 ; the host is no longer waiting for a reply but has moved on to something
                      00345 ; else or is querying another device now).  No further data may be sent
                      00346 ; until again explicitly asked for.
                      00347 ;
                      00348 ;
                      00349 ;                     _______________________________________________________
                      00350 ; Channel ID:        |      |      |                                         |
                      00351 ;                    |  0   | ON   |               Channel ID                |
                      00352 ;                    |______|______|______|______|______|______|______|______|
                      00353 ; The ON bit <6> determines whether the channel is being turned on (1) or 
                      00354 ; off (0) for the "Set/clear single channel" command.  it is ignored when
                      00355 ; setting the channel to a specific dimmer value.
                      00356 ;
                      00357 ;=============================================================================
                      00358 ; HARDWARE DESCRIPTION
                      00359 ;-----------------------------------------------------------------------------
                      00360 ;
                      00361 ; The controllers use the PIC18F4685 microcontroller, and have identical
                      00362 ; circuit boards, although the assignment of I/O pins is very different
                      00363 ; between them.
                      00364 ;
                      00365 ;  PIC18F4685 Microcontroller I/O pin assignments:
                      00366 ;
                      00367 ; QSRC    QSCC           ________   _________         QSCC    QSRC 
                      00368 ; BOARD:  BOARD:        |o       \_/         |        BOARD:  BOARD:
                      00369 ; /RESET  /RESET -->  1 | /MCLR RE3  PGD RB7 | 40 --> /AL     /X1R   
                      00370 ; /L1     /L     -->  2 | RA0        PGC RB6 | 39 --> /BL     /X1G    
                      00371 ; /X2     /X     -->  3 | RA1        PGM RB5 | 38 --> /CL     /X1B   
                      00372 ; /L0     /D     -->  4 | RA2            RB4 | 37 --> /DL     /L1R  
                      00373 ; /X0     /C     -->  5 | RA3            RB3 | 36 --> /FR     /X2R  
                      00374 ; /X2     /B     -->  6 | RA4       INT2 RB2 | 35 --> /FG     /X2G   
                      00375 ; /L2     /A     -->  7 | RA5       INT1 RB1 | 34 --> /FB     /X2B    
                      00376 ; /L2R    /LY    <--  8 | RE0       INT0 RB0 | 33 --> /FW     /X4R     
                      00377 ; /L3R    /LG    <--  9 | RE1            VDD | 32 --- +5V       
                      00378 ; /L0R    /LR    <-- 10 | RE2            VSS | 31 --- GND      
                      00379 ;            +5V --- 11 | VDD            RD7 | 30 --> D7      /X3R  
                      00380 ;            GND --- 12 | VSS            RD6 | 29 --> D6      /X3G  
                      00381 ;           xtal --- 13 | OSC            RD5 | 28 --> D5      /X3B  
                      00382 ;             +----- 14 | OSC            RD4 | 27 --- D4 ->   /X4 <-
                      00383 ; /X0B    /XB    <-- 15 | RC0         RX RC7 | 26 <-- Serial RxD
                      00384 ; /X0G    /XG    <-- 16 | RC1         TX RC6 | 25 --> Serial TxD
                      00385 ; /X0R    /XR    <-- 17 | RC2            RC5 | 24 --- PS0 ->  /L4 <-
                      00386 ; T/R     T/R    <-- 18 | RC3            RC4 | 23 --- PS1 ->  /X3 <- 
                      00387 ; /L3 ->  D0 <-  --- 19 | RD0            RD3 | 22 --> D3      /X4G  
                      00388 ; /X4B    D1     <-- 20 | RD1            RD2 | 21 --> D2      /L4R  
                      00389 ;                       |____________________|
                      00390 ;
                      00391 ;
                      00392 ; ========================================================================
                      00393 ; PROGRAM MEMORY MAP
                      00394 ; ______________________________________________________________________________
                      00395 ;
                      00396 ; 14K50 4685    _________________ ___
                      00397 ; $00000 $00000 | RESET Vector    | V_RST
                      00398 ; $00007 $00007 |_________________|___
                      00399 ; $00008 $00008 | High Int Vector | V_INT_H
                      00400 ; $00017 $00017 |_________________|___
                      00401 ; $00018 $00018 | Low Int Vector  | V_INT_L
                      00402 ; $0001F $0001F |_________________|
                      00403 ; $00020 $00020 |/////////////////|
                      00404 ; $000FF $000FF |/////////////////|___
                      00405 ; $00100 $00100 | Boot code       | _BOOT
                      00406 ;               |.................|___
                      00407 ;               | Interrupt hand- | _INT
                      00408 ;               |  lers           |      
                      00409 ;               |/////////////////|
                      00410 ; $007FF $007FF |/////////////////|___
                      00411 ; $00800 $00800 | Mainline code   | _MAIN
                      00412 ;               |.................|___
                      00413 ;           ??? | Device init     | LUMOS_CODE_INIT
                      00414 ;               |_________________|___
                      00415 ;           ??? | Serial I/O      | _SIO_CODE
                      00416 ;               | Module          |
                      00417 ;               |_________________|___
                      00418 ;               |/////////////////|
                      00419 ;               |/////////////////|
                      00420 ;               |/////////////////|
                      00421 ;               |/////////////////|
                      00422 ;               |/////////////////|___
MPASM 5.66              ../QUIZSHOW_MAIN.ASM   3-1-2017  12:21:15         PAGE 15


LOC  OBJECT CODE     LINE SOURCE TEXT
  VALUE

                      00423 ; $02E00 $14000 | EEPROM defaults | _MAIN_EEPROM_TBL
                      00424 ; $02EFF $14FFF |_________________|___
                      00425 ; $02F00 $15000 |Serial I/O Mod   | _SIO_LOOKUP_TABLES
                      00426 ;               |lookup tables    |
                      00427 ;        $150FF |_________________|___
                      00428 ;        $15100 |                 |
                      00429 ;               |                 |
                      00430 ; $02FEF $16FEF |_________________|___
                      00431 ; $02FF0 $16FF0 |System Mfg Data  | _SYSTEM_MFG_DATA
                      00432 ; $02FFF $16FFF |_________________|___
                      00433 ; $03000 $17000 |                 | 
                      00434 ; $03FFF $17FFF |_________________|___
                      00435 ;               |/////////////////|
                      00436 ;               |/////////////////|
                      00437 ;$1FFFFF$1FFFFF |/////////////////|___
                      00438 ;
                      00439 ;
                      00440 ; ========================================================================
                      00441 ; DATA MEMORY MAP (4685)
                      00442 ;
                      00443 ;       _________________ ___ ___ ___ ___ ___ ___ ___ ___
                      00444 ; $000 | global state,   | _ADATA            BANK 0
                      00445 ; $05F | ISR data, etc.  |                (ACCESS AREA)
                      00446 ;      |.................|...............................
                      00447 ; $060 |                 |                   
                      00448 ;      |_________________|___ ___ ___ ___ ___ ___ ___ ___
                      00449 ; $100 | Serial I/O TxD  | _SIO_TXBUF_DATA   BANK 1
                      00450 ;      | ring buffer     |
                      00451 ;      |_________________|___ ___ ___ ___ ___ ___ ___ ___
                      00452 ; $200 | Serial I/O RxD  | _SIO_RXBUF_DATA   BANK 2
                      00453 ;      | ring buffer     |
                      00454 ;      |_________________|___ ___ ___ ___ ___ ___ ___ ___
                      00455 ; $300 | Serial I/O mod  | _SIO_VAR_DATA     BANK 3
                      00456 ;      | variable space  |
                      00457 ;      |_________________|___ ___ ___ ___ ___ ___ ___ ___
                      00458 ; $400 | SSR state data  | _SSR_DATA         BANK 4
                      00459 ;      |                 |
                      00460 ;      |_________________|___ ___ ___ ___ ___ ___ ___ ___
                      00461 ; $500 | Parser buffer   | _MAINDATA         BANK 5
                      00462 ;      |.................|
                      00463 ; $5?? |                 |
                      00464 ;      |_________________|___ ___ ___ ___ ___ ___ ___ ___
                      00465 ; $600 | Stored sequences| _SEQ_DATA         BANK 6
                      00466 ;      | (1792 bytes)    |
                      00467 ;              .
                      00468 ;              .                 
                      00469 ;              .                
                      00470 ;      |                 |
                      00471 ;      |                 |
                      00472 ;      |_________________|___ ___ ___ ___ ___ ___ ___ ___
                      00473 ; $C00 | Quizshow Data   | _QUIZSHOW_DATA    BANK C
                      00474 ;      |                 |
                      00475 ;      |_________________|___ ___ ___ ___ ___ ___ ___ ___
                      00476 ; $D00 |                 |                   BANK D
                      00477 ;      | CAN special     |
                      00478 ;      | function        |___ ___ ___ ___ ___ ___ ___ ___
                      00479 ; $E00 | registers       |                   BANK E
                      00480 ;      | (not used for   |
                      00481 ;      | Lumos)          |___ ___ ___ ___ ___ ___ ___ ___
                      00482 ; $F00 |                 |                   BANK F
                      00483 ;      |                 |
                      00484 ; $F5F |.................|...............................
                      00485 ; $F60 | Special Function|                (ACCESS AREA)
                      00486 ;      | (device) regis- |
                      00487 ;      | ters            |
                      00488 ; $FFF |_________________|___ ___ ___ ___ ___ ___ ___ ___
                      00489 ;
                      00490 ; ========================================================================
                      00491 ; EEPROM MEMORY
                      00492 ;
                      00493 ;
                      00494 ;       ______________            ______________ 
                      00495 ; $000 |_0xFF_________|     $010 | Saved        |
                      00496 ; $001 |_Baud_Rate____|     $011 | Sequence     |
                      00497 ; $002 |_Device_ID____|     $012 | Storage      |
                      00498 ; $003 | Phase     MSB|     $013 |       |      |
                      00499 ; $004 |_Offset____LSB|     $014 |       |      |
                      00500 ; $005 | DMX Slot  MSB|     $015 |       |      |
                      00501 ; $006 |___________LSB|       .          .
                      00502 ; $007 |_Sensor_cfg___|       .          .
MPASM 5.66              ../QUIZSHOW_MAIN.ASM   3-1-2017  12:21:15         PAGE 16


LOC  OBJECT CODE     LINE SOURCE TEXT
  VALUE

                      00503 ; $008 |______________|       .          .
                      00504 ; $009 |______________|     $3F9 |       |      |
                      00505 ; $00A |______________|     $3FA |       |      |
                      00506 ; $00B |______________|     $3FB | (1008 |      |
                      00507 ; $00C |______________|     $3FC | bytes)|      |
                      00508 ; $00D |______________|     $3FD |       |      |
                      00509 ; $00E |______________|     $3FE |       |      |
                      00510 ; $00F |_0x42_________|     $3FF |_______V______|
                      00511 ;
                      00512 ;
                      00513 
                      00514 ; ========================================================================
                      00515 ; DEVICES USED
                      00516 ;
                      00517 ; TMR0 L  120 Hz interrupt source (for boards without zero-crossing detector)
                      00518 ; TMR1
                      00519 ; TMR2 L  Dimmer slice timer (1/260 of a 120 Hz half-cycle)
                      00520 ; TMR3 L  Break detector for DMX reception
                      00521 ; UART L  SIO module
                      00522 ;=============================================================================
                      00523 ;
                      00524 ;------------------------------------------------------------------------------
                      00525 ; Significant Registers (ACCESS BANK)
                      00526 ;------------------------------------------------------------------------------
                      00527 ;
                      00528 ;                     ___7______6______5______4______3______2______1______0__
                      00529 ; ISR_TMPL_STATUS    |                                                       |
                      00530 ;                    | Temporary storage for STATUS register in low-pri ISR  |
                      00531 ;                    |______|______|______|______|______|______|______|______|
                      00532 ; ISR_TMPL_BSR       |                                                       |
                      00533 ;                    | Temporary storage for BSR register in low-priority ISR|
                      00534 ;                    |______|______|______|______|______|______|______|______|
                      00535 ; ISR_TMPL_WREG      |                                                       |
                      00536 ;                    | Temporary storage for W register in low-priority ISR  |
                      00537 ;                    |______|______|______|______|______|______|______|______|
                      00538 ; MY_ADDRESS         |                           |                           |
                      00539 ;                    |                           |       Unit address        |
                      00540 ;                    |______|______|______|______|______|______|______|______|
                      00541 ; PHASE_OFFSETH      |                                                       |
                      00542 ;                    |               Phase offset value (MSB)                |
                      00543 ;                    |______|______|______|______|______|______|______|______|
                      00544 ; PHASE_OFFSETL      |                                                       |
                      00545 ;                    |               Phase offset value (LSB)                |
                      00546 ;                    |______|______|______|______|______|______|______|______|
                      00547 ; SSR_STATE          |      |      |SLICE |PRIV_ |SLEEP |DRAIN |PRE_  |TEST_ |
                      00548 ;                    |INCYC |PRECYC| _UPD | MODE |_MODE |_TR   |PRIV  |MODE  |
                      00549 ;                    |______|______|______|______|______|______|______|______|
                      00550 ; SSR_STATE2         |TEST_ |TEST_ |TEST_ |ALL_  |PRIV_ |INHIBI|MSB_  |LITER |
                      00551 ;                    |PAUSE |UPD   |BUTTON|OFF   |FORBID|T_OUTP|ESC   |AL_ESC|
                      00552 ;                    |______|______|______|______|______|UT____|______|______|
                      00553 ; DMX_SLOTH          |DMX_EN|DMX_  |DMX_  |                           |DMX Sl|
                      00554 ;                    |      |SPEED |FRAME |                           |ot MSB|
                      00555 ;                    |______|______|______|______|______|______|______|______|
                      00556 ; DMX_SLOTL          |                                                       |
                      00557 ;                    |       Starting DMX Slot Number - 1 (low 8 bits)       |
                      00558 ;                    |______|______|______|______|______|______|______|______|
                      00559 ; YY_STATE           |                                                       |
                      00560 ;                    |                      Parser State                     |
                      00561 ;                    |______|______|______|______|______|______|______|______|
                      00562 ; YY_COMMAND         |                                                       |
                      00563 ;                    |                      Command Code                     |
                      00564 ;                    |______|______|______|______|______|______|______|______|
                      00565 ; YY_CMD_FLAGS       |                                                       |
                      00566 ;                    |               Command-specific Flag Bits              |
                      00567 ;                    |______|______|______|______|______|______|______|______|
                      00568 ; YY_DATA            |                                                       |
                      00569 ;                    |                      Command Data                     |
                      00570 ;                    |______|______|______|______|______|______|______|______|
                      00571 ; YY_LOOKAHEAD_MAX   |                                                       |
                      00572 ;                    |               Maximum length for look-ahead           |
                      00573 ;                    |______|______|______|______|______|______|______|______|
                      00574 ; YY_LOOK_FOR        |                                                       |
                      00575 ;                    |               Sentinel value to search for            |
                      00576 ;                    |______|______|______|______|______|______|______|______|
                      00577 ; YY_BUF_IDX         |                                                       |
                      00578 ;                    |     Offset in YY_BUFFER where we will write next      |
                      00579 ;                    |______|______|______|______|______|______|______|______|
                      00580 ; YY_NEXT_STATE      |                                                       |
                      00581 ;                    |     State to transition to when YY_LOOK_FOR is found  |
                      00582 ;                    |______|______|______|______|______|______|______|______|
MPASM 5.66              ../QUIZSHOW_MAIN.ASM   3-1-2017  12:21:15         PAGE 17


LOC  OBJECT CODE     LINE SOURCE TEXT
  VALUE

                      00583 ; YY_YY              |                                                       |
                      00584 ;                    |     General-purpose storage for use inside commands   |
                      00585 ;                    |______|______|______|______|______|______|______|______|
                      00586 ; LAST_ERROR         |                                                       |
                      00587 ;                    |  Last error code encountered (cleared when reported)  |
                      00588 ;                    |______|______|______|______|______|______|______|______|
                      00589 ; CUR_PREH           |                                                       |
                      00590 ;                    |         Pre-cycle count-down ticks left (MSB)         |
                      00591 ;                    |______|______|______|______|______|______|______|______|
                      00592 ; CUR_PRE            |                                                       |
                      00593 ;                    |         Pre-cycle count-down ticks left (LSB)         |
                      00594 ;                    |______|______|______|______|______|______|______|______|
                      00595 ; CUR_SLICE          |                                                       |
                      00596 ;                    |      Slice number within active portion of cycle      |
                      00597 ;                    |______|______|______|______|______|______|______|______|
                      00598 ; TARGET_SSR         |NOT_MY|INVALI|                                         |
                      00599 ;                    | _SSR |D_SSR |    SSR number for current command       |
                      00600 ;                    |______|______|______|______|______|______|______|______|
                      00601 ; OPTION_DEBOUNCE    |                                                       |
                      00602 ;                    |      Counter to debounce OPTION button presses        |
                      00603 ;                    |______|______|______|______|______|______|______|______|
                      00604 ; OPTION_HOLD        |                                                       |
                      00605 ;                    |      Counter for how long OPTION button is held       |
                      00606 ;                    |______|______|______|______|______|______|______|______|
                      00607 ; TEST_CYCLE         |                                                       |
                      00608 ;                    |        Count-down of ZC cycles until next step        |
                      00609 ;                    |______|______|______|______|______|______|______|______|
                      00610 ; TEST_SSR           |             |                                         |
                      00611 ;                    |             |  current SSR being tested               |
                      00612 ;                    |______|______|______|______|______|______|______|______|
                      00613 ; AUTO_OFF_CTRH      |                                                       |
                      00614 ;                    |         countdown register until auto-power-off (MSB) |
                      00615 ;                    |______|______|______|______|______|______|______|______|
                      00616 ; AUTO_OFF_CTRL      |                                                       |
                      00617 ;                    |         countdown register until auto-power-off (LSB) |
                      00618 ;                    |______|______|______|______|______|______|______|______|
                      00619 ; I                  |                                                       |
                      00620 ;                    |      General-purpose local counter variable           |
                      00621 ;                    |______|______|______|______|______|______|______|______|
                      00622 ; J                  |                                                       |
                      00623 ;                    |      General-purpose local counter variable           |
                      00624 ;                    |______|______|______|______|______|______|______|______|
                      00625 ; K                  |                                                       |
                      00626 ;                    |      General-purpose local counter variable           |
                      00627 ;                    |______|______|______|______|______|______|______|______|
                      00628 ; KK                 |                                                       |
                      00629 ;                    |      General-purpose local counter variable           |
                      00630 ;                    |______|______|______|______|______|______|______|______|
                      00631 ; TR_I               |                                                       |
                      00632 ;                    |      T/R delay timer delay counter                    |
                      00633 ;                    |______|______|______|______|______|______|______|______|
                      00634 ;
                      00635 ;
                      00636 ;------------------------------------------------------------------------------
                      00637 ; (SSR_DATA_BANK)
                      00638 ;------------------------------------------------------------------------------
                      00639 ;
                      00640 ; *** THE FOLLOWING BLOCKS *MUST* BE THE SAME SIZE AS EACH OTHER ***
                      00641 ;
                      00642 ;                     ___7______6______5______4______3______2______1______0__
                      00643 ; SSR_00_VALUE       |                                                       |
                      00644 ;                    | Brightness value of SSR #00 (00=off, ... FF=fully on) |
                      00645 ;                    |______|______|______|______|______|______|______|______|
                      00646 ;                    |                                                       |
                      00647 ;                    | Brightness value of SSR #01 (00=off, ... FF=fully on) |
                      00648 ;                    |______|______|______|______|______|______|______|______|
                      00649 ;                                                .
                      00650 ;                                                .
                      00651 ;                     ___________________________.___________________________
                      00652 ;                    |                                                       |
                      00653 ;                    | Brightness value of SSR #23 (00=off, ... FF=fully on) |
                      00654 ;                    |______|______|______|______|______|______|______|______|
                      00655 ;                    |                                                       |
                      00656 ;                    | Brightness value of Green   (00=off, ... FF=fully on) |
                      00657 ;                    |______|______|______|______|______|______|______|______|
                      00658 ;                    |                                                       |
                      00659 ;                    | Brightness value of Yellow  (00=off, ... FF=fully on) |
                      00660 ;                    |______|______|______|______|______|______|______|______|
                      00661 ;                    |                                                       |
                      00662 ;                    | Brightness value of Red     (00=off, ... FF=fully on) |
MPASM 5.66              ../QUIZSHOW_MAIN.ASM   3-1-2017  12:21:15         PAGE 18


LOC  OBJECT CODE     LINE SOURCE TEXT
  VALUE

                      00663 ;                    |______|______|______|______|______|______|______|______|
                      00664 ;                    | IF MASTER/STANDALONE:                                 |
                      00665 ;                    | Brightness value of Active  (00=off, ... FF=fully on) |
                      00666 ;                    |______|______|______|______|______|______|______|______|
                      00667 ; SSR_00_FLAGS       | FADE | FADE | FADE_|MAX_OF|      |      |      |      |
                      00668 ;                    | _UP  | _DOWN| CYCLE|F_TIME|      |      |      |      |
                      00669 ;                    |______|______|______|______|______|______|______|______|
                      00670 ;                                                .
                      00671 ;                                                .
                      00672 ;                     ___________________________.___________________________
                      00673 ; SSR_00_STEP        |                                                       |
                      00674 ;                    |          Brightness increment (0..255)                |
                      00675 ;                    |______|______|______|______|______|______|______|______|
                      00676 ;                                                .
                      00677 ;                                                .
                      00678 ;                     ___________________________.___________________________
                      00679 ; SSR_00_SPEED       |                                                       |
                      00680 ;                    |          Cycles between each step (0..255)            |
                      00681 ;                    |______|______|______|______|______|______|______|______|
                      00682 ;                                                .
                      00683 ;                                                .
                      00684 ;                     ___________________________.___________________________
                      00685 ; SSR_00_COUNTER     |                                                       |
                      00686 ;                    |          Cycles until next step (0..255)              |
                      00687 ;                    |______|______|______|______|______|______|______|______|
                      00688 ;                                                .
                      00689 ;                                                .
                      00690 ;                                                .                           
                      00691 ;
  0000                00692         GLOBAL  QSCC_START
  0000                00693         GLOBAL  QSCC_MAIN
  0000                00694         GLOBAL  QSCC_CMD5_START
  0000                00695         GLOBAL  QS_STOP_SCANNER
                      00696 
                      00697 ;------------------------------------------------------------------------------
                      00698 ; QUIZSHOW_DATA BANK
                      00699 ;------------------------------------------------------------------------------
                      00700 ;
                      00701 ;                     ___7______6______5______4______3______2______1______0__
                      00702 ; BTN_X0_TIME_T      |                                                       |
                      00703 ;                    |         Button press time (uS) <31:24>                |
                      00704 ;                    |______|______|______|______|______|______|______|______|
                      00705 ; BTN_X1_TIME_T      |                                                       |
                      00706 ;                    |         Button press time (uS) <31:24>                |
                      00707 ;                    |______|______|______|______|______|______|______|______|
                      00708 ;                                                :
                      00709 ;                     ___________________________:___________________________
                      00710 ; BTN_X0_TIME_U      |                                                       |
                      00711 ;                    |         Button press time (uS) <23:16>                |
                      00712 ;                    |______|______|______|______|______|______|______|______|
                      00713 ;                                                :
                      00714 ;                     ___________________________:___________________________
                      00715 ; BTN_X0_TIME_H      |                                                       |
                      00716 ;                    |         Button press time (uS) <15:8>                 |
                      00717 ;                    |______|______|______|______|______|______|______|______|
                      00718 ;                                                :
                      00719 ;                     ___________________________:___________________________
                      00720 ; BTN_X0_TIME_L      |                                                       |
                      00721 ;                    |         Button press time (uS) <7:0>                  |
                      00722 ;                    |______|______|______|______|______|______|______|______|
                      00723 ;                                                :
                      00724 ;                     ___________________________:___________________________
                      00725 ;
                      00726 ;      .
                      00727 ;      .        Ditto for L0, X1, L1, X2, L2, X3, L3, X4, L4            (QSRC)
                      00728 ;      .        Or... for L0, A, B, C, D                                (QSCC)
                      00729 ;
  00000C00            00730 QUIZSHOW_DATA   EQU     0xC00
                      00731 _QUIZSHOW_DATA  UDATA   QUIZSHOW_DATA
000C00                00732 BTN_X0_TIME_T   RES     N_BUTTONS       ; button press times (bits 31-24)
000C0A                00733 BTN_X0_TIME_U   RES     N_BUTTONS       ; button press times (bits 23-16)
000C14                00734 BTN_X0_TIME_H   RES     N_BUTTONS       ; button press times (bits 15-08)
000C1E                00735 BTN_X0_TIME_L   RES     N_BUTTONS       ; button press times (bits 07-00)
000C28                00736 BTN_X0_FLAGS    RES     N_BUTTONS       ; button flags
000C32                00737 BTN_X0_LOCKTMR  RES     N_BUTTONS       ; number of 1/120 sec remaining in lock
000C3C                00738 BTN_X0_DEB_TMR  RES     N_BUTTONS       ; number of polls to satisfy debounce logic
000C46                00739 QUIZSHOW_LCKTM  RES     1               ; number of 1/120 sec we lock out offenders
                      00740 _QUIZSHOW_CODE  CODE
                      00741 
                      00742 
MPASM 5.66              ../QUIZSHOW_MAIN.ASM   3-1-2017  12:21:15         PAGE 19


LOC  OBJECT CODE     LINE SOURCE TEXT
  VALUE

                      00743 ;
                      00744 ; Clear all button timers and states
                      00745 ;
                      00746 CLEAR_BUTTONS MACRO FULL_RESET
                      00747 CB_IDX  SET     0
                      00748         BANKSEL QUIZSHOW_DATA
                      00749         WHILE   CB_IDX < N_BUTTONS
                      00750          CLRF   BTN_X0_TIME_T+#v(CB_IDX), BANKED
                      00751          CLRF   BTN_X0_TIME_U+#v(CB_IDX), BANKED
                      00752          CLRF   BTN_X0_TIME_H+#v(CB_IDX), BANKED
                      00753          CLRF   BTN_X0_TIME_L+#v(CB_IDX), BANKED
                      00754          IF FULL_RESET
                      00755           CLRF  BTN_X0_FLAGS+#v(CB_IDX), BANKED
                      00756           CLRF  BTN_X0_LOCKTMR+#v(CB_IDX), BANKED
                      00757           CLRF  BTN_X0_DEB_TMR+#v(CB_IDX), BANKED
                      00758          ELSE
                      00759           BCF   BTN_X0_FLAGS+#v(CB_IDX), BTN_FLG_PRESSED, BANKED
                      00760          ENDIF
                      00761 CB_IDX   ++
                      00762         ENDW
                      00763         ENDM
                      00764                 
                      00765 ;
                      00766 ; Startup code (on top of what LUMOS_START does), right before the main loop
                      00767 ; is launched.
                      00768 ;
000000                00769 QSCC_START:
000000 0004           00770         CLRWDT
000002 010C           00771         BANKSEL QUIZSHOW_DATA
000004 6A00           00772         CLRF    QUIZSHOW_FLAGS, ACCESS
000006 0E3C           00773         MOVLW   .60
000008 6F00           00774         MOVWF   QUIZSHOW_LCKTM, BANKED                  ; lockout time is 1/2 second
                      00775         CLEAR_BUTTONS 1
  00000000                M CB_IDX  SET     0
00000A 010C               M         BANKSEL QUIZSHOW_DATA
                          M         WHILE   CB_IDX < N_BUTTONS
00000C 6B00               M          CLRF   BTN_X0_TIME_T+0,          BANKED
00000E 6B00               M          CLRF   BTN_X0_TIME_U+0,          BANKED
000010 6B00               M          CLRF   BTN_X0_TIME_H+0,          BANKED
000012 6B00               M          CLRF   BTN_X0_TIME_L+0,          BANKED
                          M          IF 1
000014 6B00               M           CLRF  BTN_X0_FLAGS+0,          BANKED
000016 6B00               M           CLRF  BTN_X0_LOCKTMR+0,          BANKED
000018 6B00               M           CLRF  BTN_X0_DEB_TMR+0,          BANKED
                          M          ELSE
                          M           BCF   BTN_X0_FLAGS+0,          BTN_FLG_PRESSED, BANKED
                          M          ENDIF
  00000001                M CB_IDX   ++
00001A 6B00               M          CLRF   BTN_X0_TIME_T+1,          BANKED
00001C 6B00               M          CLRF   BTN_X0_TIME_U+1,          BANKED
00001E 6B00               M          CLRF   BTN_X0_TIME_H+1,          BANKED
000020 6B00               M          CLRF   BTN_X0_TIME_L+1,          BANKED
                          M          IF 1
000022 6B00               M           CLRF  BTN_X0_FLAGS+1,          BANKED
000024 6B00               M           CLRF  BTN_X0_LOCKTMR+1,          BANKED
000026 6B00               M           CLRF  BTN_X0_DEB_TMR+1,          BANKED
                          M          ELSE
                          M           BCF   BTN_X0_FLAGS+1,          BTN_FLG_PRESSED, BANKED
                          M          ENDIF
  00000002                M CB_IDX   ++
000028 6B00               M          CLRF   BTN_X0_TIME_T+2,          BANKED
00002A 6B00               M          CLRF   BTN_X0_TIME_U+2,          BANKED
00002C 6B00               M          CLRF   BTN_X0_TIME_H+2,          BANKED
00002E 6B00               M          CLRF   BTN_X0_TIME_L+2,          BANKED
                          M          IF 1
000030 6B00               M           CLRF  BTN_X0_FLAGS+2,          BANKED
000032 6B00               M           CLRF  BTN_X0_LOCKTMR+2,          BANKED
000034 6B00               M           CLRF  BTN_X0_DEB_TMR+2,          BANKED
                          M          ELSE
                          M           BCF   BTN_X0_FLAGS+2,          BTN_FLG_PRESSED, BANKED
                          M          ENDIF
  00000003                M CB_IDX   ++
000036 6B00               M          CLRF   BTN_X0_TIME_T+3,          BANKED
000038 6B00               M          CLRF   BTN_X0_TIME_U+3,          BANKED
00003A 6B00               M          CLRF   BTN_X0_TIME_H+3,          BANKED
00003C 6B00               M          CLRF   BTN_X0_TIME_L+3,          BANKED
                          M          IF 1
00003E 6B00               M           CLRF  BTN_X0_FLAGS+3,          BANKED
000040 6B00               M           CLRF  BTN_X0_LOCKTMR+3,          BANKED
000042 6B00               M           CLRF  BTN_X0_DEB_TMR+3,          BANKED
MPASM 5.66              ../QUIZSHOW_MAIN.ASM   3-1-2017  12:21:15         PAGE 20


LOC  OBJECT CODE     LINE SOURCE TEXT
  VALUE

                          M          ELSE
                          M           BCF   BTN_X0_FLAGS+3,          BTN_FLG_PRESSED, BANKED
                          M          ENDIF
  00000004                M CB_IDX   ++
000044 6B00               M          CLRF   BTN_X0_TIME_T+4,          BANKED
000046 6B00               M          CLRF   BTN_X0_TIME_U+4,          BANKED
000048 6B00               M          CLRF   BTN_X0_TIME_H+4,          BANKED
00004A 6B00               M          CLRF   BTN_X0_TIME_L+4,          BANKED
                          M          IF 1
00004C 6B00               M           CLRF  BTN_X0_FLAGS+4,          BANKED
00004E 6B00               M           CLRF  BTN_X0_LOCKTMR+4,          BANKED
000050 6B00               M           CLRF  BTN_X0_DEB_TMR+4,          BANKED
                          M          ELSE
                          M           BCF   BTN_X0_FLAGS+4,          BTN_FLG_PRESSED, BANKED
                          M          ENDIF
  00000005                M CB_IDX   ++
000052 6B00               M          CLRF   BTN_X0_TIME_T+5,          BANKED
000054 6B00               M          CLRF   BTN_X0_TIME_U+5,          BANKED
000056 6B00               M          CLRF   BTN_X0_TIME_H+5,          BANKED
000058 6B00               M          CLRF   BTN_X0_TIME_L+5,          BANKED
                          M          IF 1
00005A 6B00               M           CLRF  BTN_X0_FLAGS+5,          BANKED
00005C 6B00               M           CLRF  BTN_X0_LOCKTMR+5,          BANKED
00005E 6B00               M           CLRF  BTN_X0_DEB_TMR+5,          BANKED
                          M          ELSE
                          M           BCF   BTN_X0_FLAGS+5,          BTN_FLG_PRESSED, BANKED
                          M          ENDIF
  00000006                M CB_IDX   ++
000060 6B00               M          CLRF   BTN_X0_TIME_T+6,          BANKED
000062 6B00               M          CLRF   BTN_X0_TIME_U+6,          BANKED
000064 6B00               M          CLRF   BTN_X0_TIME_H+6,          BANKED
000066 6B00               M          CLRF   BTN_X0_TIME_L+6,          BANKED
                          M          IF 1
000068 6B00               M           CLRF  BTN_X0_FLAGS+6,          BANKED
00006A 6B00               M           CLRF  BTN_X0_LOCKTMR+6,          BANKED
00006C 6B00               M           CLRF  BTN_X0_DEB_TMR+6,          BANKED
                          M          ELSE
                          M           BCF   BTN_X0_FLAGS+6,          BTN_FLG_PRESSED, BANKED
                          M          ENDIF
  00000007                M CB_IDX   ++
00006E 6B00               M          CLRF   BTN_X0_TIME_T+7,          BANKED
000070 6B00               M          CLRF   BTN_X0_TIME_U+7,          BANKED
000072 6B00               M          CLRF   BTN_X0_TIME_H+7,          BANKED
000074 6B00               M          CLRF   BTN_X0_TIME_L+7,          BANKED
                          M          IF 1
000076 6B00               M           CLRF  BTN_X0_FLAGS+7,          BANKED
000078 6B00               M           CLRF  BTN_X0_LOCKTMR+7,          BANKED
00007A 6B00               M           CLRF  BTN_X0_DEB_TMR+7,          BANKED
                          M          ELSE
                          M           BCF   BTN_X0_FLAGS+7,          BTN_FLG_PRESSED, BANKED
                          M          ENDIF
  00000008                M CB_IDX   ++
00007C 6B00               M          CLRF   BTN_X0_TIME_T+8,          BANKED
00007E 6B00               M          CLRF   BTN_X0_TIME_U+8,          BANKED
000080 6B00               M          CLRF   BTN_X0_TIME_H+8,          BANKED
000082 6B00               M          CLRF   BTN_X0_TIME_L+8,          BANKED
                          M          IF 1
000084 6B00               M           CLRF  BTN_X0_FLAGS+8,          BANKED
000086 6B00               M           CLRF  BTN_X0_LOCKTMR+8,          BANKED
000088 6B00               M           CLRF  BTN_X0_DEB_TMR+8,          BANKED
                          M          ELSE
                          M           BCF   BTN_X0_FLAGS+8,          BTN_FLG_PRESSED, BANKED
                          M          ENDIF
  00000009                M CB_IDX   ++
00008A 6B00               M          CLRF   BTN_X0_TIME_T+9,          BANKED
00008C 6B00               M          CLRF   BTN_X0_TIME_U+9,          BANKED
00008E 6B00               M          CLRF   BTN_X0_TIME_H+9,          BANKED
000090 6B00               M          CLRF   BTN_X0_TIME_L+9,          BANKED
                          M          IF 1
000092 6B00               M           CLRF  BTN_X0_FLAGS+9,          BANKED
000094 6B00               M           CLRF  BTN_X0_LOCKTMR+9,          BANKED
000096 6B00               M           CLRF  BTN_X0_DEB_TMR+9,          BANKED
                          M          ELSE
                          M           BCF   BTN_X0_FLAGS+9,          BTN_FLG_PRESSED, BANKED
                          M          ENDIF
  0000000A                M CB_IDX   ++
                          M         ENDW
000098 0004           00776         CLRWDT
                      00777         ;
                      00778         ; Special Modes
MPASM 5.66              ../QUIZSHOW_MAIN.ASM   3-1-2017  12:21:15         PAGE 21


LOC  OBJECT CODE     LINE SOURCE TEXT
  VALUE

                      00779         ; If the unit powers up with A+C (X0+L2) held down, it goes into config mode.
                      00780         ; XXX If it powers up with L0+X1 held down, it goes into standalone mode. (future)
                      00781         ; 
00009A 0E3F           00782         MOVLW   QS_SENS_MASK
00009C 1480           00783         ANDWF   QS_SENS_PORT, W, ACCESS
00009E 0A28           00784         XORLW   QS_SENS_CONF
0000A0 E1??           00785         BNZ     QSCC_SENS_END
                      00786 
0000A2 8800           00787         BSF     SSR_STATE, PRIV_MODE, ACCESS
                      00788         SET_SSR_RAPID_FADE CHAN_HB      ; CHANGES BANK!
                          M          SET_SSR_PATTERN CHAN_HB, 0, 4, 1, BIT_FADE_UP|BIT_FADE_CYCLE
0000A4 0104               M         BANKSEL SSR_DATA_BANK
0000A6 0E00               M          MOVLW  0
0000A8 6F00               M          MOVWF  SSR_00_VALUE+CHAN_HB, BANKED
0000AA 0E04               M          MOVLW  4
0000AC 6F00               M          MOVWF  SSR_00_STEP+CHAN_HB, BANKED
0000AE 0E01               M          MOVLW  1
0000B0 6F00               M          MOVWF  SSR_00_SPEED+CHAN_HB, BANKED
0000B2 6F00               M          MOVWF  SSR_00_COUNTER+CHAN_HB, BANKED
0000B4 0EA0               M          MOVLW  BIT_FADE_UP|BIT_FADE_CYCLE
0000B6 6F00               M          MOVWF  SSR_00_FLAGS+CHAN_HB, BANKED
                      00789 
0000B8                00790 QSCC_SENS_END:
                      00791         SET_SSR_NORMAL_MODE CHAN_HB     ; CHANGES BANK!
                          M          SET_SSR_PATTERN CHAN_HB, 0, 1, 3, BIT_FADE_UP|BIT_FADE_CYCLE
0000B8 0104               M         BANKSEL SSR_DATA_BANK
0000BA 0E00               M          MOVLW  0
0000BC 6F00               M          MOVWF  SSR_00_VALUE+CHAN_HB, BANKED
0000BE 0E01               M          MOVLW  1
0000C0 6F00               M          MOVWF  SSR_00_STEP+CHAN_HB, BANKED
0000C2 0E03               M          MOVLW  3
0000C4 6F00               M          MOVWF  SSR_00_SPEED+CHAN_HB, BANKED
0000C6 6F00               M          MOVWF  SSR_00_COUNTER+CHAN_HB, BANKED
0000C8 0EA0               M          MOVLW  BIT_FADE_UP|BIT_FADE_CYCLE
0000CA 6F00               M          MOVWF  SSR_00_FLAGS+CHAN_HB, BANKED
0000CC 0012           00792         RETURN
                      00793 ;
                      00794 ; Main loop code (in addition to Lumos' main loop code)
                      00795 ;
  0000                00796         EXTERN  SSR_00_VALUE
  0000                00797         EXTERN  SSR_00_FLAGS
  0000                00798         EXTERN  SSR_00_STEP
  0000                00799         EXTERN  SSR_00_SPEED
  0000                00800         EXTERN  SSR_00_COUNTER
                      00801 
0000CE                00802 QSCC_MAIN:
0000CE 0004           00803         CLRWDT
                      00804 ;
                      00805 ;
                      00806 ; SCAN_DEBOUNCE <BTN_IDX>, <PORT>, <BIT>, <LT>, <N>, <LCK>
                      00807 ;       Updates the state of the specified button.
                      00808 ;       Uses the button's debounce counter to buffer transition noise.
                      00809 ;       when the counter fills or drains completely, the ACTIVE status
                      00810 ;       bit flips to note the official real-time state of the button.
                      00811 ;       This triggers local action on LOCKED status and registering
                      00812 ;       button presses while scanning.  Controls local lights only
                      00813 ;       to the extent mandated for these actions.
                      00814 ;
  00000000            00815 SCN_DBN SET     0
                      00816 SCAN_DEBOUNCE MACRO BTN_IDX, BTN_PORT, BTN_BIT, LT, LTN, LCK
                      00817         BANKSEL QUIZSHOW_DATA
                      00818         CLRWDT
                      00819         ;
                      00820         ; Sense button state: 
                      00821         ;  0=pressed
                      00822         ;  1=released
                      00823         ;
                      00824         BTFSS   #v(BTN_PORT), BTN_BIT, ACCESS
                      00825         BRA     SCN_DB_DOWN_#v(SCN_DBN) ; pressed? branch
                      00826         ;
                      00827         ; button senses as "up". drain debounce counter if possible
                      00828         ;
                      00829         TSTFSZ  BTN_X0_DEB_TMR+#v(BTN_IDX), BANKED
                      00830         BRA     SCN_DB_DRAIN_#v(SCN_DBN)
                      00831         ;
                      00832         ; The button is officially "up".  If this is news, respond
                      00833         ; to this change now.  All we need to do is note the status
                      00834         ; change. Everything else happens later when the code notices
                      00835         ; this flag state.
                      00836         ;
MPASM 5.66              ../QUIZSHOW_MAIN.ASM   3-1-2017  12:21:15         PAGE 22


LOC  OBJECT CODE     LINE SOURCE TEXT
  VALUE

                      00837         BCF     BTN_X0_FLAGS+#v(BTN_IDX), BTN_FLG_ACTIVE, BANKED
                      00838         BRA     SCN_DB_DONE_#v(SCN_DBN)
                      00839 
                      00840 SCN_DB_DRAIN_#v(SCN_DBN):
                      00841         ;
                      00842         ; Drain the button debounce counter
                      00843         ;
                      00844         BANKSEL QUIZSHOW_DATA
                      00845         DECF    BTN_X0_DEB_TMR+#v(BTN_IDX), F, BANKED
                      00846         BRA     SCN_DB_DONE_#v(SCN_DBN)
                      00847 
                      00848 SCN_DB_RST_LCK_#v(SCN_DBN):
                      00849         ;
                      00850         ; The button needs to be locked out!
                      00851         ; We found them pushing the button when they weren't supposed to.
                      00852         ;
                      00853         BANKSEL QUIZSHOW_DATA
                      00854         BSF     BTN_X0_FLAGS+#v(BTN_IDX), BTN_FLG_LOCKED, BANKED
                      00855         MOVFF   QUIZSHOW_LCKTM, BTN_X0_LOCKTMR+#v(BTN_IDX)
                      00856         LOCAL_LIGHT_INDICATOR BTN_IDX, LT, LTN, LCK
                      00857         BRA     SCN_DB_DONE_#v(SCN_DBN)
                      00858 
                      00859 SCN_DB_DOWN_#v(SCN_DBN):
                      00860         ;
                      00861         ; button senses as "down". fill debounce counter if possible
                      00862         ;
                      00863         BANKSEL QUIZSHOW_DATA
                      00864         INCFSZ  BTN_X0_DEB_TMR+#v(BTN_IDX), F, BANKED
                      00865         BRA     SCN_DB_DONE_#v(SCN_DBN)
                      00866         ;
                      00867         ; counter was full (since we overflowed it to 0 again). so
                      00868         ; the button is officially "down".  Put the counter back
                      00869         ; to 255 and proceed with what it means for the button to be
                      00870         ; officially down.
                      00871         ;
                      00872         SETF    BTN_X0_DEB_TMR+#v(BTN_IDX), BANKED
                      00873         BTFSC   BTN_X0_FLAGS+#v(BTN_IDX), BTN_FLG_LOCKED, BANKED        ; is it locked?
                      00874         BRA     SCN_DB_RST_LCK_#v(SCN_DBN)                      ; stay locked longer
                      00875         BTFSC   BTN_X0_FLAGS+#v(BTN_IDX), BTN_FLG_ACTIVE, BANKED        ; if we already saw the button p
                            ress
                      00876         BRA     SCN_DB_DONE_#v(SCN_DBN)                         ;   then we don't need to do anything mo
                            re
                      00877         ;
                      00878         ; We didn't know the button was down yet. Let's see what
                      00879         ; that changes...
                      00880         ;
                      00881         BSF     BTN_X0_FLAGS+#v(BTN_IDX), BTN_FLG_ACTIVE, BANKED        ; mark as "down"
                      00882         BTFSC   BTN_X0_FLAGS+#v(BTN_IDX), BTN_FLG_MASKED, BANKED        ; is it masked?
                      00883         BRA     SCN_DB_DONE_#v(SCN_DBN)                         ; then ignore it
                      00884         BTFSC   BTN_X0_FLAGS+#v(BTN_IDX), BTN_FLG_PRESSED, BANKED       ; already noted?
                      00885         BRA     SCN_DB_DONE_#v(SCN_DBN)                         ; then we're already done
                      00886         BTFSS   QUIZSHOW_FLAGS, QS_FLAG_SCANNING, ACCESS        ; legal to press?
                      00887         BRA     SCN_DB_RST_LCK_#v(SCN_DBN)                      ; if not, lock out!
                      00888         ;
                      00889         ; The button was pressed legally and this is the first time we
                      00890         ; noticed it. Record it as the official press for this button.
                      00891         ;
                      00892         BSF     BTN_X0_FLAGS+#v(BTN_IDX), BTN_FLG_PRESSED, BANKED
                      00893         BCF     INTCON, 7, ACCESS                               ; disable interrupts
                      00894         BCF     INTCON, 6, ACCESS                               ; disable interrupts
                      00895         MOVFF   QS_BTN_TMR_U, BTN_X0_TIME_U+#v(BTN_IDX)
                      00896         MOVFF   QS_BTN_TMR_T, BTN_X0_TIME_T+#v(BTN_IDX)
                      00897         MOVFF   TMR1L, BTN_X0_TIME_L+#v(BTN_IDX)
                      00898         MOVFF   TMR1H, BTN_X0_TIME_H+#v(BTN_IDX)
                      00899         BSF     INTCON, 7, ACCESS                               ; enable interrupts
                      00900         BSF     INTCON, 6, ACCESS                               ; enable interrupts
                      00901         LOCAL_LIGHT_INDICATOR BTN_IDX, LT, LTN, LCK
                      00902 
                      00903 SCN_DB_DONE_#v(SCN_DBN):
                      00904         ;
                      00905         ; We're done with the button debouncing operations.
                      00906         ;
                      00907         ; If we're processing the 120Hz cleanup operations, do them now
                      00908         ; for this button.
                      00909         ;
                      00910         BTFSS   QUIZSHOW_FLAGS, QS_FLAG_DOING120, ACCESS
                      00911         BRA     SCN_DB_END_#v(SCN_DBN)
                      00912         ;
                      00913         ; If the button is locked out, decrement its timer. If it reaches
                      00914         ; zero, we can release the lock now.
MPASM 5.66              ../QUIZSHOW_MAIN.ASM   3-1-2017  12:21:15         PAGE 23


LOC  OBJECT CODE     LINE SOURCE TEXT
  VALUE

                      00915         ;
                      00916         BANKSEL QUIZSHOW_DATA
                      00917         BTFSC   BTN_X0_FLAGS+#v(BTN_IDX), BTN_FLG_LOCKED, BANKED
                      00918         DECFSZ  BTN_X0_LOCKTMR+#v(BTN_IDX), F, BANKED
                      00919         BRA     SCN_DB_END_#v(SCN_DBN)
                      00920         BCF     BTN_X0_FLAGS+#v(BTN_IDX), BTN_FLG_LOCKED, BANKED        ; release the lock
                      00921         BCF     BTN_X0_FLAGS+#v(BTN_IDX), BTN_FLG_LCK_ACK, BANKED
                      00922         LOCAL_LIGHT_INDICATOR BTN_IDX, LT, LTN, LCK
                      00923 
                      00924 SCN_DB_END_#v(SCN_DBN):
                      00925 SCN_DBN ++
                      00926         ENDM
                      00927 
                      00928 ;
                      00929 ; LOCAL_LIGHT_INDICATOR <button index>, <light index>, <lights>, <lock light>
                      00930 ;       Turns on lights to indicate button state that we manage locally here
                      00931 ;       on the console (as opposed to what the external host does)
                      00932 ;       
                      00933 ;       When the scanner starts, enabled buttons are illuminated white, disabled are off.
                      00934 ;       Anytime a button is locked, it is illuminated in flashing red.
                      00935 ; 
                      00936 ;
  00000000            00937 LLIM_N  SET     0
                      00938 LOCAL_LIGHT_INDICATOR MACRO BTN_IDX, LT, LTN, LCK
                      00939         BANKSEL QUIZSHOW_DATA
                      00940         BTFSS   BTN_X0_FLAGS+#v(BTN_IDX), BTN_FLG_LOCKED, BANKED
                      00941         BRA     LLIM_NOT_LOCKED_#v(LLIM_N)
                      00942         BTFSC   BTN_X0_FLAGS+#v(BTN_IDX), BTN_FLG_LCK_ACK, BANKED
                      00943         BRA     LLIM_NOT_LOCKED_#v(LLIM_N)
                      00944         ;
                      00945         ; light up for locked mode for the first time
                      00946         ;
                      00947         BSF     BTN_X0_FLAGS+#v(BTN_IDX), BTN_FLG_LCK_ACK, BANKED       ; don't do it again
                      00948 LLIM_LTN SET    LTN
                      00949         WHILE LLIM_LTN > 0
                      00950 LLIM_LTN --
                      00951          SET_SSR_OFF #v(LT+LLIM_LTN)
                      00952         ENDW
                      00953         SET_SSR_RAPID_FADE LCK
                      00954         BRA     LLIM_END_#v(LLIM_N)
                      00955 
                      00956 LLIM_NOT_LOCKED_#v(LLIM_N):
                      00957         BANKSEL QUIZSHOW_DATA
                      00958         BTFSC   BTN_X0_FLAGS+#v(BTN_IDX), BTN_FLG_MASKED, BANKED
                      00959         BRA     LLIM_OFF_#v(LLIM_N)
                      00960         BTFSC   BTN_X0_FLAGS+#v(BTN_IDX), BTN_FLG_PRESSED, BANKED
                      00961         BRA     LLIM_OFF_#v(LLIM_N)
                      00962         BTFSS   QUIZSHOW_FLAGS, QS_FLAG_SCANNING, ACCESS
                      00963         BRA     LLIM_OFF_#v(LLIM_N)
                      00964         ;
                      00965         ; scanning and not pressed or masked? light up fully
                      00966         ;
                      00967 LLIM_LTN SET    LTN
                      00968         WHILE LLIM_LTN > 0
                      00969 LLIM_LTN --
                      00970          SET_SSR_STEADY #v(LT+LLIM_LTN)
                      00971         ENDW
                      00972         BRA     LLIM_END_#v(LLIM_N)
                      00973         
                      00974 LLIM_OFF_#v(LLIM_N):
                      00975         ;
                      00976         ; button pressed or masked, or scan is off; 
                      00977         ; turn off until the host computer
                      00978         ; stops the scan and awards the winner
                      00979         ;
                      00980 LLIM_LTN SET    LTN
                      00981         WHILE LLIM_LTN > 0
                      00982 LLIM_LTN --
                      00983          SET_SSR_OFF #v(LT+LLIM_LTN)
                      00984         ENDW
                      00985 
                      00986 LLIM_END_#v(LLIM_N):
                      00987         BANKSEL QUIZSHOW_DATA
                      00988 LLIM_N  ++
                      00989         ENDM
                      00990 
0000D0 010C           00991         BANKSEL QUIZSHOW_DATA
0000D2 A200           00992         BTFSS   QUIZSHOW_FLAGS, QS_FLAG_ON_120_S, ACCESS
0000D4 D???           00993         BRA     SCAN_DEBOUNCERS
0000D6 8400           00994         BSF     QUIZSHOW_FLAGS, QS_FLAG_DOING120, ACCESS
MPASM 5.66              ../QUIZSHOW_MAIN.ASM   3-1-2017  12:21:15         PAGE 24


LOC  OBJECT CODE     LINE SOURCE TEXT
  VALUE

0000D8 9200           00995         BCF     QUIZSHOW_FLAGS, QS_FLAG_ON_120_S, ACCESS
                      00996 
0000DA                00997 SCAN_DEBOUNCERS:
                      00998         IF LUMOS_CHIP_TYPE == LUMOS_CHIP_QSCC
                      00999          SCAN_DEBOUNCE  BTN_IDX_X0, PORT_X0, BIT_X0, CHAN_X0R, 3, CHAN_X0R
                      01000          SCAN_DEBOUNCE  BTN_IDX_L0, PORT_L0, BIT_L0, CHAN_L0R, 2, CHAN_L0R
                      01001          SCAN_DEBOUNCE  BTN_IDX_A0, PORT_A0, BIT_A0, CHAN_A0L, 1, CHAN_A0L
                      01002          SCAN_DEBOUNCE  BTN_IDX_B0, PORT_B0, BIT_B0, CHAN_B0L, 1, CHAN_B0L
                      01003          SCAN_DEBOUNCE  BTN_IDX_C0, PORT_C0, BIT_C0, CHAN_C0L, 1, CHAN_C0L
                      01004          SCAN_DEBOUNCE  BTN_IDX_D0, PORT_D0, BIT_D0, CHAN_D0L, 1, CHAN_D0L
                      01005         ELSE
                      01006          IF LUMOS_CHIP_TYPE == LUMOS_CHIP_QSRC
                      01007           SCAN_DEBOUNCE BTN_IDX_X0, PORT_X0, BIT_X0, CHAN_X0R, 3, CHAN_X0R
0000DA 010C               M         BANKSEL QUIZSHOW_DATA
0000DC 0004               M         CLRWDT
                          M         ;
                          M         ; Sense button state: 
                          M         ;  0=pressed
                          M         ;  1=released
                          M         ;
0000DE A680               M         BTFSS   3968,         BIT_X0,  ACCESS
0000E0 D???               M         BRA     SCN_DB_DOWN_0           ; pressed? branch
                          M         ;
                          M         ; button senses as "up". drain debounce counter if possible
                          M         ;
0000E2 6700               M         TSTFSZ  BTN_X0_DEB_TMR+0,           BANKED
0000E4 D???               M         BRA     SCN_DB_DRAIN_0
                          M         ;
                          M         ; The button is officially "up".  If this is news, respond
                          M         ; to this change now.  All we need to do is note the status
                          M         ; change. Everything else happens later when the code notices
                          M         ; this flag state.
                          M         ;
0000E6 9700               M         BCF     BTN_X0_FLAGS+0,           BTN_FLG_ACTIVE, BANKED
0000E8 D???               M         BRA     SCN_DB_DONE_0
                          M 
0000EA                    M SCN_DB_DRAIN_0:
                          M         ;
                          M         ; Drain the button debounce counter
                          M         ;
0000EA 010C               M         BANKSEL QUIZSHOW_DATA
0000EC 0700               M         DECF    BTN_X0_DEB_TMR+0,           F, BANKED
0000EE D???               M         BRA     SCN_DB_DONE_0
                          M 
0000F0                    M SCN_DB_RST_LCK_0:
                          M         ;
                          M         ; The button needs to be locked out!
                          M         ; We found them pushing the button when they weren't supposed to.
                          M         ;
0000F0 010C               M         BANKSEL QUIZSHOW_DATA
0000F2 8500               M         BSF     BTN_X0_FLAGS+0,           BTN_FLG_LOCKED, BANKED
0000F4 C??? F???          M         MOVFF   QUIZSHOW_LCKTM, BTN_X0_LOCKTMR+0
                          M         LOCAL_LIGHT_INDICATOR BTN_IDX_X0, CHAN_X0R, 3, CHAN_X0R
0000F8 010C               M         BANKSEL QUIZSHOW_DATA
0000FA A500               M         BTFSS   BTN_X0_FLAGS+0,           BTN_FLG_LOCKED, BANKED
0000FC D???               M         BRA     LLIM_NOT_LOCKED_0
0000FE B900               M         BTFSC   BTN_X0_FLAGS+0,           BTN_FLG_LCK_ACK, BANKED
000100 D???               M         BRA     LLIM_NOT_LOCKED_0
                          M         ;
                          M         ; light up for locked mode for the first time
                          M         ;
000102 8900               M         BSF     BTN_X0_FLAGS+0,           BTN_FLG_LCK_ACK, BANKED       ; don't do it again
  00000003                M LLIM_LTN SET    3
                          M         WHILE LLIM_LTN > 0
  00000002                M LLIM_LTN --
                          M          SET_SSR_OFF 2
                          M          SET_SSR_VALUE 2,   0
000104 0104               M         BANKSEL SSR_DATA_BANK
000106 0E00               M          MOVLW  0
000108 6F00               M          MOVWF  SSR_00_VALUE+2,   BANKED
00010A 6B00               M          CLRF   SSR_00_STEP+2,   BANKED
00010C 6B00               M          CLRF   SSR_00_SPEED+2,   BANKED
00010E 6B00               M          CLRF   SSR_00_COUNTER+2,   BANKED
000110 6B00               M          CLRF   SSR_00_FLAGS+2,   BANKED
  00000001                M LLIM_LTN --
                          M          SET_SSR_OFF 1
                          M          SET_SSR_VALUE 1,   0
000112 0104               M         BANKSEL SSR_DATA_BANK
000114 0E00               M          MOVLW  0
000116 6F00               M          MOVWF  SSR_00_VALUE+1,   BANKED
MPASM 5.66              ../QUIZSHOW_MAIN.ASM   3-1-2017  12:21:15         PAGE 25


LOC  OBJECT CODE     LINE SOURCE TEXT
  VALUE

000118 6B00               M          CLRF   SSR_00_STEP+1,   BANKED
00011A 6B00               M          CLRF   SSR_00_SPEED+1,   BANKED
00011C 6B00               M          CLRF   SSR_00_COUNTER+1,   BANKED
00011E 6B00               M          CLRF   SSR_00_FLAGS+1,   BANKED
  00000000                M LLIM_LTN --
                          M          SET_SSR_OFF 0
                          M          SET_SSR_VALUE 0,   0
000120 0104               M         BANKSEL SSR_DATA_BANK
000122 0E00               M          MOVLW  0
000124 6F00               M          MOVWF  SSR_00_VALUE+0,   BANKED
000126 6B00               M          CLRF   SSR_00_STEP+0,   BANKED
000128 6B00               M          CLRF   SSR_00_SPEED+0,   BANKED
00012A 6B00               M          CLRF   SSR_00_COUNTER+0,   BANKED
00012C 6B00               M          CLRF   SSR_00_FLAGS+0,   BANKED
                          M         ENDW
                          M         SET_SSR_RAPID_FADE CHAN_X0R
                          M          SET_SSR_PATTERN CHAN_X0R, 0, 4, 1, BIT_FADE_UP|BIT_FADE_CYCLE
00012E 0104               M         BANKSEL SSR_DATA_BANK
000130 0E00               M          MOVLW  0
000132 6F00               M          MOVWF  SSR_00_VALUE+CHAN_X0R, BANKED
000134 0E04               M          MOVLW  4
000136 6F00               M          MOVWF  SSR_00_STEP+CHAN_X0R, BANKED
000138 0E01               M          MOVLW  1
00013A 6F00               M          MOVWF  SSR_00_SPEED+CHAN_X0R, BANKED
00013C 6F00               M          MOVWF  SSR_00_COUNTER+CHAN_X0R, BANKED
00013E 0EA0               M          MOVLW  BIT_FADE_UP|BIT_FADE_CYCLE
000140 6F00               M          MOVWF  SSR_00_FLAGS+CHAN_X0R, BANKED
000142 D???               M         BRA     LLIM_END_0
                          M 
000144                    M LLIM_NOT_LOCKED_0:
000144 010C               M         BANKSEL QUIZSHOW_DATA
000146 B300               M         BTFSC   BTN_X0_FLAGS+0,           BTN_FLG_MASKED, BANKED
000148 D???               M         BRA     LLIM_OFF_0
00014A B100               M         BTFSC   BTN_X0_FLAGS+0,           BTN_FLG_PRESSED, BANKED
00014C D???               M         BRA     LLIM_OFF_0
00014E A000               M         BTFSS   QUIZSHOW_FLAGS, QS_FLAG_SCANNING, ACCESS
000150 D???               M         BRA     LLIM_OFF_0
                          M         ;
                          M         ; scanning and not pressed or masked? light up fully
                          M         ;
  00000003                M LLIM_LTN SET    3
                          M         WHILE LLIM_LTN > 0
  00000002                M LLIM_LTN --
                          M          SET_SSR_STEADY 2
                          M          SET_SSR_VALUE 2,   255
000152 0104               M         BANKSEL SSR_DATA_BANK
000154 0EFF               M          MOVLW  255
000156 6F00               M          MOVWF  SSR_00_VALUE+2,   BANKED
000158 6B00               M          CLRF   SSR_00_STEP+2,   BANKED
00015A 6B00               M          CLRF   SSR_00_SPEED+2,   BANKED
00015C 6B00               M          CLRF   SSR_00_COUNTER+2,   BANKED
00015E 6B00               M          CLRF   SSR_00_FLAGS+2,   BANKED
  00000001                M LLIM_LTN --
                          M          SET_SSR_STEADY 1
                          M          SET_SSR_VALUE 1,   255
000160 0104               M         BANKSEL SSR_DATA_BANK
000162 0EFF               M          MOVLW  255
000164 6F00               M          MOVWF  SSR_00_VALUE+1,   BANKED
000166 6B00               M          CLRF   SSR_00_STEP+1,   BANKED
000168 6B00               M          CLRF   SSR_00_SPEED+1,   BANKED
00016A 6B00               M          CLRF   SSR_00_COUNTER+1,   BANKED
00016C 6B00               M          CLRF   SSR_00_FLAGS+1,   BANKED
  00000000                M LLIM_LTN --
                          M          SET_SSR_STEADY 0
                          M          SET_SSR_VALUE 0,   255
00016E 0104               M         BANKSEL SSR_DATA_BANK
000170 0EFF               M          MOVLW  255
000172 6F00               M          MOVWF  SSR_00_VALUE+0,   BANKED
000174 6B00               M          CLRF   SSR_00_STEP+0,   BANKED
000176 6B00               M          CLRF   SSR_00_SPEED+0,   BANKED
000178 6B00               M          CLRF   SSR_00_COUNTER+0,   BANKED
00017A 6B00               M          CLRF   SSR_00_FLAGS+0,   BANKED
                          M         ENDW
00017C D???               M         BRA     LLIM_END_0
                          M         
00017E                    M LLIM_OFF_0:
                          M         ;
                          M         ; button pressed or masked, or scan is off; 
                          M         ; turn off until the host computer
                          M         ; stops the scan and awards the winner
MPASM 5.66              ../QUIZSHOW_MAIN.ASM   3-1-2017  12:21:15         PAGE 26


LOC  OBJECT CODE     LINE SOURCE TEXT
  VALUE

                          M         ;
  00000003                M LLIM_LTN SET    3
                          M         WHILE LLIM_LTN > 0
  00000002                M LLIM_LTN --
                          M          SET_SSR_OFF 2
                          M          SET_SSR_VALUE 2,   0
00017E 0104               M         BANKSEL SSR_DATA_BANK
000180 0E00               M          MOVLW  0
000182 6F00               M          MOVWF  SSR_00_VALUE+2,   BANKED
000184 6B00               M          CLRF   SSR_00_STEP+2,   BANKED
000186 6B00               M          CLRF   SSR_00_SPEED+2,   BANKED
000188 6B00               M          CLRF   SSR_00_COUNTER+2,   BANKED
00018A 6B00               M          CLRF   SSR_00_FLAGS+2,   BANKED
  00000001                M LLIM_LTN --
                          M          SET_SSR_OFF 1
                          M          SET_SSR_VALUE 1,   0
00018C 0104               M         BANKSEL SSR_DATA_BANK
00018E 0E00               M          MOVLW  0
000190 6F00               M          MOVWF  SSR_00_VALUE+1,   BANKED
000192 6B00               M          CLRF   SSR_00_STEP+1,   BANKED
000194 6B00               M          CLRF   SSR_00_SPEED+1,   BANKED
000196 6B00               M          CLRF   SSR_00_COUNTER+1,   BANKED
000198 6B00               M          CLRF   SSR_00_FLAGS+1,   BANKED
  00000000                M LLIM_LTN --
                          M          SET_SSR_OFF 0
                          M          SET_SSR_VALUE 0,   0
00019A 0104               M         BANKSEL SSR_DATA_BANK
00019C 0E00               M          MOVLW  0
00019E 6F00               M          MOVWF  SSR_00_VALUE+0,   BANKED
0001A0 6B00               M          CLRF   SSR_00_STEP+0,   BANKED
0001A2 6B00               M          CLRF   SSR_00_SPEED+0,   BANKED
0001A4 6B00               M          CLRF   SSR_00_COUNTER+0,   BANKED
0001A6 6B00               M          CLRF   SSR_00_FLAGS+0,   BANKED
                          M         ENDW
                          M 
0001A8                    M LLIM_END_0:
0001A8 010C               M         BANKSEL QUIZSHOW_DATA
  00000001                M LLIM_N  ++
0001AA D???               M         BRA     SCN_DB_DONE_0
                          M 
0001AC                    M SCN_DB_DOWN_0:
                          M         ;
                          M         ; button senses as "down". fill debounce counter if possible
                          M         ;
0001AC 010C               M         BANKSEL QUIZSHOW_DATA
0001AE 3F00               M         INCFSZ  BTN_X0_DEB_TMR+0,           F, BANKED
0001B0 D???               M         BRA     SCN_DB_DONE_0
                          M         ;
                          M         ; counter was full (since we overflowed it to 0 again). so
                          M         ; the button is officially "down".  Put the counter back
                          M         ; to 255 and proceed with what it means for the button to be
                          M         ; officially down.
                          M         ;
0001B2 6900               M         SETF    BTN_X0_DEB_TMR+0,           BANKED
0001B4 B500               M         BTFSC   BTN_X0_FLAGS+0,           BTN_FLG_LOCKED, BANKED        ; is it locked?
0001B6 D???               M         BRA     SCN_DB_RST_LCK_0                                ; stay locked longer
0001B8 B700               M         BTFSC   BTN_X0_FLAGS+0,           BTN_FLG_ACTIVE, BANKED        ; if we already saw the button p
                            ress
0001BA D???               M         BRA     SCN_DB_DONE_0                                   ;   then we don't need to do anything mo
                            re
                          M         ;
                          M         ; We didn't know the button was down yet. Let's see what
                          M         ; that changes...
                          M         ;
0001BC 8700               M         BSF     BTN_X0_FLAGS+0,           BTN_FLG_ACTIVE, BANKED        ; mark as "down"
0001BE B300               M         BTFSC   BTN_X0_FLAGS+0,           BTN_FLG_MASKED, BANKED        ; is it masked?
0001C0 D???               M         BRA     SCN_DB_DONE_0                                   ; then ignore it
0001C2 B100               M         BTFSC   BTN_X0_FLAGS+0,           BTN_FLG_PRESSED, BANKED       ; already noted?
0001C4 D???               M         BRA     SCN_DB_DONE_0                                   ; then we're already done
0001C6 A000               M         BTFSS   QUIZSHOW_FLAGS, QS_FLAG_SCANNING, ACCESS        ; legal to press?
0001C8 D???               M         BRA     SCN_DB_RST_LCK_0                                ; if not, lock out!
                          M         ;
                          M         ; The button was pressed legally and this is the first time we
                          M         ; noticed it. Record it as the official press for this button.
                          M         ;
0001CA 8100               M         BSF     BTN_X0_FLAGS+0,           BTN_FLG_PRESSED, BANKED
0001CC 9EF2               M         BCF     INTCON, 7, ACCESS                               ; disable interrupts
0001CE 9CF2               M         BCF     INTCON, 6, ACCESS                               ; disable interrupts
0001D0 C??? F???          M         MOVFF   QS_BTN_TMR_U, BTN_X0_TIME_U+0
0001D4 C??? F???          M         MOVFF   QS_BTN_TMR_T, BTN_X0_TIME_T+0
MPASM 5.66              ../QUIZSHOW_MAIN.ASM   3-1-2017  12:21:15         PAGE 27


LOC  OBJECT CODE     LINE SOURCE TEXT
  VALUE

0001D8 CFCE F???          M         MOVFF   TMR1L, BTN_X0_TIME_L+0
0001DC CFCF F???          M         MOVFF   TMR1H, BTN_X0_TIME_H+0
0001E0 8EF2               M         BSF     INTCON, 7, ACCESS                               ; enable interrupts
0001E2 8CF2               M         BSF     INTCON, 6, ACCESS                               ; enable interrupts
                          M         LOCAL_LIGHT_INDICATOR BTN_IDX_X0, CHAN_X0R, 3, CHAN_X0R
0001E4 010C               M         BANKSEL QUIZSHOW_DATA
0001E6 A500               M         BTFSS   BTN_X0_FLAGS+0,           BTN_FLG_LOCKED, BANKED
0001E8 D???               M         BRA     LLIM_NOT_LOCKED_1
0001EA B900               M         BTFSC   BTN_X0_FLAGS+0,           BTN_FLG_LCK_ACK, BANKED
0001EC D???               M         BRA     LLIM_NOT_LOCKED_1
                          M         ;
                          M         ; light up for locked mode for the first time
                          M         ;
0001EE 8900               M         BSF     BTN_X0_FLAGS+0,           BTN_FLG_LCK_ACK, BANKED       ; don't do it again
  00000003                M LLIM_LTN SET    3
                          M         WHILE LLIM_LTN > 0
  00000002                M LLIM_LTN --
                          M          SET_SSR_OFF 2
                          M          SET_SSR_VALUE 2,   0
0001F0 0104               M         BANKSEL SSR_DATA_BANK
0001F2 0E00               M          MOVLW  0
0001F4 6F00               M          MOVWF  SSR_00_VALUE+2,   BANKED
0001F6 6B00               M          CLRF   SSR_00_STEP+2,   BANKED
0001F8 6B00               M          CLRF   SSR_00_SPEED+2,   BANKED
0001FA 6B00               M          CLRF   SSR_00_COUNTER+2,   BANKED
0001FC 6B00               M          CLRF   SSR_00_FLAGS+2,   BANKED
  00000001                M LLIM_LTN --
                          M          SET_SSR_OFF 1
                          M          SET_SSR_VALUE 1,   0
0001FE 0104               M         BANKSEL SSR_DATA_BANK
000200 0E00               M          MOVLW  0
000202 6F00               M          MOVWF  SSR_00_VALUE+1,   BANKED
000204 6B00               M          CLRF   SSR_00_STEP+1,   BANKED
000206 6B00               M          CLRF   SSR_00_SPEED+1,   BANKED
000208 6B00               M          CLRF   SSR_00_COUNTER+1,   BANKED
00020A 6B00               M          CLRF   SSR_00_FLAGS+1,   BANKED
  00000000                M LLIM_LTN --
                          M          SET_SSR_OFF 0
                          M          SET_SSR_VALUE 0,   0
00020C 0104               M         BANKSEL SSR_DATA_BANK
00020E 0E00               M          MOVLW  0
000210 6F00               M          MOVWF  SSR_00_VALUE+0,   BANKED
000212 6B00               M          CLRF   SSR_00_STEP+0,   BANKED
000214 6B00               M          CLRF   SSR_00_SPEED+0,   BANKED
000216 6B00               M          CLRF   SSR_00_COUNTER+0,   BANKED
000218 6B00               M          CLRF   SSR_00_FLAGS+0,   BANKED
                          M         ENDW
                          M         SET_SSR_RAPID_FADE CHAN_X0R
                          M          SET_SSR_PATTERN CHAN_X0R, 0, 4, 1, BIT_FADE_UP|BIT_FADE_CYCLE
00021A 0104               M         BANKSEL SSR_DATA_BANK
00021C 0E00               M          MOVLW  0
00021E 6F00               M          MOVWF  SSR_00_VALUE+CHAN_X0R, BANKED
000220 0E04               M          MOVLW  4
000222 6F00               M          MOVWF  SSR_00_STEP+CHAN_X0R, BANKED
000224 0E01               M          MOVLW  1
000226 6F00               M          MOVWF  SSR_00_SPEED+CHAN_X0R, BANKED
000228 6F00               M          MOVWF  SSR_00_COUNTER+CHAN_X0R, BANKED
00022A 0EA0               M          MOVLW  BIT_FADE_UP|BIT_FADE_CYCLE
00022C 6F00               M          MOVWF  SSR_00_FLAGS+CHAN_X0R, BANKED
00022E D???               M         BRA     LLIM_END_1
                          M 
000230                    M LLIM_NOT_LOCKED_1:
000230 010C               M         BANKSEL QUIZSHOW_DATA
000232 B300               M         BTFSC   BTN_X0_FLAGS+0,           BTN_FLG_MASKED, BANKED
000234 D???               M         BRA     LLIM_OFF_1
000236 B100               M         BTFSC   BTN_X0_FLAGS+0,           BTN_FLG_PRESSED, BANKED
000238 D???               M         BRA     LLIM_OFF_1
00023A A000               M         BTFSS   QUIZSHOW_FLAGS, QS_FLAG_SCANNING, ACCESS
00023C D???               M         BRA     LLIM_OFF_1
                          M         ;
                          M         ; scanning and not pressed or masked? light up fully
                          M         ;
  00000003                M LLIM_LTN SET    3
                          M         WHILE LLIM_LTN > 0
  00000002                M LLIM_LTN --
                          M          SET_SSR_STEADY 2
                          M          SET_SSR_VALUE 2,   255
00023E 0104               M         BANKSEL SSR_DATA_BANK
000240 0EFF               M          MOVLW  255
000242 6F00               M          MOVWF  SSR_00_VALUE+2,   BANKED
MPASM 5.66              ../QUIZSHOW_MAIN.ASM   3-1-2017  12:21:15         PAGE 28


LOC  OBJECT CODE     LINE SOURCE TEXT
  VALUE

000244 6B00               M          CLRF   SSR_00_STEP+2,   BANKED
000246 6B00               M          CLRF   SSR_00_SPEED+2,   BANKED
000248 6B00               M          CLRF   SSR_00_COUNTER+2,   BANKED
00024A 6B00               M          CLRF   SSR_00_FLAGS+2,   BANKED
  00000001                M LLIM_LTN --
                          M          SET_SSR_STEADY 1
                          M          SET_SSR_VALUE 1,   255
00024C 0104               M         BANKSEL SSR_DATA_BANK
00024E 0EFF               M          MOVLW  255
000250 6F00               M          MOVWF  SSR_00_VALUE+1,   BANKED
000252 6B00               M          CLRF   SSR_00_STEP+1,   BANKED
000254 6B00               M          CLRF   SSR_00_SPEED+1,   BANKED
000256 6B00               M          CLRF   SSR_00_COUNTER+1,   BANKED
000258 6B00               M          CLRF   SSR_00_FLAGS+1,   BANKED
  00000000                M LLIM_LTN --
                          M          SET_SSR_STEADY 0
                          M          SET_SSR_VALUE 0,   255
00025A 0104               M         BANKSEL SSR_DATA_BANK
00025C 0EFF               M          MOVLW  255
00025E 6F00               M          MOVWF  SSR_00_VALUE+0,   BANKED
000260 6B00               M          CLRF   SSR_00_STEP+0,   BANKED
000262 6B00               M          CLRF   SSR_00_SPEED+0,   BANKED
000264 6B00               M          CLRF   SSR_00_COUNTER+0,   BANKED
000266 6B00               M          CLRF   SSR_00_FLAGS+0,   BANKED
                          M         ENDW
000268 D???               M         BRA     LLIM_END_1
                          M         
00026A                    M LLIM_OFF_1:
                          M         ;
                          M         ; button pressed or masked, or scan is off; 
                          M         ; turn off until the host computer
                          M         ; stops the scan and awards the winner
                          M         ;
  00000003                M LLIM_LTN SET    3
                          M         WHILE LLIM_LTN > 0
  00000002                M LLIM_LTN --
                          M          SET_SSR_OFF 2
                          M          SET_SSR_VALUE 2,   0
00026A 0104               M         BANKSEL SSR_DATA_BANK
00026C 0E00               M          MOVLW  0
00026E 6F00               M          MOVWF  SSR_00_VALUE+2,   BANKED
000270 6B00               M          CLRF   SSR_00_STEP+2,   BANKED
000272 6B00               M          CLRF   SSR_00_SPEED+2,   BANKED
000274 6B00               M          CLRF   SSR_00_COUNTER+2,   BANKED
000276 6B00               M          CLRF   SSR_00_FLAGS+2,   BANKED
  00000001                M LLIM_LTN --
                          M          SET_SSR_OFF 1
                          M          SET_SSR_VALUE 1,   0
000278 0104               M         BANKSEL SSR_DATA_BANK
00027A 0E00               M          MOVLW  0
00027C 6F00               M          MOVWF  SSR_00_VALUE+1,   BANKED
00027E 6B00               M          CLRF   SSR_00_STEP+1,   BANKED
000280 6B00               M          CLRF   SSR_00_SPEED+1,   BANKED
000282 6B00               M          CLRF   SSR_00_COUNTER+1,   BANKED
000284 6B00               M          CLRF   SSR_00_FLAGS+1,   BANKED
  00000000                M LLIM_LTN --
                          M          SET_SSR_OFF 0
                          M          SET_SSR_VALUE 0,   0
000286 0104               M         BANKSEL SSR_DATA_BANK
000288 0E00               M          MOVLW  0
00028A 6F00               M          MOVWF  SSR_00_VALUE+0,   BANKED
00028C 6B00               M          CLRF   SSR_00_STEP+0,   BANKED
00028E 6B00               M          CLRF   SSR_00_SPEED+0,   BANKED
000290 6B00               M          CLRF   SSR_00_COUNTER+0,   BANKED
000292 6B00               M          CLRF   SSR_00_FLAGS+0,   BANKED
                          M         ENDW
                          M 
000294                    M LLIM_END_1:
000294 010C               M         BANKSEL QUIZSHOW_DATA
  00000002                M LLIM_N  ++
                          M 
000296                    M SCN_DB_DONE_0:
                          M         ;
                          M         ; We're done with the button debouncing operations.
                          M         ;
                          M         ; If we're processing the 120Hz cleanup operations, do them now
                          M         ; for this button.
                          M         ;
000296 A400               M         BTFSS   QUIZSHOW_FLAGS, QS_FLAG_DOING120, ACCESS
000298 D???               M         BRA     SCN_DB_END_0
MPASM 5.66              ../QUIZSHOW_MAIN.ASM   3-1-2017  12:21:15         PAGE 29


LOC  OBJECT CODE     LINE SOURCE TEXT
  VALUE

                          M         ;
                          M         ; If the button is locked out, decrement its timer. If it reaches
                          M         ; zero, we can release the lock now.
                          M         ;
00029A 010C               M         BANKSEL QUIZSHOW_DATA
00029C B500               M         BTFSC   BTN_X0_FLAGS+0,           BTN_FLG_LOCKED, BANKED
00029E 2F00               M         DECFSZ  BTN_X0_LOCKTMR+0,           F, BANKED
0002A0 D???               M         BRA     SCN_DB_END_0
0002A2 9500               M         BCF     BTN_X0_FLAGS+0,           BTN_FLG_LOCKED, BANKED        ; release the lock
0002A4 9900               M         BCF     BTN_X0_FLAGS+0,           BTN_FLG_LCK_ACK, BANKED
                          M         LOCAL_LIGHT_INDICATOR BTN_IDX_X0, CHAN_X0R, 3, CHAN_X0R
0002A6 010C               M         BANKSEL QUIZSHOW_DATA
0002A8 A500               M         BTFSS   BTN_X0_FLAGS+0,           BTN_FLG_LOCKED, BANKED
0002AA D???               M         BRA     LLIM_NOT_LOCKED_2
0002AC B900               M         BTFSC   BTN_X0_FLAGS+0,           BTN_FLG_LCK_ACK, BANKED
0002AE D???               M         BRA     LLIM_NOT_LOCKED_2
                          M         ;
                          M         ; light up for locked mode for the first time
                          M         ;
0002B0 8900               M         BSF     BTN_X0_FLAGS+0,           BTN_FLG_LCK_ACK, BANKED       ; don't do it again
  00000003                M LLIM_LTN SET    3
                          M         WHILE LLIM_LTN > 0
  00000002                M LLIM_LTN --
                          M          SET_SSR_OFF 2
                          M          SET_SSR_VALUE 2,   0
0002B2 0104               M         BANKSEL SSR_DATA_BANK
0002B4 0E00               M          MOVLW  0
0002B6 6F00               M          MOVWF  SSR_00_VALUE+2,   BANKED
0002B8 6B00               M          CLRF   SSR_00_STEP+2,   BANKED
0002BA 6B00               M          CLRF   SSR_00_SPEED+2,   BANKED
0002BC 6B00               M          CLRF   SSR_00_COUNTER+2,   BANKED
0002BE 6B00               M          CLRF   SSR_00_FLAGS+2,   BANKED
  00000001                M LLIM_LTN --
                          M          SET_SSR_OFF 1
                          M          SET_SSR_VALUE 1,   0
0002C0 0104               M         BANKSEL SSR_DATA_BANK
0002C2 0E00               M          MOVLW  0
0002C4 6F00               M          MOVWF  SSR_00_VALUE+1,   BANKED
0002C6 6B00               M          CLRF   SSR_00_STEP+1,   BANKED
0002C8 6B00               M          CLRF   SSR_00_SPEED+1,   BANKED
0002CA 6B00               M          CLRF   SSR_00_COUNTER+1,   BANKED
0002CC 6B00               M          CLRF   SSR_00_FLAGS+1,   BANKED
  00000000                M LLIM_LTN --
                          M          SET_SSR_OFF 0
                          M          SET_SSR_VALUE 0,   0
0002CE 0104               M         BANKSEL SSR_DATA_BANK
0002D0 0E00               M          MOVLW  0
0002D2 6F00               M          MOVWF  SSR_00_VALUE+0,   BANKED
0002D4 6B00               M          CLRF   SSR_00_STEP+0,   BANKED
0002D6 6B00               M          CLRF   SSR_00_SPEED+0,   BANKED
0002D8 6B00               M          CLRF   SSR_00_COUNTER+0,   BANKED
0002DA 6B00               M          CLRF   SSR_00_FLAGS+0,   BANKED
                          M         ENDW
                          M         SET_SSR_RAPID_FADE CHAN_X0R
                          M          SET_SSR_PATTERN CHAN_X0R, 0, 4, 1, BIT_FADE_UP|BIT_FADE_CYCLE
0002DC 0104               M         BANKSEL SSR_DATA_BANK
0002DE 0E00               M          MOVLW  0
0002E0 6F00               M          MOVWF  SSR_00_VALUE+CHAN_X0R, BANKED
0002E2 0E04               M          MOVLW  4
0002E4 6F00               M          MOVWF  SSR_00_STEP+CHAN_X0R, BANKED
0002E6 0E01               M          MOVLW  1
0002E8 6F00               M          MOVWF  SSR_00_SPEED+CHAN_X0R, BANKED
0002EA 6F00               M          MOVWF  SSR_00_COUNTER+CHAN_X0R, BANKED
0002EC 0EA0               M          MOVLW  BIT_FADE_UP|BIT_FADE_CYCLE
0002EE 6F00               M          MOVWF  SSR_00_FLAGS+CHAN_X0R, BANKED
0002F0 D???               M         BRA     LLIM_END_2
                          M 
0002F2                    M LLIM_NOT_LOCKED_2:
0002F2 010C               M         BANKSEL QUIZSHOW_DATA
0002F4 B300               M         BTFSC   BTN_X0_FLAGS+0,           BTN_FLG_MASKED, BANKED
0002F6 D???               M         BRA     LLIM_OFF_2
0002F8 B100               M         BTFSC   BTN_X0_FLAGS+0,           BTN_FLG_PRESSED, BANKED
0002FA D???               M         BRA     LLIM_OFF_2
0002FC A000               M         BTFSS   QUIZSHOW_FLAGS, QS_FLAG_SCANNING, ACCESS
0002FE D???               M         BRA     LLIM_OFF_2
                          M         ;
                          M         ; scanning and not pressed or masked? light up fully
                          M         ;
  00000003                M LLIM_LTN SET    3
                          M         WHILE LLIM_LTN > 0
MPASM 5.66              ../QUIZSHOW_MAIN.ASM   3-1-2017  12:21:15         PAGE 30


LOC  OBJECT CODE     LINE SOURCE TEXT
  VALUE

  00000002                M LLIM_LTN --
                          M          SET_SSR_STEADY 2
                          M          SET_SSR_VALUE 2,   255
000300 0104               M         BANKSEL SSR_DATA_BANK
000302 0EFF               M          MOVLW  255
000304 6F00               M          MOVWF  SSR_00_VALUE+2,   BANKED
000306 6B00               M          CLRF   SSR_00_STEP+2,   BANKED
000308 6B00               M          CLRF   SSR_00_SPEED+2,   BANKED
00030A 6B00               M          CLRF   SSR_00_COUNTER+2,   BANKED
00030C 6B00               M          CLRF   SSR_00_FLAGS+2,   BANKED
  00000001                M LLIM_LTN --
                          M          SET_SSR_STEADY 1
                          M          SET_SSR_VALUE 1,   255
00030E 0104               M         BANKSEL SSR_DATA_BANK
000310 0EFF               M          MOVLW  255
000312 6F00               M          MOVWF  SSR_00_VALUE+1,   BANKED
000314 6B00               M          CLRF   SSR_00_STEP+1,   BANKED
000316 6B00               M          CLRF   SSR_00_SPEED+1,   BANKED
000318 6B00               M          CLRF   SSR_00_COUNTER+1,   BANKED
00031A 6B00               M          CLRF   SSR_00_FLAGS+1,   BANKED
  00000000                M LLIM_LTN --
                          M          SET_SSR_STEADY 0
                          M          SET_SSR_VALUE 0,   255
00031C 0104               M         BANKSEL SSR_DATA_BANK
00031E 0EFF               M          MOVLW  255
000320 6F00               M          MOVWF  SSR_00_VALUE+0,   BANKED
000322 6B00               M          CLRF   SSR_00_STEP+0,   BANKED
000324 6B00               M          CLRF   SSR_00_SPEED+0,   BANKED
000326 6B00               M          CLRF   SSR_00_COUNTER+0,   BANKED
000328 6B00               M          CLRF   SSR_00_FLAGS+0,   BANKED
                          M         ENDW
00032A D???               M         BRA     LLIM_END_2
                          M         
00032C                    M LLIM_OFF_2:
                          M         ;
                          M         ; button pressed or masked, or scan is off; 
                          M         ; turn off until the host computer
                          M         ; stops the scan and awards the winner
                          M         ;
  00000003                M LLIM_LTN SET    3
                          M         WHILE LLIM_LTN > 0
  00000002                M LLIM_LTN --
                          M          SET_SSR_OFF 2
                          M          SET_SSR_VALUE 2,   0
00032C 0104               M         BANKSEL SSR_DATA_BANK
00032E 0E00               M          MOVLW  0
000330 6F00               M          MOVWF  SSR_00_VALUE+2,   BANKED
000332 6B00               M          CLRF   SSR_00_STEP+2,   BANKED
000334 6B00               M          CLRF   SSR_00_SPEED+2,   BANKED
000336 6B00               M          CLRF   SSR_00_COUNTER+2,   BANKED
000338 6B00               M          CLRF   SSR_00_FLAGS+2,   BANKED
  00000001                M LLIM_LTN --
                          M          SET_SSR_OFF 1
                          M          SET_SSR_VALUE 1,   0
00033A 0104               M         BANKSEL SSR_DATA_BANK
00033C 0E00               M          MOVLW  0
00033E 6F00               M          MOVWF  SSR_00_VALUE+1,   BANKED
000340 6B00               M          CLRF   SSR_00_STEP+1,   BANKED
000342 6B00               M          CLRF   SSR_00_SPEED+1,   BANKED
000344 6B00               M          CLRF   SSR_00_COUNTER+1,   BANKED
000346 6B00               M          CLRF   SSR_00_FLAGS+1,   BANKED
  00000000                M LLIM_LTN --
                          M          SET_SSR_OFF 0
                          M          SET_SSR_VALUE 0,   0
000348 0104               M         BANKSEL SSR_DATA_BANK
00034A 0E00               M          MOVLW  0
00034C 6F00               M          MOVWF  SSR_00_VALUE+0,   BANKED
00034E 6B00               M          CLRF   SSR_00_STEP+0,   BANKED
000350 6B00               M          CLRF   SSR_00_SPEED+0,   BANKED
000352 6B00               M          CLRF   SSR_00_COUNTER+0,   BANKED
000354 6B00               M          CLRF   SSR_00_FLAGS+0,   BANKED
                          M         ENDW
                          M 
000356                    M LLIM_END_2:
000356 010C               M         BANKSEL QUIZSHOW_DATA
  00000003                M LLIM_N  ++
                          M 
000358                    M SCN_DB_END_0:
  00000001                M SCN_DBN ++
                      01008           SCAN_DEBOUNCE BTN_IDX_L0, PORT_L0, BIT_L0, CHAN_L0R, 1, CHAN_L0R
MPASM 5.66              ../QUIZSHOW_MAIN.ASM   3-1-2017  12:21:15         PAGE 31


LOC  OBJECT CODE     LINE SOURCE TEXT
  VALUE

000358 010C               M         BANKSEL QUIZSHOW_DATA
00035A 0004               M         CLRWDT
                          M         ;
                          M         ; Sense button state: 
                          M         ;  0=pressed
                          M         ;  1=released
                          M         ;
00035C A480               M         BTFSS   3968,         BIT_L0,  ACCESS
00035E D???               M         BRA     SCN_DB_DOWN_1           ; pressed? branch
                          M         ;
                          M         ; button senses as "up". drain debounce counter if possible
                          M         ;
000360 6700               M         TSTFSZ  BTN_X0_DEB_TMR+1,           BANKED
000362 D???               M         BRA     SCN_DB_DRAIN_1
                          M         ;
                          M         ; The button is officially "up".  If this is news, respond
                          M         ; to this change now.  All we need to do is note the status
                          M         ; change. Everything else happens later when the code notices
                          M         ; this flag state.
                          M         ;
000364 9700               M         BCF     BTN_X0_FLAGS+1,           BTN_FLG_ACTIVE, BANKED
000366 D???               M         BRA     SCN_DB_DONE_1
                          M 
000368                    M SCN_DB_DRAIN_1:
                          M         ;
                          M         ; Drain the button debounce counter
                          M         ;
000368 010C               M         BANKSEL QUIZSHOW_DATA
00036A 0700               M         DECF    BTN_X0_DEB_TMR+1,           F, BANKED
00036C D???               M         BRA     SCN_DB_DONE_1
                          M 
00036E                    M SCN_DB_RST_LCK_1:
                          M         ;
                          M         ; The button needs to be locked out!
                          M         ; We found them pushing the button when they weren't supposed to.
                          M         ;
00036E 010C               M         BANKSEL QUIZSHOW_DATA
000370 8500               M         BSF     BTN_X0_FLAGS+1,           BTN_FLG_LOCKED, BANKED
000372 C??? F???          M         MOVFF   QUIZSHOW_LCKTM, BTN_X0_LOCKTMR+1
                          M         LOCAL_LIGHT_INDICATOR BTN_IDX_L0, CHAN_L0R, 1, CHAN_L0R
000376 010C               M         BANKSEL QUIZSHOW_DATA
000378 A500               M         BTFSS   BTN_X0_FLAGS+1,           BTN_FLG_LOCKED, BANKED
00037A D???               M         BRA     LLIM_NOT_LOCKED_3
00037C B900               M         BTFSC   BTN_X0_FLAGS+1,           BTN_FLG_LCK_ACK, BANKED
00037E D???               M         BRA     LLIM_NOT_LOCKED_3
                          M         ;
                          M         ; light up for locked mode for the first time
                          M         ;
000380 8900               M         BSF     BTN_X0_FLAGS+1,           BTN_FLG_LCK_ACK, BANKED       ; don't do it again
  00000001                M LLIM_LTN SET    1
                          M         WHILE LLIM_LTN > 0
  00000000                M LLIM_LTN --
                          M          SET_SSR_OFF 3
                          M          SET_SSR_VALUE 3,   0
000382 0104               M         BANKSEL SSR_DATA_BANK
000384 0E00               M          MOVLW  0
000386 6F00               M          MOVWF  SSR_00_VALUE+3,   BANKED
000388 6B00               M          CLRF   SSR_00_STEP+3,   BANKED
00038A 6B00               M          CLRF   SSR_00_SPEED+3,   BANKED
00038C 6B00               M          CLRF   SSR_00_COUNTER+3,   BANKED
00038E 6B00               M          CLRF   SSR_00_FLAGS+3,   BANKED
                          M         ENDW
                          M         SET_SSR_RAPID_FADE CHAN_L0R
                          M          SET_SSR_PATTERN CHAN_L0R, 0, 4, 1, BIT_FADE_UP|BIT_FADE_CYCLE
000390 0104               M         BANKSEL SSR_DATA_BANK
000392 0E00               M          MOVLW  0
000394 6F00               M          MOVWF  SSR_00_VALUE+CHAN_L0R, BANKED
000396 0E04               M          MOVLW  4
000398 6F00               M          MOVWF  SSR_00_STEP+CHAN_L0R, BANKED
00039A 0E01               M          MOVLW  1
00039C 6F00               M          MOVWF  SSR_00_SPEED+CHAN_L0R, BANKED
00039E 6F00               M          MOVWF  SSR_00_COUNTER+CHAN_L0R, BANKED
0003A0 0EA0               M          MOVLW  BIT_FADE_UP|BIT_FADE_CYCLE
0003A2 6F00               M          MOVWF  SSR_00_FLAGS+CHAN_L0R, BANKED
0003A4 D???               M         BRA     LLIM_END_3
                          M 
0003A6                    M LLIM_NOT_LOCKED_3:
0003A6 010C               M         BANKSEL QUIZSHOW_DATA
0003A8 B300               M         BTFSC   BTN_X0_FLAGS+1,           BTN_FLG_MASKED, BANKED
0003AA D???               M         BRA     LLIM_OFF_3
MPASM 5.66              ../QUIZSHOW_MAIN.ASM   3-1-2017  12:21:15         PAGE 32


LOC  OBJECT CODE     LINE SOURCE TEXT
  VALUE

0003AC B100               M         BTFSC   BTN_X0_FLAGS+1,           BTN_FLG_PRESSED, BANKED
0003AE D???               M         BRA     LLIM_OFF_3
0003B0 A000               M         BTFSS   QUIZSHOW_FLAGS, QS_FLAG_SCANNING, ACCESS
0003B2 D???               M         BRA     LLIM_OFF_3
                          M         ;
                          M         ; scanning and not pressed or masked? light up fully
                          M         ;
  00000001                M LLIM_LTN SET    1
                          M         WHILE LLIM_LTN > 0
  00000000                M LLIM_LTN --
                          M          SET_SSR_STEADY 3
                          M          SET_SSR_VALUE 3,   255
0003B4 0104               M         BANKSEL SSR_DATA_BANK
0003B6 0EFF               M          MOVLW  255
0003B8 6F00               M          MOVWF  SSR_00_VALUE+3,   BANKED
0003BA 6B00               M          CLRF   SSR_00_STEP+3,   BANKED
0003BC 6B00               M          CLRF   SSR_00_SPEED+3,   BANKED
0003BE 6B00               M          CLRF   SSR_00_COUNTER+3,   BANKED
0003C0 6B00               M          CLRF   SSR_00_FLAGS+3,   BANKED
                          M         ENDW
0003C2 D???               M         BRA     LLIM_END_3
                          M         
0003C4                    M LLIM_OFF_3:
                          M         ;
                          M         ; button pressed or masked, or scan is off; 
                          M         ; turn off until the host computer
                          M         ; stops the scan and awards the winner
                          M         ;
  00000001                M LLIM_LTN SET    1
                          M         WHILE LLIM_LTN > 0
  00000000                M LLIM_LTN --
                          M          SET_SSR_OFF 3
                          M          SET_SSR_VALUE 3,   0
0003C4 0104               M         BANKSEL SSR_DATA_BANK
0003C6 0E00               M          MOVLW  0
0003C8 6F00               M          MOVWF  SSR_00_VALUE+3,   BANKED
0003CA 6B00               M          CLRF   SSR_00_STEP+3,   BANKED
0003CC 6B00               M          CLRF   SSR_00_SPEED+3,   BANKED
0003CE 6B00               M          CLRF   SSR_00_COUNTER+3,   BANKED
0003D0 6B00               M          CLRF   SSR_00_FLAGS+3,   BANKED
                          M         ENDW
                          M 
0003D2                    M LLIM_END_3:
0003D2 010C               M         BANKSEL QUIZSHOW_DATA
  00000004                M LLIM_N  ++
0003D4 D???               M         BRA     SCN_DB_DONE_1
                          M 
0003D6                    M SCN_DB_DOWN_1:
                          M         ;
                          M         ; button senses as "down". fill debounce counter if possible
                          M         ;
0003D6 010C               M         BANKSEL QUIZSHOW_DATA
0003D8 3F00               M         INCFSZ  BTN_X0_DEB_TMR+1,           F, BANKED
0003DA D???               M         BRA     SCN_DB_DONE_1
                          M         ;
                          M         ; counter was full (since we overflowed it to 0 again). so
                          M         ; the button is officially "down".  Put the counter back
                          M         ; to 255 and proceed with what it means for the button to be
                          M         ; officially down.
                          M         ;
0003DC 6900               M         SETF    BTN_X0_DEB_TMR+1,           BANKED
0003DE B500               M         BTFSC   BTN_X0_FLAGS+1,           BTN_FLG_LOCKED, BANKED        ; is it locked?
0003E0 D???               M         BRA     SCN_DB_RST_LCK_1                                ; stay locked longer
0003E2 B700               M         BTFSC   BTN_X0_FLAGS+1,           BTN_FLG_ACTIVE, BANKED        ; if we already saw the button p
                            ress
0003E4 D???               M         BRA     SCN_DB_DONE_1                                   ;   then we don't need to do anything mo
                            re
                          M         ;
                          M         ; We didn't know the button was down yet. Let's see what
                          M         ; that changes...
                          M         ;
0003E6 8700               M         BSF     BTN_X0_FLAGS+1,           BTN_FLG_ACTIVE, BANKED        ; mark as "down"
0003E8 B300               M         BTFSC   BTN_X0_FLAGS+1,           BTN_FLG_MASKED, BANKED        ; is it masked?
0003EA D???               M         BRA     SCN_DB_DONE_1                                   ; then ignore it
0003EC B100               M         BTFSC   BTN_X0_FLAGS+1,           BTN_FLG_PRESSED, BANKED       ; already noted?
0003EE D???               M         BRA     SCN_DB_DONE_1                                   ; then we're already done
0003F0 A000               M         BTFSS   QUIZSHOW_FLAGS, QS_FLAG_SCANNING, ACCESS        ; legal to press?
0003F2 D???               M         BRA     SCN_DB_RST_LCK_1                                ; if not, lock out!
                          M         ;
                          M         ; The button was pressed legally and this is the first time we
MPASM 5.66              ../QUIZSHOW_MAIN.ASM   3-1-2017  12:21:15         PAGE 33


LOC  OBJECT CODE     LINE SOURCE TEXT
  VALUE

                          M         ; noticed it. Record it as the official press for this button.
                          M         ;
0003F4 8100               M         BSF     BTN_X0_FLAGS+1,           BTN_FLG_PRESSED, BANKED
0003F6 9EF2               M         BCF     INTCON, 7, ACCESS                               ; disable interrupts
0003F8 9CF2               M         BCF     INTCON, 6, ACCESS                               ; disable interrupts
0003FA C??? F???          M         MOVFF   QS_BTN_TMR_U, BTN_X0_TIME_U+1
0003FE C??? F???          M         MOVFF   QS_BTN_TMR_T, BTN_X0_TIME_T+1
000402 CFCE F???          M         MOVFF   TMR1L, BTN_X0_TIME_L+1
000406 CFCF F???          M         MOVFF   TMR1H, BTN_X0_TIME_H+1
00040A 8EF2               M         BSF     INTCON, 7, ACCESS                               ; enable interrupts
00040C 8CF2               M         BSF     INTCON, 6, ACCESS                               ; enable interrupts
                          M         LOCAL_LIGHT_INDICATOR BTN_IDX_L0, CHAN_L0R, 1, CHAN_L0R
00040E 010C               M         BANKSEL QUIZSHOW_DATA
000410 A500               M         BTFSS   BTN_X0_FLAGS+1,           BTN_FLG_LOCKED, BANKED
000412 D???               M         BRA     LLIM_NOT_LOCKED_4
000414 B900               M         BTFSC   BTN_X0_FLAGS+1,           BTN_FLG_LCK_ACK, BANKED
000416 D???               M         BRA     LLIM_NOT_LOCKED_4
                          M         ;
                          M         ; light up for locked mode for the first time
                          M         ;
000418 8900               M         BSF     BTN_X0_FLAGS+1,           BTN_FLG_LCK_ACK, BANKED       ; don't do it again
  00000001                M LLIM_LTN SET    1
                          M         WHILE LLIM_LTN > 0
  00000000                M LLIM_LTN --
                          M          SET_SSR_OFF 3
                          M          SET_SSR_VALUE 3,   0
00041A 0104               M         BANKSEL SSR_DATA_BANK
00041C 0E00               M          MOVLW  0
00041E 6F00               M          MOVWF  SSR_00_VALUE+3,   BANKED
000420 6B00               M          CLRF   SSR_00_STEP+3,   BANKED
000422 6B00               M          CLRF   SSR_00_SPEED+3,   BANKED
000424 6B00               M          CLRF   SSR_00_COUNTER+3,   BANKED
000426 6B00               M          CLRF   SSR_00_FLAGS+3,   BANKED
                          M         ENDW
                          M         SET_SSR_RAPID_FADE CHAN_L0R
                          M          SET_SSR_PATTERN CHAN_L0R, 0, 4, 1, BIT_FADE_UP|BIT_FADE_CYCLE
000428 0104               M         BANKSEL SSR_DATA_BANK
00042A 0E00               M          MOVLW  0
00042C 6F00               M          MOVWF  SSR_00_VALUE+CHAN_L0R, BANKED
00042E 0E04               M          MOVLW  4
000430 6F00               M          MOVWF  SSR_00_STEP+CHAN_L0R, BANKED
000432 0E01               M          MOVLW  1
000434 6F00               M          MOVWF  SSR_00_SPEED+CHAN_L0R, BANKED
000436 6F00               M          MOVWF  SSR_00_COUNTER+CHAN_L0R, BANKED
000438 0EA0               M          MOVLW  BIT_FADE_UP|BIT_FADE_CYCLE
00043A 6F00               M          MOVWF  SSR_00_FLAGS+CHAN_L0R, BANKED
00043C D???               M         BRA     LLIM_END_4
                          M 
00043E                    M LLIM_NOT_LOCKED_4:
00043E 010C               M         BANKSEL QUIZSHOW_DATA
000440 B300               M         BTFSC   BTN_X0_FLAGS+1,           BTN_FLG_MASKED, BANKED
000442 D???               M         BRA     LLIM_OFF_4
000444 B100               M         BTFSC   BTN_X0_FLAGS+1,           BTN_FLG_PRESSED, BANKED
000446 D???               M         BRA     LLIM_OFF_4
000448 A000               M         BTFSS   QUIZSHOW_FLAGS, QS_FLAG_SCANNING, ACCESS
00044A D???               M         BRA     LLIM_OFF_4
                          M         ;
                          M         ; scanning and not pressed or masked? light up fully
                          M         ;
  00000001                M LLIM_LTN SET    1
                          M         WHILE LLIM_LTN > 0
  00000000                M LLIM_LTN --
                          M          SET_SSR_STEADY 3
                          M          SET_SSR_VALUE 3,   255
00044C 0104               M         BANKSEL SSR_DATA_BANK
00044E 0EFF               M          MOVLW  255
000450 6F00               M          MOVWF  SSR_00_VALUE+3,   BANKED
000452 6B00               M          CLRF   SSR_00_STEP+3,   BANKED
000454 6B00               M          CLRF   SSR_00_SPEED+3,   BANKED
000456 6B00               M          CLRF   SSR_00_COUNTER+3,   BANKED
000458 6B00               M          CLRF   SSR_00_FLAGS+3,   BANKED
                          M         ENDW
00045A D???               M         BRA     LLIM_END_4
                          M         
00045C                    M LLIM_OFF_4:
                          M         ;
                          M         ; button pressed or masked, or scan is off; 
                          M         ; turn off until the host computer
                          M         ; stops the scan and awards the winner
                          M         ;
MPASM 5.66              ../QUIZSHOW_MAIN.ASM   3-1-2017  12:21:15         PAGE 34


LOC  OBJECT CODE     LINE SOURCE TEXT
  VALUE

  00000001                M LLIM_LTN SET    1
                          M         WHILE LLIM_LTN > 0
  00000000                M LLIM_LTN --
                          M          SET_SSR_OFF 3
                          M          SET_SSR_VALUE 3,   0
00045C 0104               M         BANKSEL SSR_DATA_BANK
00045E 0E00               M          MOVLW  0
000460 6F00               M          MOVWF  SSR_00_VALUE+3,   BANKED
000462 6B00               M          CLRF   SSR_00_STEP+3,   BANKED
000464 6B00               M          CLRF   SSR_00_SPEED+3,   BANKED
000466 6B00               M          CLRF   SSR_00_COUNTER+3,   BANKED
000468 6B00               M          CLRF   SSR_00_FLAGS+3,   BANKED
                          M         ENDW
                          M 
00046A                    M LLIM_END_4:
00046A 010C               M         BANKSEL QUIZSHOW_DATA
  00000005                M LLIM_N  ++
                          M 
00046C                    M SCN_DB_DONE_1:
                          M         ;
                          M         ; We're done with the button debouncing operations.
                          M         ;
                          M         ; If we're processing the 120Hz cleanup operations, do them now
                          M         ; for this button.
                          M         ;
00046C A400               M         BTFSS   QUIZSHOW_FLAGS, QS_FLAG_DOING120, ACCESS
00046E D???               M         BRA     SCN_DB_END_1
                          M         ;
                          M         ; If the button is locked out, decrement its timer. If it reaches
                          M         ; zero, we can release the lock now.
                          M         ;
000470 010C               M         BANKSEL QUIZSHOW_DATA
000472 B500               M         BTFSC   BTN_X0_FLAGS+1,           BTN_FLG_LOCKED, BANKED
000474 2F00               M         DECFSZ  BTN_X0_LOCKTMR+1,           F, BANKED
000476 D???               M         BRA     SCN_DB_END_1
000478 9500               M         BCF     BTN_X0_FLAGS+1,           BTN_FLG_LOCKED, BANKED        ; release the lock
00047A 9900               M         BCF     BTN_X0_FLAGS+1,           BTN_FLG_LCK_ACK, BANKED
                          M         LOCAL_LIGHT_INDICATOR BTN_IDX_L0, CHAN_L0R, 1, CHAN_L0R
00047C 010C               M         BANKSEL QUIZSHOW_DATA
00047E A500               M         BTFSS   BTN_X0_FLAGS+1,           BTN_FLG_LOCKED, BANKED
000480 D???               M         BRA     LLIM_NOT_LOCKED_5
000482 B900               M         BTFSC   BTN_X0_FLAGS+1,           BTN_FLG_LCK_ACK, BANKED
000484 D???               M         BRA     LLIM_NOT_LOCKED_5
                          M         ;
                          M         ; light up for locked mode for the first time
                          M         ;
000486 8900               M         BSF     BTN_X0_FLAGS+1,           BTN_FLG_LCK_ACK, BANKED       ; don't do it again
  00000001                M LLIM_LTN SET    1
                          M         WHILE LLIM_LTN > 0
  00000000                M LLIM_LTN --
                          M          SET_SSR_OFF 3
                          M          SET_SSR_VALUE 3,   0
000488 0104               M         BANKSEL SSR_DATA_BANK
00048A 0E00               M          MOVLW  0
00048C 6F00               M          MOVWF  SSR_00_VALUE+3,   BANKED
00048E 6B00               M          CLRF   SSR_00_STEP+3,   BANKED
000490 6B00               M          CLRF   SSR_00_SPEED+3,   BANKED
000492 6B00               M          CLRF   SSR_00_COUNTER+3,   BANKED
000494 6B00               M          CLRF   SSR_00_FLAGS+3,   BANKED
                          M         ENDW
                          M         SET_SSR_RAPID_FADE CHAN_L0R
                          M          SET_SSR_PATTERN CHAN_L0R, 0, 4, 1, BIT_FADE_UP|BIT_FADE_CYCLE
000496 0104               M         BANKSEL SSR_DATA_BANK
000498 0E00               M          MOVLW  0
00049A 6F00               M          MOVWF  SSR_00_VALUE+CHAN_L0R, BANKED
00049C 0E04               M          MOVLW  4
00049E 6F00               M          MOVWF  SSR_00_STEP+CHAN_L0R, BANKED
0004A0 0E01               M          MOVLW  1
0004A2 6F00               M          MOVWF  SSR_00_SPEED+CHAN_L0R, BANKED
0004A4 6F00               M          MOVWF  SSR_00_COUNTER+CHAN_L0R, BANKED
0004A6 0EA0               M          MOVLW  BIT_FADE_UP|BIT_FADE_CYCLE
0004A8 6F00               M          MOVWF  SSR_00_FLAGS+CHAN_L0R, BANKED
0004AA D???               M         BRA     LLIM_END_5
                          M 
0004AC                    M LLIM_NOT_LOCKED_5:
0004AC 010C               M         BANKSEL QUIZSHOW_DATA
0004AE B300               M         BTFSC   BTN_X0_FLAGS+1,           BTN_FLG_MASKED, BANKED
0004B0 D???               M         BRA     LLIM_OFF_5
0004B2 B100               M         BTFSC   BTN_X0_FLAGS+1,           BTN_FLG_PRESSED, BANKED
0004B4 D???               M         BRA     LLIM_OFF_5
MPASM 5.66              ../QUIZSHOW_MAIN.ASM   3-1-2017  12:21:15         PAGE 35


LOC  OBJECT CODE     LINE SOURCE TEXT
  VALUE

0004B6 A000               M         BTFSS   QUIZSHOW_FLAGS, QS_FLAG_SCANNING, ACCESS
0004B8 D???               M         BRA     LLIM_OFF_5
                          M         ;
                          M         ; scanning and not pressed or masked? light up fully
                          M         ;
  00000001                M LLIM_LTN SET    1
                          M         WHILE LLIM_LTN > 0
  00000000                M LLIM_LTN --
                          M          SET_SSR_STEADY 3
                          M          SET_SSR_VALUE 3,   255
0004BA 0104               M         BANKSEL SSR_DATA_BANK
0004BC 0EFF               M          MOVLW  255
0004BE 6F00               M          MOVWF  SSR_00_VALUE+3,   BANKED
0004C0 6B00               M          CLRF   SSR_00_STEP+3,   BANKED
0004C2 6B00               M          CLRF   SSR_00_SPEED+3,   BANKED
0004C4 6B00               M          CLRF   SSR_00_COUNTER+3,   BANKED
0004C6 6B00               M          CLRF   SSR_00_FLAGS+3,   BANKED
                          M         ENDW
0004C8 D???               M         BRA     LLIM_END_5
                          M         
0004CA                    M LLIM_OFF_5:
                          M         ;
                          M         ; button pressed or masked, or scan is off; 
                          M         ; turn off until the host computer
                          M         ; stops the scan and awards the winner
                          M         ;
  00000001                M LLIM_LTN SET    1
                          M         WHILE LLIM_LTN > 0
  00000000                M LLIM_LTN --
                          M          SET_SSR_OFF 3
                          M          SET_SSR_VALUE 3,   0
0004CA 0104               M         BANKSEL SSR_DATA_BANK
0004CC 0E00               M          MOVLW  0
0004CE 6F00               M          MOVWF  SSR_00_VALUE+3,   BANKED
0004D0 6B00               M          CLRF   SSR_00_STEP+3,   BANKED
0004D2 6B00               M          CLRF   SSR_00_SPEED+3,   BANKED
0004D4 6B00               M          CLRF   SSR_00_COUNTER+3,   BANKED
0004D6 6B00               M          CLRF   SSR_00_FLAGS+3,   BANKED
                          M         ENDW
                          M 
0004D8                    M LLIM_END_5:
0004D8 010C               M         BANKSEL QUIZSHOW_DATA
  00000006                M LLIM_N  ++
                          M 
0004DA                    M SCN_DB_END_1:
  00000002                M SCN_DBN ++
                      01009           SCAN_DEBOUNCE BTN_IDX_X1, PORT_X1, BIT_X1, CHAN_X1R, 3, CHAN_X1R
0004DA 010C               M         BANKSEL QUIZSHOW_DATA
0004DC 0004               M         CLRWDT
                          M         ;
                          M         ; Sense button state: 
                          M         ;  0=pressed
                          M         ;  1=released
                          M         ;
0004DE A280               M         BTFSS   3968,         BIT_X1,  ACCESS
0004E0 D???               M         BRA     SCN_DB_DOWN_2           ; pressed? branch
                          M         ;
                          M         ; button senses as "up". drain debounce counter if possible
                          M         ;
0004E2 6700               M         TSTFSZ  BTN_X0_DEB_TMR+2,           BANKED
0004E4 D???               M         BRA     SCN_DB_DRAIN_2
                          M         ;
                          M         ; The button is officially "up".  If this is news, respond
                          M         ; to this change now.  All we need to do is note the status
                          M         ; change. Everything else happens later when the code notices
                          M         ; this flag state.
                          M         ;
0004E6 9700               M         BCF     BTN_X0_FLAGS+2,           BTN_FLG_ACTIVE, BANKED
0004E8 D???               M         BRA     SCN_DB_DONE_2
                          M 
0004EA                    M SCN_DB_DRAIN_2:
                          M         ;
                          M         ; Drain the button debounce counter
                          M         ;
0004EA 010C               M         BANKSEL QUIZSHOW_DATA
0004EC 0700               M         DECF    BTN_X0_DEB_TMR+2,           F, BANKED
0004EE D???               M         BRA     SCN_DB_DONE_2
                          M 
0004F0                    M SCN_DB_RST_LCK_2:
                          M         ;
MPASM 5.66              ../QUIZSHOW_MAIN.ASM   3-1-2017  12:21:15         PAGE 36


LOC  OBJECT CODE     LINE SOURCE TEXT
  VALUE

                          M         ; The button needs to be locked out!
                          M         ; We found them pushing the button when they weren't supposed to.
                          M         ;
0004F0 010C               M         BANKSEL QUIZSHOW_DATA
0004F2 8500               M         BSF     BTN_X0_FLAGS+2,           BTN_FLG_LOCKED, BANKED
0004F4 C??? F???          M         MOVFF   QUIZSHOW_LCKTM, BTN_X0_LOCKTMR+2
                          M         LOCAL_LIGHT_INDICATOR BTN_IDX_X1, CHAN_X1R, 3, CHAN_X1R
0004F8 010C               M         BANKSEL QUIZSHOW_DATA
0004FA A500               M         BTFSS   BTN_X0_FLAGS+2,           BTN_FLG_LOCKED, BANKED
0004FC D???               M         BRA     LLIM_NOT_LOCKED_6
0004FE B900               M         BTFSC   BTN_X0_FLAGS+2,           BTN_FLG_LCK_ACK, BANKED
000500 D???               M         BRA     LLIM_NOT_LOCKED_6
                          M         ;
                          M         ; light up for locked mode for the first time
                          M         ;
000502 8900               M         BSF     BTN_X0_FLAGS+2,           BTN_FLG_LCK_ACK, BANKED       ; don't do it again
  00000003                M LLIM_LTN SET    3
                          M         WHILE LLIM_LTN > 0
  00000002                M LLIM_LTN --
                          M          SET_SSR_OFF 6
                          M          SET_SSR_VALUE 6,   0
000504 0104               M         BANKSEL SSR_DATA_BANK
000506 0E00               M          MOVLW  0
000508 6F00               M          MOVWF  SSR_00_VALUE+6,   BANKED
00050A 6B00               M          CLRF   SSR_00_STEP+6,   BANKED
00050C 6B00               M          CLRF   SSR_00_SPEED+6,   BANKED
00050E 6B00               M          CLRF   SSR_00_COUNTER+6,   BANKED
000510 6B00               M          CLRF   SSR_00_FLAGS+6,   BANKED
  00000001                M LLIM_LTN --
                          M          SET_SSR_OFF 5
                          M          SET_SSR_VALUE 5,   0
000512 0104               M         BANKSEL SSR_DATA_BANK
000514 0E00               M          MOVLW  0
000516 6F00               M          MOVWF  SSR_00_VALUE+5,   BANKED
000518 6B00               M          CLRF   SSR_00_STEP+5,   BANKED
00051A 6B00               M          CLRF   SSR_00_SPEED+5,   BANKED
00051C 6B00               M          CLRF   SSR_00_COUNTER+5,   BANKED
00051E 6B00               M          CLRF   SSR_00_FLAGS+5,   BANKED
  00000000                M LLIM_LTN --
                          M          SET_SSR_OFF 4
                          M          SET_SSR_VALUE 4,   0
000520 0104               M         BANKSEL SSR_DATA_BANK
000522 0E00               M          MOVLW  0
000524 6F00               M          MOVWF  SSR_00_VALUE+4,   BANKED
000526 6B00               M          CLRF   SSR_00_STEP+4,   BANKED
000528 6B00               M          CLRF   SSR_00_SPEED+4,   BANKED
00052A 6B00               M          CLRF   SSR_00_COUNTER+4,   BANKED
00052C 6B00               M          CLRF   SSR_00_FLAGS+4,   BANKED
                          M         ENDW
                          M         SET_SSR_RAPID_FADE CHAN_X1R
                          M          SET_SSR_PATTERN CHAN_X1R, 0, 4, 1, BIT_FADE_UP|BIT_FADE_CYCLE
00052E 0104               M         BANKSEL SSR_DATA_BANK
000530 0E00               M          MOVLW  0
000532 6F00               M          MOVWF  SSR_00_VALUE+CHAN_X1R, BANKED
000534 0E04               M          MOVLW  4
000536 6F00               M          MOVWF  SSR_00_STEP+CHAN_X1R, BANKED
000538 0E01               M          MOVLW  1
00053A 6F00               M          MOVWF  SSR_00_SPEED+CHAN_X1R, BANKED
00053C 6F00               M          MOVWF  SSR_00_COUNTER+CHAN_X1R, BANKED
00053E 0EA0               M          MOVLW  BIT_FADE_UP|BIT_FADE_CYCLE
000540 6F00               M          MOVWF  SSR_00_FLAGS+CHAN_X1R, BANKED
000542 D???               M         BRA     LLIM_END_6
                          M 
000544                    M LLIM_NOT_LOCKED_6:
000544 010C               M         BANKSEL QUIZSHOW_DATA
000546 B300               M         BTFSC   BTN_X0_FLAGS+2,           BTN_FLG_MASKED, BANKED
000548 D???               M         BRA     LLIM_OFF_6
00054A B100               M         BTFSC   BTN_X0_FLAGS+2,           BTN_FLG_PRESSED, BANKED
00054C D???               M         BRA     LLIM_OFF_6
00054E A000               M         BTFSS   QUIZSHOW_FLAGS, QS_FLAG_SCANNING, ACCESS
000550 D???               M         BRA     LLIM_OFF_6
                          M         ;
                          M         ; scanning and not pressed or masked? light up fully
                          M         ;
  00000003                M LLIM_LTN SET    3
                          M         WHILE LLIM_LTN > 0
  00000002                M LLIM_LTN --
                          M          SET_SSR_STEADY 6
                          M          SET_SSR_VALUE 6,   255
000552 0104               M         BANKSEL SSR_DATA_BANK
MPASM 5.66              ../QUIZSHOW_MAIN.ASM   3-1-2017  12:21:15         PAGE 37


LOC  OBJECT CODE     LINE SOURCE TEXT
  VALUE

000554 0EFF               M          MOVLW  255
000556 6F00               M          MOVWF  SSR_00_VALUE+6,   BANKED
000558 6B00               M          CLRF   SSR_00_STEP+6,   BANKED
00055A 6B00               M          CLRF   SSR_00_SPEED+6,   BANKED
00055C 6B00               M          CLRF   SSR_00_COUNTER+6,   BANKED
00055E 6B00               M          CLRF   SSR_00_FLAGS+6,   BANKED
  00000001                M LLIM_LTN --
                          M          SET_SSR_STEADY 5
                          M          SET_SSR_VALUE 5,   255
000560 0104               M         BANKSEL SSR_DATA_BANK
000562 0EFF               M          MOVLW  255
000564 6F00               M          MOVWF  SSR_00_VALUE+5,   BANKED
000566 6B00               M          CLRF   SSR_00_STEP+5,   BANKED
000568 6B00               M          CLRF   SSR_00_SPEED+5,   BANKED
00056A 6B00               M          CLRF   SSR_00_COUNTER+5,   BANKED
00056C 6B00               M          CLRF   SSR_00_FLAGS+5,   BANKED
  00000000                M LLIM_LTN --
                          M          SET_SSR_STEADY 4
                          M          SET_SSR_VALUE 4,   255
00056E 0104               M         BANKSEL SSR_DATA_BANK
000570 0EFF               M          MOVLW  255
000572 6F00               M          MOVWF  SSR_00_VALUE+4,   BANKED
000574 6B00               M          CLRF   SSR_00_STEP+4,   BANKED
000576 6B00               M          CLRF   SSR_00_SPEED+4,   BANKED
000578 6B00               M          CLRF   SSR_00_COUNTER+4,   BANKED
00057A 6B00               M          CLRF   SSR_00_FLAGS+4,   BANKED
                          M         ENDW
00057C D???               M         BRA     LLIM_END_6
                          M         
00057E                    M LLIM_OFF_6:
                          M         ;
                          M         ; button pressed or masked, or scan is off; 
                          M         ; turn off until the host computer
                          M         ; stops the scan and awards the winner
                          M         ;
  00000003                M LLIM_LTN SET    3
                          M         WHILE LLIM_LTN > 0
  00000002                M LLIM_LTN --
                          M          SET_SSR_OFF 6
                          M          SET_SSR_VALUE 6,   0
00057E 0104               M         BANKSEL SSR_DATA_BANK
000580 0E00               M          MOVLW  0
000582 6F00               M          MOVWF  SSR_00_VALUE+6,   BANKED
000584 6B00               M          CLRF   SSR_00_STEP+6,   BANKED
000586 6B00               M          CLRF   SSR_00_SPEED+6,   BANKED
000588 6B00               M          CLRF   SSR_00_COUNTER+6,   BANKED
00058A 6B00               M          CLRF   SSR_00_FLAGS+6,   BANKED
  00000001                M LLIM_LTN --
                          M          SET_SSR_OFF 5
                          M          SET_SSR_VALUE 5,   0
00058C 0104               M         BANKSEL SSR_DATA_BANK
00058E 0E00               M          MOVLW  0
000590 6F00               M          MOVWF  SSR_00_VALUE+5,   BANKED
000592 6B00               M          CLRF   SSR_00_STEP+5,   BANKED
000594 6B00               M          CLRF   SSR_00_SPEED+5,   BANKED
000596 6B00               M          CLRF   SSR_00_COUNTER+5,   BANKED
000598 6B00               M          CLRF   SSR_00_FLAGS+5,   BANKED
  00000000                M LLIM_LTN --
                          M          SET_SSR_OFF 4
                          M          SET_SSR_VALUE 4,   0
00059A 0104               M         BANKSEL SSR_DATA_BANK
00059C 0E00               M          MOVLW  0
00059E 6F00               M          MOVWF  SSR_00_VALUE+4,   BANKED
0005A0 6B00               M          CLRF   SSR_00_STEP+4,   BANKED
0005A2 6B00               M          CLRF   SSR_00_SPEED+4,   BANKED
0005A4 6B00               M          CLRF   SSR_00_COUNTER+4,   BANKED
0005A6 6B00               M          CLRF   SSR_00_FLAGS+4,   BANKED
                          M         ENDW
                          M 
0005A8                    M LLIM_END_6:
0005A8 010C               M         BANKSEL QUIZSHOW_DATA
  00000007                M LLIM_N  ++
0005AA D???               M         BRA     SCN_DB_DONE_2
                          M 
0005AC                    M SCN_DB_DOWN_2:
                          M         ;
                          M         ; button senses as "down". fill debounce counter if possible
                          M         ;
0005AC 010C               M         BANKSEL QUIZSHOW_DATA
0005AE 3F00               M         INCFSZ  BTN_X0_DEB_TMR+2,           F, BANKED
MPASM 5.66              ../QUIZSHOW_MAIN.ASM   3-1-2017  12:21:15         PAGE 38


LOC  OBJECT CODE     LINE SOURCE TEXT
  VALUE

0005B0 D???               M         BRA     SCN_DB_DONE_2
                          M         ;
                          M         ; counter was full (since we overflowed it to 0 again). so
                          M         ; the button is officially "down".  Put the counter back
                          M         ; to 255 and proceed with what it means for the button to be
                          M         ; officially down.
                          M         ;
0005B2 6900               M         SETF    BTN_X0_DEB_TMR+2,           BANKED
0005B4 B500               M         BTFSC   BTN_X0_FLAGS+2,           BTN_FLG_LOCKED, BANKED        ; is it locked?
0005B6 D???               M         BRA     SCN_DB_RST_LCK_2                                ; stay locked longer
0005B8 B700               M         BTFSC   BTN_X0_FLAGS+2,           BTN_FLG_ACTIVE, BANKED        ; if we already saw the button p
                            ress
0005BA D???               M         BRA     SCN_DB_DONE_2                                   ;   then we don't need to do anything mo
                            re
                          M         ;
                          M         ; We didn't know the button was down yet. Let's see what
                          M         ; that changes...
                          M         ;
0005BC 8700               M         BSF     BTN_X0_FLAGS+2,           BTN_FLG_ACTIVE, BANKED        ; mark as "down"
0005BE B300               M         BTFSC   BTN_X0_FLAGS+2,           BTN_FLG_MASKED, BANKED        ; is it masked?
0005C0 D???               M         BRA     SCN_DB_DONE_2                                   ; then ignore it
0005C2 B100               M         BTFSC   BTN_X0_FLAGS+2,           BTN_FLG_PRESSED, BANKED       ; already noted?
0005C4 D???               M         BRA     SCN_DB_DONE_2                                   ; then we're already done
0005C6 A000               M         BTFSS   QUIZSHOW_FLAGS, QS_FLAG_SCANNING, ACCESS        ; legal to press?
0005C8 D???               M         BRA     SCN_DB_RST_LCK_2                                ; if not, lock out!
                          M         ;
                          M         ; The button was pressed legally and this is the first time we
                          M         ; noticed it. Record it as the official press for this button.
                          M         ;
0005CA 8100               M         BSF     BTN_X0_FLAGS+2,           BTN_FLG_PRESSED, BANKED
0005CC 9EF2               M         BCF     INTCON, 7, ACCESS                               ; disable interrupts
0005CE 9CF2               M         BCF     INTCON, 6, ACCESS                               ; disable interrupts
0005D0 C??? F???          M         MOVFF   QS_BTN_TMR_U, BTN_X0_TIME_U+2
0005D4 C??? F???          M         MOVFF   QS_BTN_TMR_T, BTN_X0_TIME_T+2
0005D8 CFCE F???          M         MOVFF   TMR1L, BTN_X0_TIME_L+2
0005DC CFCF F???          M         MOVFF   TMR1H, BTN_X0_TIME_H+2
0005E0 8EF2               M         BSF     INTCON, 7, ACCESS                               ; enable interrupts
0005E2 8CF2               M         BSF     INTCON, 6, ACCESS                               ; enable interrupts
                          M         LOCAL_LIGHT_INDICATOR BTN_IDX_X1, CHAN_X1R, 3, CHAN_X1R
0005E4 010C               M         BANKSEL QUIZSHOW_DATA
0005E6 A500               M         BTFSS   BTN_X0_FLAGS+2,           BTN_FLG_LOCKED, BANKED
0005E8 D???               M         BRA     LLIM_NOT_LOCKED_7
0005EA B900               M         BTFSC   BTN_X0_FLAGS+2,           BTN_FLG_LCK_ACK, BANKED
0005EC D???               M         BRA     LLIM_NOT_LOCKED_7
                          M         ;
                          M         ; light up for locked mode for the first time
                          M         ;
0005EE 8900               M         BSF     BTN_X0_FLAGS+2,           BTN_FLG_LCK_ACK, BANKED       ; don't do it again
  00000003                M LLIM_LTN SET    3
                          M         WHILE LLIM_LTN > 0
  00000002                M LLIM_LTN --
                          M          SET_SSR_OFF 6
                          M          SET_SSR_VALUE 6,   0
0005F0 0104               M         BANKSEL SSR_DATA_BANK
0005F2 0E00               M          MOVLW  0
0005F4 6F00               M          MOVWF  SSR_00_VALUE+6,   BANKED
0005F6 6B00               M          CLRF   SSR_00_STEP+6,   BANKED
0005F8 6B00               M          CLRF   SSR_00_SPEED+6,   BANKED
0005FA 6B00               M          CLRF   SSR_00_COUNTER+6,   BANKED
0005FC 6B00               M          CLRF   SSR_00_FLAGS+6,   BANKED
  00000001                M LLIM_LTN --
                          M          SET_SSR_OFF 5
                          M          SET_SSR_VALUE 5,   0
0005FE 0104               M         BANKSEL SSR_DATA_BANK
000600 0E00               M          MOVLW  0
000602 6F00               M          MOVWF  SSR_00_VALUE+5,   BANKED
000604 6B00               M          CLRF   SSR_00_STEP+5,   BANKED
000606 6B00               M          CLRF   SSR_00_SPEED+5,   BANKED
000608 6B00               M          CLRF   SSR_00_COUNTER+5,   BANKED
00060A 6B00               M          CLRF   SSR_00_FLAGS+5,   BANKED
  00000000                M LLIM_LTN --
                          M          SET_SSR_OFF 4
                          M          SET_SSR_VALUE 4,   0
00060C 0104               M         BANKSEL SSR_DATA_BANK
00060E 0E00               M          MOVLW  0
000610 6F00               M          MOVWF  SSR_00_VALUE+4,   BANKED
000612 6B00               M          CLRF   SSR_00_STEP+4,   BANKED
000614 6B00               M          CLRF   SSR_00_SPEED+4,   BANKED
000616 6B00               M          CLRF   SSR_00_COUNTER+4,   BANKED
000618 6B00               M          CLRF   SSR_00_FLAGS+4,   BANKED
MPASM 5.66              ../QUIZSHOW_MAIN.ASM   3-1-2017  12:21:15         PAGE 39


LOC  OBJECT CODE     LINE SOURCE TEXT
  VALUE

                          M         ENDW
                          M         SET_SSR_RAPID_FADE CHAN_X1R
                          M          SET_SSR_PATTERN CHAN_X1R, 0, 4, 1, BIT_FADE_UP|BIT_FADE_CYCLE
00061A 0104               M         BANKSEL SSR_DATA_BANK
00061C 0E00               M          MOVLW  0
00061E 6F00               M          MOVWF  SSR_00_VALUE+CHAN_X1R, BANKED
000620 0E04               M          MOVLW  4
000622 6F00               M          MOVWF  SSR_00_STEP+CHAN_X1R, BANKED
000624 0E01               M          MOVLW  1
000626 6F00               M          MOVWF  SSR_00_SPEED+CHAN_X1R, BANKED
000628 6F00               M          MOVWF  SSR_00_COUNTER+CHAN_X1R, BANKED
00062A 0EA0               M          MOVLW  BIT_FADE_UP|BIT_FADE_CYCLE
00062C 6F00               M          MOVWF  SSR_00_FLAGS+CHAN_X1R, BANKED
00062E D???               M         BRA     LLIM_END_7
                          M 
000630                    M LLIM_NOT_LOCKED_7:
000630 010C               M         BANKSEL QUIZSHOW_DATA
000632 B300               M         BTFSC   BTN_X0_FLAGS+2,           BTN_FLG_MASKED, BANKED
000634 D???               M         BRA     LLIM_OFF_7
000636 B100               M         BTFSC   BTN_X0_FLAGS+2,           BTN_FLG_PRESSED, BANKED
000638 D???               M         BRA     LLIM_OFF_7
00063A A000               M         BTFSS   QUIZSHOW_FLAGS, QS_FLAG_SCANNING, ACCESS
00063C D???               M         BRA     LLIM_OFF_7
                          M         ;
                          M         ; scanning and not pressed or masked? light up fully
                          M         ;
  00000003                M LLIM_LTN SET    3
                          M         WHILE LLIM_LTN > 0
  00000002                M LLIM_LTN --
                          M          SET_SSR_STEADY 6
                          M          SET_SSR_VALUE 6,   255
00063E 0104               M         BANKSEL SSR_DATA_BANK
000640 0EFF               M          MOVLW  255
000642 6F00               M          MOVWF  SSR_00_VALUE+6,   BANKED
000644 6B00               M          CLRF   SSR_00_STEP+6,   BANKED
000646 6B00               M          CLRF   SSR_00_SPEED+6,   BANKED
000648 6B00               M          CLRF   SSR_00_COUNTER+6,   BANKED
00064A 6B00               M          CLRF   SSR_00_FLAGS+6,   BANKED
  00000001                M LLIM_LTN --
                          M          SET_SSR_STEADY 5
                          M          SET_SSR_VALUE 5,   255
00064C 0104               M         BANKSEL SSR_DATA_BANK
00064E 0EFF               M          MOVLW  255
000650 6F00               M          MOVWF  SSR_00_VALUE+5,   BANKED
000652 6B00               M          CLRF   SSR_00_STEP+5,   BANKED
000654 6B00               M          CLRF   SSR_00_SPEED+5,   BANKED
000656 6B00               M          CLRF   SSR_00_COUNTER+5,   BANKED
000658 6B00               M          CLRF   SSR_00_FLAGS+5,   BANKED
  00000000                M LLIM_LTN --
                          M          SET_SSR_STEADY 4
                          M          SET_SSR_VALUE 4,   255
00065A 0104               M         BANKSEL SSR_DATA_BANK
00065C 0EFF               M          MOVLW  255
00065E 6F00               M          MOVWF  SSR_00_VALUE+4,   BANKED
000660 6B00               M          CLRF   SSR_00_STEP+4,   BANKED
000662 6B00               M          CLRF   SSR_00_SPEED+4,   BANKED
000664 6B00               M          CLRF   SSR_00_COUNTER+4,   BANKED
000666 6B00               M          CLRF   SSR_00_FLAGS+4,   BANKED
                          M         ENDW
000668 D???               M         BRA     LLIM_END_7
                          M         
00066A                    M LLIM_OFF_7:
                          M         ;
                          M         ; button pressed or masked, or scan is off; 
                          M         ; turn off until the host computer
                          M         ; stops the scan and awards the winner
                          M         ;
  00000003                M LLIM_LTN SET    3
                          M         WHILE LLIM_LTN > 0
  00000002                M LLIM_LTN --
                          M          SET_SSR_OFF 6
                          M          SET_SSR_VALUE 6,   0
00066A 0104               M         BANKSEL SSR_DATA_BANK
00066C 0E00               M          MOVLW  0
00066E 6F00               M          MOVWF  SSR_00_VALUE+6,   BANKED
000670 6B00               M          CLRF   SSR_00_STEP+6,   BANKED
000672 6B00               M          CLRF   SSR_00_SPEED+6,   BANKED
000674 6B00               M          CLRF   SSR_00_COUNTER+6,   BANKED
000676 6B00               M          CLRF   SSR_00_FLAGS+6,   BANKED
  00000001                M LLIM_LTN --
MPASM 5.66              ../QUIZSHOW_MAIN.ASM   3-1-2017  12:21:15         PAGE 40


LOC  OBJECT CODE     LINE SOURCE TEXT
  VALUE

                          M          SET_SSR_OFF 5
                          M          SET_SSR_VALUE 5,   0
000678 0104               M         BANKSEL SSR_DATA_BANK
00067A 0E00               M          MOVLW  0
00067C 6F00               M          MOVWF  SSR_00_VALUE+5,   BANKED
00067E 6B00               M          CLRF   SSR_00_STEP+5,   BANKED
000680 6B00               M          CLRF   SSR_00_SPEED+5,   BANKED
000682 6B00               M          CLRF   SSR_00_COUNTER+5,   BANKED
000684 6B00               M          CLRF   SSR_00_FLAGS+5,   BANKED
  00000000                M LLIM_LTN --
                          M          SET_SSR_OFF 4
                          M          SET_SSR_VALUE 4,   0
000686 0104               M         BANKSEL SSR_DATA_BANK
000688 0E00               M          MOVLW  0
00068A 6F00               M          MOVWF  SSR_00_VALUE+4,   BANKED
00068C 6B00               M          CLRF   SSR_00_STEP+4,   BANKED
00068E 6B00               M          CLRF   SSR_00_SPEED+4,   BANKED
000690 6B00               M          CLRF   SSR_00_COUNTER+4,   BANKED
000692 6B00               M          CLRF   SSR_00_FLAGS+4,   BANKED
                          M         ENDW
                          M 
000694                    M LLIM_END_7:
000694 010C               M         BANKSEL QUIZSHOW_DATA
  00000008                M LLIM_N  ++
                          M 
000696                    M SCN_DB_DONE_2:
                          M         ;
                          M         ; We're done with the button debouncing operations.
                          M         ;
                          M         ; If we're processing the 120Hz cleanup operations, do them now
                          M         ; for this button.
                          M         ;
000696 A400               M         BTFSS   QUIZSHOW_FLAGS, QS_FLAG_DOING120, ACCESS
000698 D???               M         BRA     SCN_DB_END_2
                          M         ;
                          M         ; If the button is locked out, decrement its timer. If it reaches
                          M         ; zero, we can release the lock now.
                          M         ;
00069A 010C               M         BANKSEL QUIZSHOW_DATA
00069C B500               M         BTFSC   BTN_X0_FLAGS+2,           BTN_FLG_LOCKED, BANKED
00069E 2F00               M         DECFSZ  BTN_X0_LOCKTMR+2,           F, BANKED
0006A0 D???               M         BRA     SCN_DB_END_2
0006A2 9500               M         BCF     BTN_X0_FLAGS+2,           BTN_FLG_LOCKED, BANKED        ; release the lock
0006A4 9900               M         BCF     BTN_X0_FLAGS+2,           BTN_FLG_LCK_ACK, BANKED
                          M         LOCAL_LIGHT_INDICATOR BTN_IDX_X1, CHAN_X1R, 3, CHAN_X1R
0006A6 010C               M         BANKSEL QUIZSHOW_DATA
0006A8 A500               M         BTFSS   BTN_X0_FLAGS+2,           BTN_FLG_LOCKED, BANKED
0006AA D???               M         BRA     LLIM_NOT_LOCKED_8
0006AC B900               M         BTFSC   BTN_X0_FLAGS+2,           BTN_FLG_LCK_ACK, BANKED
0006AE D???               M         BRA     LLIM_NOT_LOCKED_8
                          M         ;
                          M         ; light up for locked mode for the first time
                          M         ;
0006B0 8900               M         BSF     BTN_X0_FLAGS+2,           BTN_FLG_LCK_ACK, BANKED       ; don't do it again
  00000003                M LLIM_LTN SET    3
                          M         WHILE LLIM_LTN > 0
  00000002                M LLIM_LTN --
                          M          SET_SSR_OFF 6
                          M          SET_SSR_VALUE 6,   0
0006B2 0104               M         BANKSEL SSR_DATA_BANK
0006B4 0E00               M          MOVLW  0
0006B6 6F00               M          MOVWF  SSR_00_VALUE+6,   BANKED
0006B8 6B00               M          CLRF   SSR_00_STEP+6,   BANKED
0006BA 6B00               M          CLRF   SSR_00_SPEED+6,   BANKED
0006BC 6B00               M          CLRF   SSR_00_COUNTER+6,   BANKED
0006BE 6B00               M          CLRF   SSR_00_FLAGS+6,   BANKED
  00000001                M LLIM_LTN --
                          M          SET_SSR_OFF 5
                          M          SET_SSR_VALUE 5,   0
0006C0 0104               M         BANKSEL SSR_DATA_BANK
0006C2 0E00               M          MOVLW  0
0006C4 6F00               M          MOVWF  SSR_00_VALUE+5,   BANKED
0006C6 6B00               M          CLRF   SSR_00_STEP+5,   BANKED
0006C8 6B00               M          CLRF   SSR_00_SPEED+5,   BANKED
0006CA 6B00               M          CLRF   SSR_00_COUNTER+5,   BANKED
0006CC 6B00               M          CLRF   SSR_00_FLAGS+5,   BANKED
  00000000                M LLIM_LTN --
                          M          SET_SSR_OFF 4
                          M          SET_SSR_VALUE 4,   0
0006CE 0104               M         BANKSEL SSR_DATA_BANK
MPASM 5.66              ../QUIZSHOW_MAIN.ASM   3-1-2017  12:21:15         PAGE 41


LOC  OBJECT CODE     LINE SOURCE TEXT
  VALUE

0006D0 0E00               M          MOVLW  0
0006D2 6F00               M          MOVWF  SSR_00_VALUE+4,   BANKED
0006D4 6B00               M          CLRF   SSR_00_STEP+4,   BANKED
0006D6 6B00               M          CLRF   SSR_00_SPEED+4,   BANKED
0006D8 6B00               M          CLRF   SSR_00_COUNTER+4,   BANKED
0006DA 6B00               M          CLRF   SSR_00_FLAGS+4,   BANKED
                          M         ENDW
                          M         SET_SSR_RAPID_FADE CHAN_X1R
                          M          SET_SSR_PATTERN CHAN_X1R, 0, 4, 1, BIT_FADE_UP|BIT_FADE_CYCLE
0006DC 0104               M         BANKSEL SSR_DATA_BANK
0006DE 0E00               M          MOVLW  0
0006E0 6F00               M          MOVWF  SSR_00_VALUE+CHAN_X1R, BANKED
0006E2 0E04               M          MOVLW  4
0006E4 6F00               M          MOVWF  SSR_00_STEP+CHAN_X1R, BANKED
0006E6 0E01               M          MOVLW  1
0006E8 6F00               M          MOVWF  SSR_00_SPEED+CHAN_X1R, BANKED
0006EA 6F00               M          MOVWF  SSR_00_COUNTER+CHAN_X1R, BANKED
0006EC 0EA0               M          MOVLW  BIT_FADE_UP|BIT_FADE_CYCLE
0006EE 6F00               M          MOVWF  SSR_00_FLAGS+CHAN_X1R, BANKED
0006F0 D???               M         BRA     LLIM_END_8
                          M 
0006F2                    M LLIM_NOT_LOCKED_8:
0006F2 010C               M         BANKSEL QUIZSHOW_DATA
0006F4 B300               M         BTFSC   BTN_X0_FLAGS+2,           BTN_FLG_MASKED, BANKED
0006F6 D???               M         BRA     LLIM_OFF_8
0006F8 B100               M         BTFSC   BTN_X0_FLAGS+2,           BTN_FLG_PRESSED, BANKED
0006FA D???               M         BRA     LLIM_OFF_8
0006FC A000               M         BTFSS   QUIZSHOW_FLAGS, QS_FLAG_SCANNING, ACCESS
0006FE D???               M         BRA     LLIM_OFF_8
                          M         ;
                          M         ; scanning and not pressed or masked? light up fully
                          M         ;
  00000003                M LLIM_LTN SET    3
                          M         WHILE LLIM_LTN > 0
  00000002                M LLIM_LTN --
                          M          SET_SSR_STEADY 6
                          M          SET_SSR_VALUE 6,   255
000700 0104               M         BANKSEL SSR_DATA_BANK
000702 0EFF               M          MOVLW  255
000704 6F00               M          MOVWF  SSR_00_VALUE+6,   BANKED
000706 6B00               M          CLRF   SSR_00_STEP+6,   BANKED
000708 6B00               M          CLRF   SSR_00_SPEED+6,   BANKED
00070A 6B00               M          CLRF   SSR_00_COUNTER+6,   BANKED
00070C 6B00               M          CLRF   SSR_00_FLAGS+6,   BANKED
  00000001                M LLIM_LTN --
                          M          SET_SSR_STEADY 5
                          M          SET_SSR_VALUE 5,   255
00070E 0104               M         BANKSEL SSR_DATA_BANK
000710 0EFF               M          MOVLW  255
000712 6F00               M          MOVWF  SSR_00_VALUE+5,   BANKED
000714 6B00               M          CLRF   SSR_00_STEP+5,   BANKED
000716 6B00               M          CLRF   SSR_00_SPEED+5,   BANKED
000718 6B00               M          CLRF   SSR_00_COUNTER+5,   BANKED
00071A 6B00               M          CLRF   SSR_00_FLAGS+5,   BANKED
  00000000                M LLIM_LTN --
                          M          SET_SSR_STEADY 4
                          M          SET_SSR_VALUE 4,   255
00071C 0104               M         BANKSEL SSR_DATA_BANK
00071E 0EFF               M          MOVLW  255
000720 6F00               M          MOVWF  SSR_00_VALUE+4,   BANKED
000722 6B00               M          CLRF   SSR_00_STEP+4,   BANKED
000724 6B00               M          CLRF   SSR_00_SPEED+4,   BANKED
000726 6B00               M          CLRF   SSR_00_COUNTER+4,   BANKED
000728 6B00               M          CLRF   SSR_00_FLAGS+4,   BANKED
                          M         ENDW
00072A D???               M         BRA     LLIM_END_8
                          M         
00072C                    M LLIM_OFF_8:
                          M         ;
                          M         ; button pressed or masked, or scan is off; 
                          M         ; turn off until the host computer
                          M         ; stops the scan and awards the winner
                          M         ;
  00000003                M LLIM_LTN SET    3
                          M         WHILE LLIM_LTN > 0
  00000002                M LLIM_LTN --
                          M          SET_SSR_OFF 6
                          M          SET_SSR_VALUE 6,   0
00072C 0104               M         BANKSEL SSR_DATA_BANK
00072E 0E00               M          MOVLW  0
MPASM 5.66              ../QUIZSHOW_MAIN.ASM   3-1-2017  12:21:15         PAGE 42


LOC  OBJECT CODE     LINE SOURCE TEXT
  VALUE

000730 6F00               M          MOVWF  SSR_00_VALUE+6,   BANKED
000732 6B00               M          CLRF   SSR_00_STEP+6,   BANKED
000734 6B00               M          CLRF   SSR_00_SPEED+6,   BANKED
000736 6B00               M          CLRF   SSR_00_COUNTER+6,   BANKED
000738 6B00               M          CLRF   SSR_00_FLAGS+6,   BANKED
  00000001                M LLIM_LTN --
                          M          SET_SSR_OFF 5
                          M          SET_SSR_VALUE 5,   0
00073A 0104               M         BANKSEL SSR_DATA_BANK
00073C 0E00               M          MOVLW  0
00073E 6F00               M          MOVWF  SSR_00_VALUE+5,   BANKED
000740 6B00               M          CLRF   SSR_00_STEP+5,   BANKED
000742 6B00               M          CLRF   SSR_00_SPEED+5,   BANKED
000744 6B00               M          CLRF   SSR_00_COUNTER+5,   BANKED
000746 6B00               M          CLRF   SSR_00_FLAGS+5,   BANKED
  00000000                M LLIM_LTN --
                          M          SET_SSR_OFF 4
                          M          SET_SSR_VALUE 4,   0
000748 0104               M         BANKSEL SSR_DATA_BANK
00074A 0E00               M          MOVLW  0
00074C 6F00               M          MOVWF  SSR_00_VALUE+4,   BANKED
00074E 6B00               M          CLRF   SSR_00_STEP+4,   BANKED
000750 6B00               M          CLRF   SSR_00_SPEED+4,   BANKED
000752 6B00               M          CLRF   SSR_00_COUNTER+4,   BANKED
000754 6B00               M          CLRF   SSR_00_FLAGS+4,   BANKED
                          M         ENDW
                          M 
000756                    M LLIM_END_8:
000756 010C               M         BANKSEL QUIZSHOW_DATA
  00000009                M LLIM_N  ++
                          M 
000758                    M SCN_DB_END_2:
  00000003                M SCN_DBN ++
                      01010           SCAN_DEBOUNCE BTN_IDX_L1, PORT_L1, BIT_L1, CHAN_L1R, 1, CHAN_L1R
000758 010C               M         BANKSEL QUIZSHOW_DATA
00075A 0004               M         CLRWDT
                          M         ;
                          M         ; Sense button state: 
                          M         ;  0=pressed
                          M         ;  1=released
                          M         ;
00075C A080               M         BTFSS   3968,         BIT_L1,  ACCESS
00075E D???               M         BRA     SCN_DB_DOWN_3           ; pressed? branch
                          M         ;
                          M         ; button senses as "up". drain debounce counter if possible
                          M         ;
000760 6700               M         TSTFSZ  BTN_X0_DEB_TMR+3,           BANKED
000762 D???               M         BRA     SCN_DB_DRAIN_3
                          M         ;
                          M         ; The button is officially "up".  If this is news, respond
                          M         ; to this change now.  All we need to do is note the status
                          M         ; change. Everything else happens later when the code notices
                          M         ; this flag state.
                          M         ;
000764 9700               M         BCF     BTN_X0_FLAGS+3,           BTN_FLG_ACTIVE, BANKED
000766 D???               M         BRA     SCN_DB_DONE_3
                          M 
000768                    M SCN_DB_DRAIN_3:
                          M         ;
                          M         ; Drain the button debounce counter
                          M         ;
000768 010C               M         BANKSEL QUIZSHOW_DATA
00076A 0700               M         DECF    BTN_X0_DEB_TMR+3,           F, BANKED
00076C D???               M         BRA     SCN_DB_DONE_3
                          M 
00076E                    M SCN_DB_RST_LCK_3:
                          M         ;
                          M         ; The button needs to be locked out!
                          M         ; We found them pushing the button when they weren't supposed to.
                          M         ;
00076E 010C               M         BANKSEL QUIZSHOW_DATA
000770 8500               M         BSF     BTN_X0_FLAGS+3,           BTN_FLG_LOCKED, BANKED
000772 C??? F???          M         MOVFF   QUIZSHOW_LCKTM, BTN_X0_LOCKTMR+3
                          M         LOCAL_LIGHT_INDICATOR BTN_IDX_L1, CHAN_L1R, 1, CHAN_L1R
000776 010C               M         BANKSEL QUIZSHOW_DATA
000778 A500               M         BTFSS   BTN_X0_FLAGS+3,           BTN_FLG_LOCKED, BANKED
00077A D???               M         BRA     LLIM_NOT_LOCKED_9
00077C B900               M         BTFSC   BTN_X0_FLAGS+3,           BTN_FLG_LCK_ACK, BANKED
00077E D???               M         BRA     LLIM_NOT_LOCKED_9
                          M         ;
MPASM 5.66              ../QUIZSHOW_MAIN.ASM   3-1-2017  12:21:15         PAGE 43


LOC  OBJECT CODE     LINE SOURCE TEXT
  VALUE

                          M         ; light up for locked mode for the first time
                          M         ;
000780 8900               M         BSF     BTN_X0_FLAGS+3,           BTN_FLG_LCK_ACK, BANKED       ; don't do it again
  00000001                M LLIM_LTN SET    1
                          M         WHILE LLIM_LTN > 0
  00000000                M LLIM_LTN --
                          M          SET_SSR_OFF 7
                          M          SET_SSR_VALUE 7,   0
000782 0104               M         BANKSEL SSR_DATA_BANK
000784 0E00               M          MOVLW  0
000786 6F00               M          MOVWF  SSR_00_VALUE+7,   BANKED
000788 6B00               M          CLRF   SSR_00_STEP+7,   BANKED
00078A 6B00               M          CLRF   SSR_00_SPEED+7,   BANKED
00078C 6B00               M          CLRF   SSR_00_COUNTER+7,   BANKED
00078E 6B00               M          CLRF   SSR_00_FLAGS+7,   BANKED
                          M         ENDW
                          M         SET_SSR_RAPID_FADE CHAN_L1R
                          M          SET_SSR_PATTERN CHAN_L1R, 0, 4, 1, BIT_FADE_UP|BIT_FADE_CYCLE
000790 0104               M         BANKSEL SSR_DATA_BANK
000792 0E00               M          MOVLW  0
000794 6F00               M          MOVWF  SSR_00_VALUE+CHAN_L1R, BANKED
000796 0E04               M          MOVLW  4
000798 6F00               M          MOVWF  SSR_00_STEP+CHAN_L1R, BANKED
00079A 0E01               M          MOVLW  1
00079C 6F00               M          MOVWF  SSR_00_SPEED+CHAN_L1R, BANKED
00079E 6F00               M          MOVWF  SSR_00_COUNTER+CHAN_L1R, BANKED
0007A0 0EA0               M          MOVLW  BIT_FADE_UP|BIT_FADE_CYCLE
0007A2 6F00               M          MOVWF  SSR_00_FLAGS+CHAN_L1R, BANKED
0007A4 D???               M         BRA     LLIM_END_9
                          M 
0007A6                    M LLIM_NOT_LOCKED_9:
0007A6 010C               M         BANKSEL QUIZSHOW_DATA
0007A8 B300               M         BTFSC   BTN_X0_FLAGS+3,           BTN_FLG_MASKED, BANKED
0007AA D???               M         BRA     LLIM_OFF_9
0007AC B100               M         BTFSC   BTN_X0_FLAGS+3,           BTN_FLG_PRESSED, BANKED
0007AE D???               M         BRA     LLIM_OFF_9
0007B0 A000               M         BTFSS   QUIZSHOW_FLAGS, QS_FLAG_SCANNING, ACCESS
0007B2 D???               M         BRA     LLIM_OFF_9
                          M         ;
                          M         ; scanning and not pressed or masked? light up fully
                          M         ;
  00000001                M LLIM_LTN SET    1
                          M         WHILE LLIM_LTN > 0
  00000000                M LLIM_LTN --
                          M          SET_SSR_STEADY 7
                          M          SET_SSR_VALUE 7,   255
0007B4 0104               M         BANKSEL SSR_DATA_BANK
0007B6 0EFF               M          MOVLW  255
0007B8 6F00               M          MOVWF  SSR_00_VALUE+7,   BANKED
0007BA 6B00               M          CLRF   SSR_00_STEP+7,   BANKED
0007BC 6B00               M          CLRF   SSR_00_SPEED+7,   BANKED
0007BE 6B00               M          CLRF   SSR_00_COUNTER+7,   BANKED
0007C0 6B00               M          CLRF   SSR_00_FLAGS+7,   BANKED
                          M         ENDW
0007C2 D???               M         BRA     LLIM_END_9
                          M         
0007C4                    M LLIM_OFF_9:
                          M         ;
                          M         ; button pressed or masked, or scan is off; 
                          M         ; turn off until the host computer
                          M         ; stops the scan and awards the winner
                          M         ;
  00000001                M LLIM_LTN SET    1
                          M         WHILE LLIM_LTN > 0
  00000000                M LLIM_LTN --
                          M          SET_SSR_OFF 7
                          M          SET_SSR_VALUE 7,   0
0007C4 0104               M         BANKSEL SSR_DATA_BANK
0007C6 0E00               M          MOVLW  0
0007C8 6F00               M          MOVWF  SSR_00_VALUE+7,   BANKED
0007CA 6B00               M          CLRF   SSR_00_STEP+7,   BANKED
0007CC 6B00               M          CLRF   SSR_00_SPEED+7,   BANKED
0007CE 6B00               M          CLRF   SSR_00_COUNTER+7,   BANKED
0007D0 6B00               M          CLRF   SSR_00_FLAGS+7,   BANKED
                          M         ENDW
                          M 
0007D2                    M LLIM_END_9:
0007D2 010C               M         BANKSEL QUIZSHOW_DATA
  0000000A                M LLIM_N  ++
0007D4 D???               M         BRA     SCN_DB_DONE_3
MPASM 5.66              ../QUIZSHOW_MAIN.ASM   3-1-2017  12:21:15         PAGE 44


LOC  OBJECT CODE     LINE SOURCE TEXT
  VALUE

                          M 
0007D6                    M SCN_DB_DOWN_3:
                          M         ;
                          M         ; button senses as "down". fill debounce counter if possible
                          M         ;
0007D6 010C               M         BANKSEL QUIZSHOW_DATA
0007D8 3F00               M         INCFSZ  BTN_X0_DEB_TMR+3,           F, BANKED
0007DA D???               M         BRA     SCN_DB_DONE_3
                          M         ;
                          M         ; counter was full (since we overflowed it to 0 again). so
                          M         ; the button is officially "down".  Put the counter back
                          M         ; to 255 and proceed with what it means for the button to be
                          M         ; officially down.
                          M         ;
0007DC 6900               M         SETF    BTN_X0_DEB_TMR+3,           BANKED
0007DE B500               M         BTFSC   BTN_X0_FLAGS+3,           BTN_FLG_LOCKED, BANKED        ; is it locked?
0007E0 D???               M         BRA     SCN_DB_RST_LCK_3                                ; stay locked longer
0007E2 B700               M         BTFSC   BTN_X0_FLAGS+3,           BTN_FLG_ACTIVE, BANKED        ; if we already saw the button p
                            ress
0007E4 D???               M         BRA     SCN_DB_DONE_3                                   ;   then we don't need to do anything mo
                            re
                          M         ;
                          M         ; We didn't know the button was down yet. Let's see what
                          M         ; that changes...
                          M         ;
0007E6 8700               M         BSF     BTN_X0_FLAGS+3,           BTN_FLG_ACTIVE, BANKED        ; mark as "down"
0007E8 B300               M         BTFSC   BTN_X0_FLAGS+3,           BTN_FLG_MASKED, BANKED        ; is it masked?
0007EA D???               M         BRA     SCN_DB_DONE_3                                   ; then ignore it
0007EC B100               M         BTFSC   BTN_X0_FLAGS+3,           BTN_FLG_PRESSED, BANKED       ; already noted?
0007EE D???               M         BRA     SCN_DB_DONE_3                                   ; then we're already done
0007F0 A000               M         BTFSS   QUIZSHOW_FLAGS, QS_FLAG_SCANNING, ACCESS        ; legal to press?
0007F2 D???               M         BRA     SCN_DB_RST_LCK_3                                ; if not, lock out!
                          M         ;
                          M         ; The button was pressed legally and this is the first time we
                          M         ; noticed it. Record it as the official press for this button.
                          M         ;
0007F4 8100               M         BSF     BTN_X0_FLAGS+3,           BTN_FLG_PRESSED, BANKED
0007F6 9EF2               M         BCF     INTCON, 7, ACCESS                               ; disable interrupts
0007F8 9CF2               M         BCF     INTCON, 6, ACCESS                               ; disable interrupts
0007FA C??? F???          M         MOVFF   QS_BTN_TMR_U, BTN_X0_TIME_U+3
0007FE C??? F???          M         MOVFF   QS_BTN_TMR_T, BTN_X0_TIME_T+3
000802 CFCE F???          M         MOVFF   TMR1L, BTN_X0_TIME_L+3
000806 CFCF F???          M         MOVFF   TMR1H, BTN_X0_TIME_H+3
00080A 8EF2               M         BSF     INTCON, 7, ACCESS                               ; enable interrupts
00080C 8CF2               M         BSF     INTCON, 6, ACCESS                               ; enable interrupts
                          M         LOCAL_LIGHT_INDICATOR BTN_IDX_L1, CHAN_L1R, 1, CHAN_L1R
00080E 010C               M         BANKSEL QUIZSHOW_DATA
000810 A500               M         BTFSS   BTN_X0_FLAGS+3,           BTN_FLG_LOCKED, BANKED
000812 D???               M         BRA     LLIM_NOT_LOCKED_10
000814 B900               M         BTFSC   BTN_X0_FLAGS+3,           BTN_FLG_LCK_ACK, BANKED
000816 D???               M         BRA     LLIM_NOT_LOCKED_10
                          M         ;
                          M         ; light up for locked mode for the first time
                          M         ;
000818 8900               M         BSF     BTN_X0_FLAGS+3,           BTN_FLG_LCK_ACK, BANKED       ; don't do it again
  00000001                M LLIM_LTN SET    1
                          M         WHILE LLIM_LTN > 0
  00000000                M LLIM_LTN --
                          M          SET_SSR_OFF 7
                          M          SET_SSR_VALUE 7,   0
00081A 0104               M         BANKSEL SSR_DATA_BANK
00081C 0E00               M          MOVLW  0
00081E 6F00               M          MOVWF  SSR_00_VALUE+7,   BANKED
000820 6B00               M          CLRF   SSR_00_STEP+7,   BANKED
000822 6B00               M          CLRF   SSR_00_SPEED+7,   BANKED
000824 6B00               M          CLRF   SSR_00_COUNTER+7,   BANKED
000826 6B00               M          CLRF   SSR_00_FLAGS+7,   BANKED
                          M         ENDW
                          M         SET_SSR_RAPID_FADE CHAN_L1R
                          M          SET_SSR_PATTERN CHAN_L1R, 0, 4, 1, BIT_FADE_UP|BIT_FADE_CYCLE
000828 0104               M         BANKSEL SSR_DATA_BANK
00082A 0E00               M          MOVLW  0
00082C 6F00               M          MOVWF  SSR_00_VALUE+CHAN_L1R, BANKED
00082E 0E04               M          MOVLW  4
000830 6F00               M          MOVWF  SSR_00_STEP+CHAN_L1R, BANKED
000832 0E01               M          MOVLW  1
000834 6F00               M          MOVWF  SSR_00_SPEED+CHAN_L1R, BANKED
000836 6F00               M          MOVWF  SSR_00_COUNTER+CHAN_L1R, BANKED
000838 0EA0               M          MOVLW  BIT_FADE_UP|BIT_FADE_CYCLE
00083A 6F00               M          MOVWF  SSR_00_FLAGS+CHAN_L1R, BANKED
MPASM 5.66              ../QUIZSHOW_MAIN.ASM   3-1-2017  12:21:15         PAGE 45


LOC  OBJECT CODE     LINE SOURCE TEXT
  VALUE

00083C D???               M         BRA     LLIM_END_10
                          M 
00083E                    M LLIM_NOT_LOCKED_10:
00083E 010C               M         BANKSEL QUIZSHOW_DATA
000840 B300               M         BTFSC   BTN_X0_FLAGS+3,           BTN_FLG_MASKED, BANKED
000842 D???               M         BRA     LLIM_OFF_10
000844 B100               M         BTFSC   BTN_X0_FLAGS+3,           BTN_FLG_PRESSED, BANKED
000846 D???               M         BRA     LLIM_OFF_10
000848 A000               M         BTFSS   QUIZSHOW_FLAGS, QS_FLAG_SCANNING, ACCESS
00084A D???               M         BRA     LLIM_OFF_10
                          M         ;
                          M         ; scanning and not pressed or masked? light up fully
                          M         ;
  00000001                M LLIM_LTN SET    1
                          M         WHILE LLIM_LTN > 0
  00000000                M LLIM_LTN --
                          M          SET_SSR_STEADY 7
                          M          SET_SSR_VALUE 7,   255
00084C 0104               M         BANKSEL SSR_DATA_BANK
00084E 0EFF               M          MOVLW  255
000850 6F00               M          MOVWF  SSR_00_VALUE+7,   BANKED
000852 6B00               M          CLRF   SSR_00_STEP+7,   BANKED
000854 6B00               M          CLRF   SSR_00_SPEED+7,   BANKED
000856 6B00               M          CLRF   SSR_00_COUNTER+7,   BANKED
000858 6B00               M          CLRF   SSR_00_FLAGS+7,   BANKED
                          M         ENDW
00085A D???               M         BRA     LLIM_END_10
                          M         
00085C                    M LLIM_OFF_10:
                          M         ;
                          M         ; button pressed or masked, or scan is off; 
                          M         ; turn off until the host computer
                          M         ; stops the scan and awards the winner
                          M         ;
  00000001                M LLIM_LTN SET    1
                          M         WHILE LLIM_LTN > 0
  00000000                M LLIM_LTN --
                          M          SET_SSR_OFF 7
                          M          SET_SSR_VALUE 7,   0
00085C 0104               M         BANKSEL SSR_DATA_BANK
00085E 0E00               M          MOVLW  0
000860 6F00               M          MOVWF  SSR_00_VALUE+7,   BANKED
000862 6B00               M          CLRF   SSR_00_STEP+7,   BANKED
000864 6B00               M          CLRF   SSR_00_SPEED+7,   BANKED
000866 6B00               M          CLRF   SSR_00_COUNTER+7,   BANKED
000868 6B00               M          CLRF   SSR_00_FLAGS+7,   BANKED
                          M         ENDW
                          M 
00086A                    M LLIM_END_10:
00086A 010C               M         BANKSEL QUIZSHOW_DATA
  0000000B                M LLIM_N  ++
                          M 
00086C                    M SCN_DB_DONE_3:
                          M         ;
                          M         ; We're done with the button debouncing operations.
                          M         ;
                          M         ; If we're processing the 120Hz cleanup operations, do them now
                          M         ; for this button.
                          M         ;
00086C A400               M         BTFSS   QUIZSHOW_FLAGS, QS_FLAG_DOING120, ACCESS
00086E D???               M         BRA     SCN_DB_END_3
                          M         ;
                          M         ; If the button is locked out, decrement its timer. If it reaches
                          M         ; zero, we can release the lock now.
                          M         ;
000870 010C               M         BANKSEL QUIZSHOW_DATA
000872 B500               M         BTFSC   BTN_X0_FLAGS+3,           BTN_FLG_LOCKED, BANKED
000874 2F00               M         DECFSZ  BTN_X0_LOCKTMR+3,           F, BANKED
000876 D???               M         BRA     SCN_DB_END_3
000878 9500               M         BCF     BTN_X0_FLAGS+3,           BTN_FLG_LOCKED, BANKED        ; release the lock
00087A 9900               M         BCF     BTN_X0_FLAGS+3,           BTN_FLG_LCK_ACK, BANKED
                          M         LOCAL_LIGHT_INDICATOR BTN_IDX_L1, CHAN_L1R, 1, CHAN_L1R
00087C 010C               M         BANKSEL QUIZSHOW_DATA
00087E A500               M         BTFSS   BTN_X0_FLAGS+3,           BTN_FLG_LOCKED, BANKED
000880 D???               M         BRA     LLIM_NOT_LOCKED_11
000882 B900               M         BTFSC   BTN_X0_FLAGS+3,           BTN_FLG_LCK_ACK, BANKED
000884 D???               M         BRA     LLIM_NOT_LOCKED_11
                          M         ;
                          M         ; light up for locked mode for the first time
                          M         ;
MPASM 5.66              ../QUIZSHOW_MAIN.ASM   3-1-2017  12:21:15         PAGE 46


LOC  OBJECT CODE     LINE SOURCE TEXT
  VALUE

000886 8900               M         BSF     BTN_X0_FLAGS+3,           BTN_FLG_LCK_ACK, BANKED       ; don't do it again
  00000001                M LLIM_LTN SET    1
                          M         WHILE LLIM_LTN > 0
  00000000                M LLIM_LTN --
                          M          SET_SSR_OFF 7
                          M          SET_SSR_VALUE 7,   0
000888 0104               M         BANKSEL SSR_DATA_BANK
00088A 0E00               M          MOVLW  0
00088C 6F00               M          MOVWF  SSR_00_VALUE+7,   BANKED
00088E 6B00               M          CLRF   SSR_00_STEP+7,   BANKED
000890 6B00               M          CLRF   SSR_00_SPEED+7,   BANKED
000892 6B00               M          CLRF   SSR_00_COUNTER+7,   BANKED
000894 6B00               M          CLRF   SSR_00_FLAGS+7,   BANKED
                          M         ENDW
                          M         SET_SSR_RAPID_FADE CHAN_L1R
                          M          SET_SSR_PATTERN CHAN_L1R, 0, 4, 1, BIT_FADE_UP|BIT_FADE_CYCLE
000896 0104               M         BANKSEL SSR_DATA_BANK
000898 0E00               M          MOVLW  0
00089A 6F00               M          MOVWF  SSR_00_VALUE+CHAN_L1R, BANKED
00089C 0E04               M          MOVLW  4
00089E 6F00               M          MOVWF  SSR_00_STEP+CHAN_L1R, BANKED
0008A0 0E01               M          MOVLW  1
0008A2 6F00               M          MOVWF  SSR_00_SPEED+CHAN_L1R, BANKED
0008A4 6F00               M          MOVWF  SSR_00_COUNTER+CHAN_L1R, BANKED
0008A6 0EA0               M          MOVLW  BIT_FADE_UP|BIT_FADE_CYCLE
0008A8 6F00               M          MOVWF  SSR_00_FLAGS+CHAN_L1R, BANKED
0008AA D???               M         BRA     LLIM_END_11
                          M 
0008AC                    M LLIM_NOT_LOCKED_11:
0008AC 010C               M         BANKSEL QUIZSHOW_DATA
0008AE B300               M         BTFSC   BTN_X0_FLAGS+3,           BTN_FLG_MASKED, BANKED
0008B0 D???               M         BRA     LLIM_OFF_11
0008B2 B100               M         BTFSC   BTN_X0_FLAGS+3,           BTN_FLG_PRESSED, BANKED
0008B4 D???               M         BRA     LLIM_OFF_11
0008B6 A000               M         BTFSS   QUIZSHOW_FLAGS, QS_FLAG_SCANNING, ACCESS
0008B8 D???               M         BRA     LLIM_OFF_11
                          M         ;
                          M         ; scanning and not pressed or masked? light up fully
                          M         ;
  00000001                M LLIM_LTN SET    1
                          M         WHILE LLIM_LTN > 0
  00000000                M LLIM_LTN --
                          M          SET_SSR_STEADY 7
                          M          SET_SSR_VALUE 7,   255
0008BA 0104               M         BANKSEL SSR_DATA_BANK
0008BC 0EFF               M          MOVLW  255
0008BE 6F00               M          MOVWF  SSR_00_VALUE+7,   BANKED
0008C0 6B00               M          CLRF   SSR_00_STEP+7,   BANKED
0008C2 6B00               M          CLRF   SSR_00_SPEED+7,   BANKED
0008C4 6B00               M          CLRF   SSR_00_COUNTER+7,   BANKED
0008C6 6B00               M          CLRF   SSR_00_FLAGS+7,   BANKED
                          M         ENDW
0008C8 D???               M         BRA     LLIM_END_11
                          M         
0008CA                    M LLIM_OFF_11:
                          M         ;
                          M         ; button pressed or masked, or scan is off; 
                          M         ; turn off until the host computer
                          M         ; stops the scan and awards the winner
                          M         ;
  00000001                M LLIM_LTN SET    1
                          M         WHILE LLIM_LTN > 0
  00000000                M LLIM_LTN --
                          M          SET_SSR_OFF 7
                          M          SET_SSR_VALUE 7,   0
0008CA 0104               M         BANKSEL SSR_DATA_BANK
0008CC 0E00               M          MOVLW  0
0008CE 6F00               M          MOVWF  SSR_00_VALUE+7,   BANKED
0008D0 6B00               M          CLRF   SSR_00_STEP+7,   BANKED
0008D2 6B00               M          CLRF   SSR_00_SPEED+7,   BANKED
0008D4 6B00               M          CLRF   SSR_00_COUNTER+7,   BANKED
0008D6 6B00               M          CLRF   SSR_00_FLAGS+7,   BANKED
                          M         ENDW
                          M 
0008D8                    M LLIM_END_11:
0008D8 010C               M         BANKSEL QUIZSHOW_DATA
  0000000C                M LLIM_N  ++
                          M 
0008DA                    M SCN_DB_END_3:
  00000004                M SCN_DBN ++
MPASM 5.66              ../QUIZSHOW_MAIN.ASM   3-1-2017  12:21:15         PAGE 47


LOC  OBJECT CODE     LINE SOURCE TEXT
  VALUE

                      01011           SCAN_DEBOUNCE BTN_IDX_X2, PORT_X2, BIT_X2, CHAN_X2R, 3, CHAN_X2R
0008DA 010C               M         BANKSEL QUIZSHOW_DATA
0008DC 0004               M         CLRWDT
                          M         ;
                          M         ; Sense button state: 
                          M         ;  0=pressed
                          M         ;  1=released
                          M         ;
0008DE A880               M         BTFSS   3968,         BIT_X2,  ACCESS
0008E0 D???               M         BRA     SCN_DB_DOWN_4           ; pressed? branch
                          M         ;
                          M         ; button senses as "up". drain debounce counter if possible
                          M         ;
0008E2 6700               M         TSTFSZ  BTN_X0_DEB_TMR+4,           BANKED
0008E4 D???               M         BRA     SCN_DB_DRAIN_4
                          M         ;
                          M         ; The button is officially "up".  If this is news, respond
                          M         ; to this change now.  All we need to do is note the status
                          M         ; change. Everything else happens later when the code notices
                          M         ; this flag state.
                          M         ;
0008E6 9700               M         BCF     BTN_X0_FLAGS+4,           BTN_FLG_ACTIVE, BANKED
0008E8 D???               M         BRA     SCN_DB_DONE_4
                          M 
0008EA                    M SCN_DB_DRAIN_4:
                          M         ;
                          M         ; Drain the button debounce counter
                          M         ;
0008EA 010C               M         BANKSEL QUIZSHOW_DATA
0008EC 0700               M         DECF    BTN_X0_DEB_TMR+4,           F, BANKED
0008EE D???               M         BRA     SCN_DB_DONE_4
                          M 
0008F0                    M SCN_DB_RST_LCK_4:
                          M         ;
                          M         ; The button needs to be locked out!
                          M         ; We found them pushing the button when they weren't supposed to.
                          M         ;
0008F0 010C               M         BANKSEL QUIZSHOW_DATA
0008F2 8500               M         BSF     BTN_X0_FLAGS+4,           BTN_FLG_LOCKED, BANKED
0008F4 C??? F???          M         MOVFF   QUIZSHOW_LCKTM, BTN_X0_LOCKTMR+4
                          M         LOCAL_LIGHT_INDICATOR BTN_IDX_X2, CHAN_X2R, 3, CHAN_X2R
0008F8 010C               M         BANKSEL QUIZSHOW_DATA
0008FA A500               M         BTFSS   BTN_X0_FLAGS+4,           BTN_FLG_LOCKED, BANKED
0008FC D???               M         BRA     LLIM_NOT_LOCKED_12
0008FE B900               M         BTFSC   BTN_X0_FLAGS+4,           BTN_FLG_LCK_ACK, BANKED
000900 D???               M         BRA     LLIM_NOT_LOCKED_12
                          M         ;
                          M         ; light up for locked mode for the first time
                          M         ;
000902 8900               M         BSF     BTN_X0_FLAGS+4,           BTN_FLG_LCK_ACK, BANKED       ; don't do it again
  00000003                M LLIM_LTN SET    3
                          M         WHILE LLIM_LTN > 0
  00000002                M LLIM_LTN --
                          M          SET_SSR_OFF 10
                          M          SET_SSR_VALUE 10,  0
000904 0104               M         BANKSEL SSR_DATA_BANK
000906 0E00               M          MOVLW  0
000908 6F00               M          MOVWF  SSR_00_VALUE+10,  BANKED
00090A 6B00               M          CLRF   SSR_00_STEP+10,  BANKED
00090C 6B00               M          CLRF   SSR_00_SPEED+10,  BANKED
00090E 6B00               M          CLRF   SSR_00_COUNTER+10,  BANKED
000910 6B00               M          CLRF   SSR_00_FLAGS+10,  BANKED
  00000001                M LLIM_LTN --
                          M          SET_SSR_OFF 9
                          M          SET_SSR_VALUE 9,   0
000912 0104               M         BANKSEL SSR_DATA_BANK
000914 0E00               M          MOVLW  0
000916 6F00               M          MOVWF  SSR_00_VALUE+9,   BANKED
000918 6B00               M          CLRF   SSR_00_STEP+9,   BANKED
00091A 6B00               M          CLRF   SSR_00_SPEED+9,   BANKED
00091C 6B00               M          CLRF   SSR_00_COUNTER+9,   BANKED
00091E 6B00               M          CLRF   SSR_00_FLAGS+9,   BANKED
  00000000                M LLIM_LTN --
                          M          SET_SSR_OFF 8
                          M          SET_SSR_VALUE 8,   0
000920 0104               M         BANKSEL SSR_DATA_BANK
000922 0E00               M          MOVLW  0
000924 6F00               M          MOVWF  SSR_00_VALUE+8,   BANKED
000926 6B00               M          CLRF   SSR_00_STEP+8,   BANKED
000928 6B00               M          CLRF   SSR_00_SPEED+8,   BANKED
MPASM 5.66              ../QUIZSHOW_MAIN.ASM   3-1-2017  12:21:15         PAGE 48


LOC  OBJECT CODE     LINE SOURCE TEXT
  VALUE

00092A 6B00               M          CLRF   SSR_00_COUNTER+8,   BANKED
00092C 6B00               M          CLRF   SSR_00_FLAGS+8,   BANKED
                          M         ENDW
                          M         SET_SSR_RAPID_FADE CHAN_X2R
                          M          SET_SSR_PATTERN CHAN_X2R, 0, 4, 1, BIT_FADE_UP|BIT_FADE_CYCLE
00092E 0104               M         BANKSEL SSR_DATA_BANK
000930 0E00               M          MOVLW  0
000932 6F00               M          MOVWF  SSR_00_VALUE+CHAN_X2R, BANKED
000934 0E04               M          MOVLW  4
000936 6F00               M          MOVWF  SSR_00_STEP+CHAN_X2R, BANKED
000938 0E01               M          MOVLW  1
00093A 6F00               M          MOVWF  SSR_00_SPEED+CHAN_X2R, BANKED
00093C 6F00               M          MOVWF  SSR_00_COUNTER+CHAN_X2R, BANKED
00093E 0EA0               M          MOVLW  BIT_FADE_UP|BIT_FADE_CYCLE
000940 6F00               M          MOVWF  SSR_00_FLAGS+CHAN_X2R, BANKED
000942 D???               M         BRA     LLIM_END_12
                          M 
000944                    M LLIM_NOT_LOCKED_12:
000944 010C               M         BANKSEL QUIZSHOW_DATA
000946 B300               M         BTFSC   BTN_X0_FLAGS+4,           BTN_FLG_MASKED, BANKED
000948 D???               M         BRA     LLIM_OFF_12
00094A B100               M         BTFSC   BTN_X0_FLAGS+4,           BTN_FLG_PRESSED, BANKED
00094C D???               M         BRA     LLIM_OFF_12
00094E A000               M         BTFSS   QUIZSHOW_FLAGS, QS_FLAG_SCANNING, ACCESS
000950 D???               M         BRA     LLIM_OFF_12
                          M         ;
                          M         ; scanning and not pressed or masked? light up fully
                          M         ;
  00000003                M LLIM_LTN SET    3
                          M         WHILE LLIM_LTN > 0
  00000002                M LLIM_LTN --
                          M          SET_SSR_STEADY 10
                          M          SET_SSR_VALUE 10,  255
000952 0104               M         BANKSEL SSR_DATA_BANK
000954 0EFF               M          MOVLW  255
000956 6F00               M          MOVWF  SSR_00_VALUE+10,  BANKED
000958 6B00               M          CLRF   SSR_00_STEP+10,  BANKED
00095A 6B00               M          CLRF   SSR_00_SPEED+10,  BANKED
00095C 6B00               M          CLRF   SSR_00_COUNTER+10,  BANKED
00095E 6B00               M          CLRF   SSR_00_FLAGS+10,  BANKED
  00000001                M LLIM_LTN --
                          M          SET_SSR_STEADY 9
                          M          SET_SSR_VALUE 9,   255
000960 0104               M         BANKSEL SSR_DATA_BANK
000962 0EFF               M          MOVLW  255
000964 6F00               M          MOVWF  SSR_00_VALUE+9,   BANKED
000966 6B00               M          CLRF   SSR_00_STEP+9,   BANKED
000968 6B00               M          CLRF   SSR_00_SPEED+9,   BANKED
00096A 6B00               M          CLRF   SSR_00_COUNTER+9,   BANKED
00096C 6B00               M          CLRF   SSR_00_FLAGS+9,   BANKED
  00000000                M LLIM_LTN --
                          M          SET_SSR_STEADY 8
                          M          SET_SSR_VALUE 8,   255
00096E 0104               M         BANKSEL SSR_DATA_BANK
000970 0EFF               M          MOVLW  255
000972 6F00               M          MOVWF  SSR_00_VALUE+8,   BANKED
000974 6B00               M          CLRF   SSR_00_STEP+8,   BANKED
000976 6B00               M          CLRF   SSR_00_SPEED+8,   BANKED
000978 6B00               M          CLRF   SSR_00_COUNTER+8,   BANKED
00097A 6B00               M          CLRF   SSR_00_FLAGS+8,   BANKED
                          M         ENDW
00097C D???               M         BRA     LLIM_END_12
                          M         
00097E                    M LLIM_OFF_12:
                          M         ;
                          M         ; button pressed or masked, or scan is off; 
                          M         ; turn off until the host computer
                          M         ; stops the scan and awards the winner
                          M         ;
  00000003                M LLIM_LTN SET    3
                          M         WHILE LLIM_LTN > 0
  00000002                M LLIM_LTN --
                          M          SET_SSR_OFF 10
                          M          SET_SSR_VALUE 10,  0
00097E 0104               M         BANKSEL SSR_DATA_BANK
000980 0E00               M          MOVLW  0
000982 6F00               M          MOVWF  SSR_00_VALUE+10,  BANKED
000984 6B00               M          CLRF   SSR_00_STEP+10,  BANKED
000986 6B00               M          CLRF   SSR_00_SPEED+10,  BANKED
000988 6B00               M          CLRF   SSR_00_COUNTER+10,  BANKED
MPASM 5.66              ../QUIZSHOW_MAIN.ASM   3-1-2017  12:21:15         PAGE 49


LOC  OBJECT CODE     LINE SOURCE TEXT
  VALUE

00098A 6B00               M          CLRF   SSR_00_FLAGS+10,  BANKED
  00000001                M LLIM_LTN --
                          M          SET_SSR_OFF 9
                          M          SET_SSR_VALUE 9,   0
00098C 0104               M         BANKSEL SSR_DATA_BANK
00098E 0E00               M          MOVLW  0
000990 6F00               M          MOVWF  SSR_00_VALUE+9,   BANKED
000992 6B00               M          CLRF   SSR_00_STEP+9,   BANKED
000994 6B00               M          CLRF   SSR_00_SPEED+9,   BANKED
000996 6B00               M          CLRF   SSR_00_COUNTER+9,   BANKED
000998 6B00               M          CLRF   SSR_00_FLAGS+9,   BANKED
  00000000                M LLIM_LTN --
                          M          SET_SSR_OFF 8
                          M          SET_SSR_VALUE 8,   0
00099A 0104               M         BANKSEL SSR_DATA_BANK
00099C 0E00               M          MOVLW  0
00099E 6F00               M          MOVWF  SSR_00_VALUE+8,   BANKED
0009A0 6B00               M          CLRF   SSR_00_STEP+8,   BANKED
0009A2 6B00               M          CLRF   SSR_00_SPEED+8,   BANKED
0009A4 6B00               M          CLRF   SSR_00_COUNTER+8,   BANKED
0009A6 6B00               M          CLRF   SSR_00_FLAGS+8,   BANKED
                          M         ENDW
                          M 
0009A8                    M LLIM_END_12:
0009A8 010C               M         BANKSEL QUIZSHOW_DATA
  0000000D                M LLIM_N  ++
0009AA D???               M         BRA     SCN_DB_DONE_4
                          M 
0009AC                    M SCN_DB_DOWN_4:
                          M         ;
                          M         ; button senses as "down". fill debounce counter if possible
                          M         ;
0009AC 010C               M         BANKSEL QUIZSHOW_DATA
0009AE 3F00               M         INCFSZ  BTN_X0_DEB_TMR+4,           F, BANKED
0009B0 D???               M         BRA     SCN_DB_DONE_4
                          M         ;
                          M         ; counter was full (since we overflowed it to 0 again). so
                          M         ; the button is officially "down".  Put the counter back
                          M         ; to 255 and proceed with what it means for the button to be
                          M         ; officially down.
                          M         ;
0009B2 6900               M         SETF    BTN_X0_DEB_TMR+4,           BANKED
0009B4 B500               M         BTFSC   BTN_X0_FLAGS+4,           BTN_FLG_LOCKED, BANKED        ; is it locked?
0009B6 D???               M         BRA     SCN_DB_RST_LCK_4                                ; stay locked longer
0009B8 B700               M         BTFSC   BTN_X0_FLAGS+4,           BTN_FLG_ACTIVE, BANKED        ; if we already saw the button p
                            ress
0009BA D???               M         BRA     SCN_DB_DONE_4                                   ;   then we don't need to do anything mo
                            re
                          M         ;
                          M         ; We didn't know the button was down yet. Let's see what
                          M         ; that changes...
                          M         ;
0009BC 8700               M         BSF     BTN_X0_FLAGS+4,           BTN_FLG_ACTIVE, BANKED        ; mark as "down"
0009BE B300               M         BTFSC   BTN_X0_FLAGS+4,           BTN_FLG_MASKED, BANKED        ; is it masked?
0009C0 D???               M         BRA     SCN_DB_DONE_4                                   ; then ignore it
0009C2 B100               M         BTFSC   BTN_X0_FLAGS+4,           BTN_FLG_PRESSED, BANKED       ; already noted?
0009C4 D???               M         BRA     SCN_DB_DONE_4                                   ; then we're already done
0009C6 A000               M         BTFSS   QUIZSHOW_FLAGS, QS_FLAG_SCANNING, ACCESS        ; legal to press?
0009C8 D???               M         BRA     SCN_DB_RST_LCK_4                                ; if not, lock out!
                          M         ;
                          M         ; The button was pressed legally and this is the first time we
                          M         ; noticed it. Record it as the official press for this button.
                          M         ;
0009CA 8100               M         BSF     BTN_X0_FLAGS+4,           BTN_FLG_PRESSED, BANKED
0009CC 9EF2               M         BCF     INTCON, 7, ACCESS                               ; disable interrupts
0009CE 9CF2               M         BCF     INTCON, 6, ACCESS                               ; disable interrupts
0009D0 C??? F???          M         MOVFF   QS_BTN_TMR_U, BTN_X0_TIME_U+4
0009D4 C??? F???          M         MOVFF   QS_BTN_TMR_T, BTN_X0_TIME_T+4
0009D8 CFCE F???          M         MOVFF   TMR1L, BTN_X0_TIME_L+4
0009DC CFCF F???          M         MOVFF   TMR1H, BTN_X0_TIME_H+4
0009E0 8EF2               M         BSF     INTCON, 7, ACCESS                               ; enable interrupts
0009E2 8CF2               M         BSF     INTCON, 6, ACCESS                               ; enable interrupts
                          M         LOCAL_LIGHT_INDICATOR BTN_IDX_X2, CHAN_X2R, 3, CHAN_X2R
0009E4 010C               M         BANKSEL QUIZSHOW_DATA
0009E6 A500               M         BTFSS   BTN_X0_FLAGS+4,           BTN_FLG_LOCKED, BANKED
0009E8 D???               M         BRA     LLIM_NOT_LOCKED_13
0009EA B900               M         BTFSC   BTN_X0_FLAGS+4,           BTN_FLG_LCK_ACK, BANKED
0009EC D???               M         BRA     LLIM_NOT_LOCKED_13
                          M         ;
                          M         ; light up for locked mode for the first time
MPASM 5.66              ../QUIZSHOW_MAIN.ASM   3-1-2017  12:21:15         PAGE 50


LOC  OBJECT CODE     LINE SOURCE TEXT
  VALUE

                          M         ;
0009EE 8900               M         BSF     BTN_X0_FLAGS+4,           BTN_FLG_LCK_ACK, BANKED       ; don't do it again
  00000003                M LLIM_LTN SET    3
                          M         WHILE LLIM_LTN > 0
  00000002                M LLIM_LTN --
                          M          SET_SSR_OFF 10
                          M          SET_SSR_VALUE 10,  0
0009F0 0104               M         BANKSEL SSR_DATA_BANK
0009F2 0E00               M          MOVLW  0
0009F4 6F00               M          MOVWF  SSR_00_VALUE+10,  BANKED
0009F6 6B00               M          CLRF   SSR_00_STEP+10,  BANKED
0009F8 6B00               M          CLRF   SSR_00_SPEED+10,  BANKED
0009FA 6B00               M          CLRF   SSR_00_COUNTER+10,  BANKED
0009FC 6B00               M          CLRF   SSR_00_FLAGS+10,  BANKED
  00000001                M LLIM_LTN --
                          M          SET_SSR_OFF 9
                          M          SET_SSR_VALUE 9,   0
0009FE 0104               M         BANKSEL SSR_DATA_BANK
000A00 0E00               M          MOVLW  0
000A02 6F00               M          MOVWF  SSR_00_VALUE+9,   BANKED
000A04 6B00               M          CLRF   SSR_00_STEP+9,   BANKED
000A06 6B00               M          CLRF   SSR_00_SPEED+9,   BANKED
000A08 6B00               M          CLRF   SSR_00_COUNTER+9,   BANKED
000A0A 6B00               M          CLRF   SSR_00_FLAGS+9,   BANKED
  00000000                M LLIM_LTN --
                          M          SET_SSR_OFF 8
                          M          SET_SSR_VALUE 8,   0
000A0C 0104               M         BANKSEL SSR_DATA_BANK
000A0E 0E00               M          MOVLW  0
000A10 6F00               M          MOVWF  SSR_00_VALUE+8,   BANKED
000A12 6B00               M          CLRF   SSR_00_STEP+8,   BANKED
000A14 6B00               M          CLRF   SSR_00_SPEED+8,   BANKED
000A16 6B00               M          CLRF   SSR_00_COUNTER+8,   BANKED
000A18 6B00               M          CLRF   SSR_00_FLAGS+8,   BANKED
                          M         ENDW
                          M         SET_SSR_RAPID_FADE CHAN_X2R
                          M          SET_SSR_PATTERN CHAN_X2R, 0, 4, 1, BIT_FADE_UP|BIT_FADE_CYCLE
000A1A 0104               M         BANKSEL SSR_DATA_BANK
000A1C 0E00               M          MOVLW  0
000A1E 6F00               M          MOVWF  SSR_00_VALUE+CHAN_X2R, BANKED
000A20 0E04               M          MOVLW  4
000A22 6F00               M          MOVWF  SSR_00_STEP+CHAN_X2R, BANKED
000A24 0E01               M          MOVLW  1
000A26 6F00               M          MOVWF  SSR_00_SPEED+CHAN_X2R, BANKED
000A28 6F00               M          MOVWF  SSR_00_COUNTER+CHAN_X2R, BANKED
000A2A 0EA0               M          MOVLW  BIT_FADE_UP|BIT_FADE_CYCLE
000A2C 6F00               M          MOVWF  SSR_00_FLAGS+CHAN_X2R, BANKED
000A2E D???               M         BRA     LLIM_END_13
                          M 
000A30                    M LLIM_NOT_LOCKED_13:
000A30 010C               M         BANKSEL QUIZSHOW_DATA
000A32 B300               M         BTFSC   BTN_X0_FLAGS+4,           BTN_FLG_MASKED, BANKED
000A34 D???               M         BRA     LLIM_OFF_13
000A36 B100               M         BTFSC   BTN_X0_FLAGS+4,           BTN_FLG_PRESSED, BANKED
000A38 D???               M         BRA     LLIM_OFF_13
000A3A A000               M         BTFSS   QUIZSHOW_FLAGS, QS_FLAG_SCANNING, ACCESS
000A3C D???               M         BRA     LLIM_OFF_13
                          M         ;
                          M         ; scanning and not pressed or masked? light up fully
                          M         ;
  00000003                M LLIM_LTN SET    3
                          M         WHILE LLIM_LTN > 0
  00000002                M LLIM_LTN --
                          M          SET_SSR_STEADY 10
                          M          SET_SSR_VALUE 10,  255
000A3E 0104               M         BANKSEL SSR_DATA_BANK
000A40 0EFF               M          MOVLW  255
000A42 6F00               M          MOVWF  SSR_00_VALUE+10,  BANKED
000A44 6B00               M          CLRF   SSR_00_STEP+10,  BANKED
000A46 6B00               M          CLRF   SSR_00_SPEED+10,  BANKED
000A48 6B00               M          CLRF   SSR_00_COUNTER+10,  BANKED
000A4A 6B00               M          CLRF   SSR_00_FLAGS+10,  BANKED
  00000001                M LLIM_LTN --
                          M          SET_SSR_STEADY 9
                          M          SET_SSR_VALUE 9,   255
000A4C 0104               M         BANKSEL SSR_DATA_BANK
000A4E 0EFF               M          MOVLW  255
000A50 6F00               M          MOVWF  SSR_00_VALUE+9,   BANKED
000A52 6B00               M          CLRF   SSR_00_STEP+9,   BANKED
000A54 6B00               M          CLRF   SSR_00_SPEED+9,   BANKED
MPASM 5.66              ../QUIZSHOW_MAIN.ASM   3-1-2017  12:21:15         PAGE 51


LOC  OBJECT CODE     LINE SOURCE TEXT
  VALUE

000A56 6B00               M          CLRF   SSR_00_COUNTER+9,   BANKED
000A58 6B00               M          CLRF   SSR_00_FLAGS+9,   BANKED
  00000000                M LLIM_LTN --
                          M          SET_SSR_STEADY 8
                          M          SET_SSR_VALUE 8,   255
000A5A 0104               M         BANKSEL SSR_DATA_BANK
000A5C 0EFF               M          MOVLW  255
000A5E 6F00               M          MOVWF  SSR_00_VALUE+8,   BANKED
000A60 6B00               M          CLRF   SSR_00_STEP+8,   BANKED
000A62 6B00               M          CLRF   SSR_00_SPEED+8,   BANKED
000A64 6B00               M          CLRF   SSR_00_COUNTER+8,   BANKED
000A66 6B00               M          CLRF   SSR_00_FLAGS+8,   BANKED
                          M         ENDW
000A68 D???               M         BRA     LLIM_END_13
                          M         
000A6A                    M LLIM_OFF_13:
                          M         ;
                          M         ; button pressed or masked, or scan is off; 
                          M         ; turn off until the host computer
                          M         ; stops the scan and awards the winner
                          M         ;
  00000003                M LLIM_LTN SET    3
                          M         WHILE LLIM_LTN > 0
  00000002                M LLIM_LTN --
                          M          SET_SSR_OFF 10
                          M          SET_SSR_VALUE 10,  0
000A6A 0104               M         BANKSEL SSR_DATA_BANK
000A6C 0E00               M          MOVLW  0
000A6E 6F00               M          MOVWF  SSR_00_VALUE+10,  BANKED
000A70 6B00               M          CLRF   SSR_00_STEP+10,  BANKED
000A72 6B00               M          CLRF   SSR_00_SPEED+10,  BANKED
000A74 6B00               M          CLRF   SSR_00_COUNTER+10,  BANKED
000A76 6B00               M          CLRF   SSR_00_FLAGS+10,  BANKED
  00000001                M LLIM_LTN --
                          M          SET_SSR_OFF 9
                          M          SET_SSR_VALUE 9,   0
000A78 0104               M         BANKSEL SSR_DATA_BANK
000A7A 0E00               M          MOVLW  0
000A7C 6F00               M          MOVWF  SSR_00_VALUE+9,   BANKED
000A7E 6B00               M          CLRF   SSR_00_STEP+9,   BANKED
000A80 6B00               M          CLRF   SSR_00_SPEED+9,   BANKED
000A82 6B00               M          CLRF   SSR_00_COUNTER+9,   BANKED
000A84 6B00               M          CLRF   SSR_00_FLAGS+9,   BANKED
  00000000                M LLIM_LTN --
                          M          SET_SSR_OFF 8
                          M          SET_SSR_VALUE 8,   0
000A86 0104               M         BANKSEL SSR_DATA_BANK
000A88 0E00               M          MOVLW  0
000A8A 6F00               M          MOVWF  SSR_00_VALUE+8,   BANKED
000A8C 6B00               M          CLRF   SSR_00_STEP+8,   BANKED
000A8E 6B00               M          CLRF   SSR_00_SPEED+8,   BANKED
000A90 6B00               M          CLRF   SSR_00_COUNTER+8,   BANKED
000A92 6B00               M          CLRF   SSR_00_FLAGS+8,   BANKED
                          M         ENDW
                          M 
000A94                    M LLIM_END_13:
000A94 010C               M         BANKSEL QUIZSHOW_DATA
  0000000E                M LLIM_N  ++
                          M 
000A96                    M SCN_DB_DONE_4:
                          M         ;
                          M         ; We're done with the button debouncing operations.
                          M         ;
                          M         ; If we're processing the 120Hz cleanup operations, do them now
                          M         ; for this button.
                          M         ;
000A96 A400               M         BTFSS   QUIZSHOW_FLAGS, QS_FLAG_DOING120, ACCESS
000A98 D???               M         BRA     SCN_DB_END_4
                          M         ;
                          M         ; If the button is locked out, decrement its timer. If it reaches
                          M         ; zero, we can release the lock now.
                          M         ;
000A9A 010C               M         BANKSEL QUIZSHOW_DATA
000A9C B500               M         BTFSC   BTN_X0_FLAGS+4,           BTN_FLG_LOCKED, BANKED
000A9E 2F00               M         DECFSZ  BTN_X0_LOCKTMR+4,           F, BANKED
000AA0 D???               M         BRA     SCN_DB_END_4
000AA2 9500               M         BCF     BTN_X0_FLAGS+4,           BTN_FLG_LOCKED, BANKED        ; release the lock
000AA4 9900               M         BCF     BTN_X0_FLAGS+4,           BTN_FLG_LCK_ACK, BANKED
                          M         LOCAL_LIGHT_INDICATOR BTN_IDX_X2, CHAN_X2R, 3, CHAN_X2R
000AA6 010C               M         BANKSEL QUIZSHOW_DATA
MPASM 5.66              ../QUIZSHOW_MAIN.ASM   3-1-2017  12:21:15         PAGE 52


LOC  OBJECT CODE     LINE SOURCE TEXT
  VALUE

000AA8 A500               M         BTFSS   BTN_X0_FLAGS+4,           BTN_FLG_LOCKED, BANKED
000AAA D???               M         BRA     LLIM_NOT_LOCKED_14
000AAC B900               M         BTFSC   BTN_X0_FLAGS+4,           BTN_FLG_LCK_ACK, BANKED
000AAE D???               M         BRA     LLIM_NOT_LOCKED_14
                          M         ;
                          M         ; light up for locked mode for the first time
                          M         ;
000AB0 8900               M         BSF     BTN_X0_FLAGS+4,           BTN_FLG_LCK_ACK, BANKED       ; don't do it again
  00000003                M LLIM_LTN SET    3
                          M         WHILE LLIM_LTN > 0
  00000002                M LLIM_LTN --
                          M          SET_SSR_OFF 10
                          M          SET_SSR_VALUE 10,  0
000AB2 0104               M         BANKSEL SSR_DATA_BANK
000AB4 0E00               M          MOVLW  0
000AB6 6F00               M          MOVWF  SSR_00_VALUE+10,  BANKED
000AB8 6B00               M          CLRF   SSR_00_STEP+10,  BANKED
000ABA 6B00               M          CLRF   SSR_00_SPEED+10,  BANKED
000ABC 6B00               M          CLRF   SSR_00_COUNTER+10,  BANKED
000ABE 6B00               M          CLRF   SSR_00_FLAGS+10,  BANKED
  00000001                M LLIM_LTN --
                          M          SET_SSR_OFF 9
                          M          SET_SSR_VALUE 9,   0
000AC0 0104               M         BANKSEL SSR_DATA_BANK
000AC2 0E00               M          MOVLW  0
000AC4 6F00               M          MOVWF  SSR_00_VALUE+9,   BANKED
000AC6 6B00               M          CLRF   SSR_00_STEP+9,   BANKED
000AC8 6B00               M          CLRF   SSR_00_SPEED+9,   BANKED
000ACA 6B00               M          CLRF   SSR_00_COUNTER+9,   BANKED
000ACC 6B00               M          CLRF   SSR_00_FLAGS+9,   BANKED
  00000000                M LLIM_LTN --
                          M          SET_SSR_OFF 8
                          M          SET_SSR_VALUE 8,   0
000ACE 0104               M         BANKSEL SSR_DATA_BANK
000AD0 0E00               M          MOVLW  0
000AD2 6F00               M          MOVWF  SSR_00_VALUE+8,   BANKED
000AD4 6B00               M          CLRF   SSR_00_STEP+8,   BANKED
000AD6 6B00               M          CLRF   SSR_00_SPEED+8,   BANKED
000AD8 6B00               M          CLRF   SSR_00_COUNTER+8,   BANKED
000ADA 6B00               M          CLRF   SSR_00_FLAGS+8,   BANKED
                          M         ENDW
                          M         SET_SSR_RAPID_FADE CHAN_X2R
                          M          SET_SSR_PATTERN CHAN_X2R, 0, 4, 1, BIT_FADE_UP|BIT_FADE_CYCLE
000ADC 0104               M         BANKSEL SSR_DATA_BANK
000ADE 0E00               M          MOVLW  0
000AE0 6F00               M          MOVWF  SSR_00_VALUE+CHAN_X2R, BANKED
000AE2 0E04               M          MOVLW  4
000AE4 6F00               M          MOVWF  SSR_00_STEP+CHAN_X2R, BANKED
000AE6 0E01               M          MOVLW  1
000AE8 6F00               M          MOVWF  SSR_00_SPEED+CHAN_X2R, BANKED
000AEA 6F00               M          MOVWF  SSR_00_COUNTER+CHAN_X2R, BANKED
000AEC 0EA0               M          MOVLW  BIT_FADE_UP|BIT_FADE_CYCLE
000AEE 6F00               M          MOVWF  SSR_00_FLAGS+CHAN_X2R, BANKED
000AF0 D???               M         BRA     LLIM_END_14
                          M 
000AF2                    M LLIM_NOT_LOCKED_14:
000AF2 010C               M         BANKSEL QUIZSHOW_DATA
000AF4 B300               M         BTFSC   BTN_X0_FLAGS+4,           BTN_FLG_MASKED, BANKED
000AF6 D???               M         BRA     LLIM_OFF_14
000AF8 B100               M         BTFSC   BTN_X0_FLAGS+4,           BTN_FLG_PRESSED, BANKED
000AFA D???               M         BRA     LLIM_OFF_14
000AFC A000               M         BTFSS   QUIZSHOW_FLAGS, QS_FLAG_SCANNING, ACCESS
000AFE D???               M         BRA     LLIM_OFF_14
                          M         ;
                          M         ; scanning and not pressed or masked? light up fully
                          M         ;
  00000003                M LLIM_LTN SET    3
                          M         WHILE LLIM_LTN > 0
  00000002                M LLIM_LTN --
                          M          SET_SSR_STEADY 10
                          M          SET_SSR_VALUE 10,  255
000B00 0104               M         BANKSEL SSR_DATA_BANK
000B02 0EFF               M          MOVLW  255
000B04 6F00               M          MOVWF  SSR_00_VALUE+10,  BANKED
000B06 6B00               M          CLRF   SSR_00_STEP+10,  BANKED
000B08 6B00               M          CLRF   SSR_00_SPEED+10,  BANKED
000B0A 6B00               M          CLRF   SSR_00_COUNTER+10,  BANKED
000B0C 6B00               M          CLRF   SSR_00_FLAGS+10,  BANKED
  00000001                M LLIM_LTN --
                          M          SET_SSR_STEADY 9
MPASM 5.66              ../QUIZSHOW_MAIN.ASM   3-1-2017  12:21:15         PAGE 53


LOC  OBJECT CODE     LINE SOURCE TEXT
  VALUE

                          M          SET_SSR_VALUE 9,   255
000B0E 0104               M         BANKSEL SSR_DATA_BANK
000B10 0EFF               M          MOVLW  255
000B12 6F00               M          MOVWF  SSR_00_VALUE+9,   BANKED
000B14 6B00               M          CLRF   SSR_00_STEP+9,   BANKED
000B16 6B00               M          CLRF   SSR_00_SPEED+9,   BANKED
000B18 6B00               M          CLRF   SSR_00_COUNTER+9,   BANKED
000B1A 6B00               M          CLRF   SSR_00_FLAGS+9,   BANKED
  00000000                M LLIM_LTN --
                          M          SET_SSR_STEADY 8
                          M          SET_SSR_VALUE 8,   255
000B1C 0104               M         BANKSEL SSR_DATA_BANK
000B1E 0EFF               M          MOVLW  255
000B20 6F00               M          MOVWF  SSR_00_VALUE+8,   BANKED
000B22 6B00               M          CLRF   SSR_00_STEP+8,   BANKED
000B24 6B00               M          CLRF   SSR_00_SPEED+8,   BANKED
000B26 6B00               M          CLRF   SSR_00_COUNTER+8,   BANKED
000B28 6B00               M          CLRF   SSR_00_FLAGS+8,   BANKED
                          M         ENDW
000B2A D???               M         BRA     LLIM_END_14
                          M         
000B2C                    M LLIM_OFF_14:
                          M         ;
                          M         ; button pressed or masked, or scan is off; 
                          M         ; turn off until the host computer
                          M         ; stops the scan and awards the winner
                          M         ;
  00000003                M LLIM_LTN SET    3
                          M         WHILE LLIM_LTN > 0
  00000002                M LLIM_LTN --
                          M          SET_SSR_OFF 10
                          M          SET_SSR_VALUE 10,  0
000B2C 0104               M         BANKSEL SSR_DATA_BANK
000B2E 0E00               M          MOVLW  0
000B30 6F00               M          MOVWF  SSR_00_VALUE+10,  BANKED
000B32 6B00               M          CLRF   SSR_00_STEP+10,  BANKED
000B34 6B00               M          CLRF   SSR_00_SPEED+10,  BANKED
000B36 6B00               M          CLRF   SSR_00_COUNTER+10,  BANKED
000B38 6B00               M          CLRF   SSR_00_FLAGS+10,  BANKED
  00000001                M LLIM_LTN --
                          M          SET_SSR_OFF 9
                          M          SET_SSR_VALUE 9,   0
000B3A 0104               M         BANKSEL SSR_DATA_BANK
000B3C 0E00               M          MOVLW  0
000B3E 6F00               M          MOVWF  SSR_00_VALUE+9,   BANKED
000B40 6B00               M          CLRF   SSR_00_STEP+9,   BANKED
000B42 6B00               M          CLRF   SSR_00_SPEED+9,   BANKED
000B44 6B00               M          CLRF   SSR_00_COUNTER+9,   BANKED
000B46 6B00               M          CLRF   SSR_00_FLAGS+9,   BANKED
  00000000                M LLIM_LTN --
                          M          SET_SSR_OFF 8
                          M          SET_SSR_VALUE 8,   0
000B48 0104               M         BANKSEL SSR_DATA_BANK
000B4A 0E00               M          MOVLW  0
000B4C 6F00               M          MOVWF  SSR_00_VALUE+8,   BANKED
000B4E 6B00               M          CLRF   SSR_00_STEP+8,   BANKED
000B50 6B00               M          CLRF   SSR_00_SPEED+8,   BANKED
000B52 6B00               M          CLRF   SSR_00_COUNTER+8,   BANKED
000B54 6B00               M          CLRF   SSR_00_FLAGS+8,   BANKED
                          M         ENDW
                          M 
000B56                    M LLIM_END_14:
000B56 010C               M         BANKSEL QUIZSHOW_DATA
  0000000F                M LLIM_N  ++
                          M 
000B58                    M SCN_DB_END_4:
  00000005                M SCN_DBN ++
                      01012           SCAN_DEBOUNCE BTN_IDX_L2, PORT_L2, BIT_L2, CHAN_L2R, 1, CHAN_L2R
000B58 010C               M         BANKSEL QUIZSHOW_DATA
000B5A 0004               M         CLRWDT
                          M         ;
                          M         ; Sense button state: 
                          M         ;  0=pressed
                          M         ;  1=released
                          M         ;
000B5C AA80               M         BTFSS   3968,         BIT_L2,  ACCESS
000B5E D???               M         BRA     SCN_DB_DOWN_5           ; pressed? branch
                          M         ;
                          M         ; button senses as "up". drain debounce counter if possible
                          M         ;
MPASM 5.66              ../QUIZSHOW_MAIN.ASM   3-1-2017  12:21:15         PAGE 54


LOC  OBJECT CODE     LINE SOURCE TEXT
  VALUE

000B60 6700               M         TSTFSZ  BTN_X0_DEB_TMR+5,           BANKED
000B62 D???               M         BRA     SCN_DB_DRAIN_5
                          M         ;
                          M         ; The button is officially "up".  If this is news, respond
                          M         ; to this change now.  All we need to do is note the status
                          M         ; change. Everything else happens later when the code notices
                          M         ; this flag state.
                          M         ;
000B64 9700               M         BCF     BTN_X0_FLAGS+5,           BTN_FLG_ACTIVE, BANKED
000B66 D???               M         BRA     SCN_DB_DONE_5
                          M 
000B68                    M SCN_DB_DRAIN_5:
                          M         ;
                          M         ; Drain the button debounce counter
                          M         ;
000B68 010C               M         BANKSEL QUIZSHOW_DATA
000B6A 0700               M         DECF    BTN_X0_DEB_TMR+5,           F, BANKED
000B6C D???               M         BRA     SCN_DB_DONE_5
                          M 
000B6E                    M SCN_DB_RST_LCK_5:
                          M         ;
                          M         ; The button needs to be locked out!
                          M         ; We found them pushing the button when they weren't supposed to.
                          M         ;
000B6E 010C               M         BANKSEL QUIZSHOW_DATA
000B70 8500               M         BSF     BTN_X0_FLAGS+5,           BTN_FLG_LOCKED, BANKED
000B72 C??? F???          M         MOVFF   QUIZSHOW_LCKTM, BTN_X0_LOCKTMR+5
                          M         LOCAL_LIGHT_INDICATOR BTN_IDX_L2, CHAN_L2R, 1, CHAN_L2R
000B76 010C               M         BANKSEL QUIZSHOW_DATA
000B78 A500               M         BTFSS   BTN_X0_FLAGS+5,           BTN_FLG_LOCKED, BANKED
000B7A D???               M         BRA     LLIM_NOT_LOCKED_15
000B7C B900               M         BTFSC   BTN_X0_FLAGS+5,           BTN_FLG_LCK_ACK, BANKED
000B7E D???               M         BRA     LLIM_NOT_LOCKED_15
                          M         ;
                          M         ; light up for locked mode for the first time
                          M         ;
000B80 8900               M         BSF     BTN_X0_FLAGS+5,           BTN_FLG_LCK_ACK, BANKED       ; don't do it again
  00000001                M LLIM_LTN SET    1
                          M         WHILE LLIM_LTN > 0
  00000000                M LLIM_LTN --
                          M          SET_SSR_OFF 11
                          M          SET_SSR_VALUE 11,  0
000B82 0104               M         BANKSEL SSR_DATA_BANK
000B84 0E00               M          MOVLW  0
000B86 6F00               M          MOVWF  SSR_00_VALUE+11,  BANKED
000B88 6B00               M          CLRF   SSR_00_STEP+11,  BANKED
000B8A 6B00               M          CLRF   SSR_00_SPEED+11,  BANKED
000B8C 6B00               M          CLRF   SSR_00_COUNTER+11,  BANKED
000B8E 6B00               M          CLRF   SSR_00_FLAGS+11,  BANKED
                          M         ENDW
                          M         SET_SSR_RAPID_FADE CHAN_L2R
                          M          SET_SSR_PATTERN CHAN_L2R, 0, 4, 1, BIT_FADE_UP|BIT_FADE_CYCLE
000B90 0104               M         BANKSEL SSR_DATA_BANK
000B92 0E00               M          MOVLW  0
000B94 6F00               M          MOVWF  SSR_00_VALUE+CHAN_L2R, BANKED
000B96 0E04               M          MOVLW  4
000B98 6F00               M          MOVWF  SSR_00_STEP+CHAN_L2R, BANKED
000B9A 0E01               M          MOVLW  1
000B9C 6F00               M          MOVWF  SSR_00_SPEED+CHAN_L2R, BANKED
000B9E 6F00               M          MOVWF  SSR_00_COUNTER+CHAN_L2R, BANKED
000BA0 0EA0               M          MOVLW  BIT_FADE_UP|BIT_FADE_CYCLE
000BA2 6F00               M          MOVWF  SSR_00_FLAGS+CHAN_L2R, BANKED
000BA4 D???               M         BRA     LLIM_END_15
                          M 
000BA6                    M LLIM_NOT_LOCKED_15:
000BA6 010C               M         BANKSEL QUIZSHOW_DATA
000BA8 B300               M         BTFSC   BTN_X0_FLAGS+5,           BTN_FLG_MASKED, BANKED
000BAA D???               M         BRA     LLIM_OFF_15
000BAC B100               M         BTFSC   BTN_X0_FLAGS+5,           BTN_FLG_PRESSED, BANKED
000BAE D???               M         BRA     LLIM_OFF_15
000BB0 A000               M         BTFSS   QUIZSHOW_FLAGS, QS_FLAG_SCANNING, ACCESS
000BB2 D???               M         BRA     LLIM_OFF_15
                          M         ;
                          M         ; scanning and not pressed or masked? light up fully
                          M         ;
  00000001                M LLIM_LTN SET    1
                          M         WHILE LLIM_LTN > 0
  00000000                M LLIM_LTN --
                          M          SET_SSR_STEADY 11
                          M          SET_SSR_VALUE 11,  255
MPASM 5.66              ../QUIZSHOW_MAIN.ASM   3-1-2017  12:21:15         PAGE 55


LOC  OBJECT CODE     LINE SOURCE TEXT
  VALUE

000BB4 0104               M         BANKSEL SSR_DATA_BANK
000BB6 0EFF               M          MOVLW  255
000BB8 6F00               M          MOVWF  SSR_00_VALUE+11,  BANKED
000BBA 6B00               M          CLRF   SSR_00_STEP+11,  BANKED
000BBC 6B00               M          CLRF   SSR_00_SPEED+11,  BANKED
000BBE 6B00               M          CLRF   SSR_00_COUNTER+11,  BANKED
000BC0 6B00               M          CLRF   SSR_00_FLAGS+11,  BANKED
                          M         ENDW
000BC2 D???               M         BRA     LLIM_END_15
                          M         
000BC4                    M LLIM_OFF_15:
                          M         ;
                          M         ; button pressed or masked, or scan is off; 
                          M         ; turn off until the host computer
                          M         ; stops the scan and awards the winner
                          M         ;
  00000001                M LLIM_LTN SET    1
                          M         WHILE LLIM_LTN > 0
  00000000                M LLIM_LTN --
                          M          SET_SSR_OFF 11
                          M          SET_SSR_VALUE 11,  0
000BC4 0104               M         BANKSEL SSR_DATA_BANK
000BC6 0E00               M          MOVLW  0
000BC8 6F00               M          MOVWF  SSR_00_VALUE+11,  BANKED
000BCA 6B00               M          CLRF   SSR_00_STEP+11,  BANKED
000BCC 6B00               M          CLRF   SSR_00_SPEED+11,  BANKED
000BCE 6B00               M          CLRF   SSR_00_COUNTER+11,  BANKED
000BD0 6B00               M          CLRF   SSR_00_FLAGS+11,  BANKED
                          M         ENDW
                          M 
000BD2                    M LLIM_END_15:
000BD2 010C               M         BANKSEL QUIZSHOW_DATA
  00000010                M LLIM_N  ++
000BD4 D???               M         BRA     SCN_DB_DONE_5
                          M 
000BD6                    M SCN_DB_DOWN_5:
                          M         ;
                          M         ; button senses as "down". fill debounce counter if possible
                          M         ;
000BD6 010C               M         BANKSEL QUIZSHOW_DATA
000BD8 3F00               M         INCFSZ  BTN_X0_DEB_TMR+5,           F, BANKED
000BDA D???               M         BRA     SCN_DB_DONE_5
                          M         ;
                          M         ; counter was full (since we overflowed it to 0 again). so
                          M         ; the button is officially "down".  Put the counter back
                          M         ; to 255 and proceed with what it means for the button to be
                          M         ; officially down.
                          M         ;
000BDC 6900               M         SETF    BTN_X0_DEB_TMR+5,           BANKED
000BDE B500               M         BTFSC   BTN_X0_FLAGS+5,           BTN_FLG_LOCKED, BANKED        ; is it locked?
000BE0 D???               M         BRA     SCN_DB_RST_LCK_5                                ; stay locked longer
000BE2 B700               M         BTFSC   BTN_X0_FLAGS+5,           BTN_FLG_ACTIVE, BANKED        ; if we already saw the button p
                            ress
000BE4 D???               M         BRA     SCN_DB_DONE_5                                   ;   then we don't need to do anything mo
                            re
                          M         ;
                          M         ; We didn't know the button was down yet. Let's see what
                          M         ; that changes...
                          M         ;
000BE6 8700               M         BSF     BTN_X0_FLAGS+5,           BTN_FLG_ACTIVE, BANKED        ; mark as "down"
000BE8 B300               M         BTFSC   BTN_X0_FLAGS+5,           BTN_FLG_MASKED, BANKED        ; is it masked?
000BEA D???               M         BRA     SCN_DB_DONE_5                                   ; then ignore it
000BEC B100               M         BTFSC   BTN_X0_FLAGS+5,           BTN_FLG_PRESSED, BANKED       ; already noted?
000BEE D???               M         BRA     SCN_DB_DONE_5                                   ; then we're already done
000BF0 A000               M         BTFSS   QUIZSHOW_FLAGS, QS_FLAG_SCANNING, ACCESS        ; legal to press?
000BF2 D???               M         BRA     SCN_DB_RST_LCK_5                                ; if not, lock out!
                          M         ;
                          M         ; The button was pressed legally and this is the first time we
                          M         ; noticed it. Record it as the official press for this button.
                          M         ;
000BF4 8100               M         BSF     BTN_X0_FLAGS+5,           BTN_FLG_PRESSED, BANKED
000BF6 9EF2               M         BCF     INTCON, 7, ACCESS                               ; disable interrupts
000BF8 9CF2               M         BCF     INTCON, 6, ACCESS                               ; disable interrupts
000BFA C??? F???          M         MOVFF   QS_BTN_TMR_U, BTN_X0_TIME_U+5
000BFE C??? F???          M         MOVFF   QS_BTN_TMR_T, BTN_X0_TIME_T+5
000C02 CFCE F???          M         MOVFF   TMR1L, BTN_X0_TIME_L+5
000C06 CFCF F???          M         MOVFF   TMR1H, BTN_X0_TIME_H+5
000C0A 8EF2               M         BSF     INTCON, 7, ACCESS                               ; enable interrupts
000C0C 8CF2               M         BSF     INTCON, 6, ACCESS                               ; enable interrupts
                          M         LOCAL_LIGHT_INDICATOR BTN_IDX_L2, CHAN_L2R, 1, CHAN_L2R
MPASM 5.66              ../QUIZSHOW_MAIN.ASM   3-1-2017  12:21:15         PAGE 56


LOC  OBJECT CODE     LINE SOURCE TEXT
  VALUE

000C0E 010C               M         BANKSEL QUIZSHOW_DATA
000C10 A500               M         BTFSS   BTN_X0_FLAGS+5,           BTN_FLG_LOCKED, BANKED
000C12 D???               M         BRA     LLIM_NOT_LOCKED_16
000C14 B900               M         BTFSC   BTN_X0_FLAGS+5,           BTN_FLG_LCK_ACK, BANKED
000C16 D???               M         BRA     LLIM_NOT_LOCKED_16
                          M         ;
                          M         ; light up for locked mode for the first time
                          M         ;
000C18 8900               M         BSF     BTN_X0_FLAGS+5,           BTN_FLG_LCK_ACK, BANKED       ; don't do it again
  00000001                M LLIM_LTN SET    1
                          M         WHILE LLIM_LTN > 0
  00000000                M LLIM_LTN --
                          M          SET_SSR_OFF 11
                          M          SET_SSR_VALUE 11,  0
000C1A 0104               M         BANKSEL SSR_DATA_BANK
000C1C 0E00               M          MOVLW  0
000C1E 6F00               M          MOVWF  SSR_00_VALUE+11,  BANKED
000C20 6B00               M          CLRF   SSR_00_STEP+11,  BANKED
000C22 6B00               M          CLRF   SSR_00_SPEED+11,  BANKED
000C24 6B00               M          CLRF   SSR_00_COUNTER+11,  BANKED
000C26 6B00               M          CLRF   SSR_00_FLAGS+11,  BANKED
                          M         ENDW
                          M         SET_SSR_RAPID_FADE CHAN_L2R
                          M          SET_SSR_PATTERN CHAN_L2R, 0, 4, 1, BIT_FADE_UP|BIT_FADE_CYCLE
000C28 0104               M         BANKSEL SSR_DATA_BANK
000C2A 0E00               M          MOVLW  0
000C2C 6F00               M          MOVWF  SSR_00_VALUE+CHAN_L2R, BANKED
000C2E 0E04               M          MOVLW  4
000C30 6F00               M          MOVWF  SSR_00_STEP+CHAN_L2R, BANKED
000C32 0E01               M          MOVLW  1
000C34 6F00               M          MOVWF  SSR_00_SPEED+CHAN_L2R, BANKED
000C36 6F00               M          MOVWF  SSR_00_COUNTER+CHAN_L2R, BANKED
000C38 0EA0               M          MOVLW  BIT_FADE_UP|BIT_FADE_CYCLE
000C3A 6F00               M          MOVWF  SSR_00_FLAGS+CHAN_L2R, BANKED
000C3C D???               M         BRA     LLIM_END_16
                          M 
000C3E                    M LLIM_NOT_LOCKED_16:
000C3E 010C               M         BANKSEL QUIZSHOW_DATA
000C40 B300               M         BTFSC   BTN_X0_FLAGS+5,           BTN_FLG_MASKED, BANKED
000C42 D???               M         BRA     LLIM_OFF_16
000C44 B100               M         BTFSC   BTN_X0_FLAGS+5,           BTN_FLG_PRESSED, BANKED
000C46 D???               M         BRA     LLIM_OFF_16
000C48 A000               M         BTFSS   QUIZSHOW_FLAGS, QS_FLAG_SCANNING, ACCESS
000C4A D???               M         BRA     LLIM_OFF_16
                          M         ;
                          M         ; scanning and not pressed or masked? light up fully
                          M         ;
  00000001                M LLIM_LTN SET    1
                          M         WHILE LLIM_LTN > 0
  00000000                M LLIM_LTN --
                          M          SET_SSR_STEADY 11
                          M          SET_SSR_VALUE 11,  255
000C4C 0104               M         BANKSEL SSR_DATA_BANK
000C4E 0EFF               M          MOVLW  255
000C50 6F00               M          MOVWF  SSR_00_VALUE+11,  BANKED
000C52 6B00               M          CLRF   SSR_00_STEP+11,  BANKED
000C54 6B00               M          CLRF   SSR_00_SPEED+11,  BANKED
000C56 6B00               M          CLRF   SSR_00_COUNTER+11,  BANKED
000C58 6B00               M          CLRF   SSR_00_FLAGS+11,  BANKED
                          M         ENDW
000C5A D???               M         BRA     LLIM_END_16
                          M         
000C5C                    M LLIM_OFF_16:
                          M         ;
                          M         ; button pressed or masked, or scan is off; 
                          M         ; turn off until the host computer
                          M         ; stops the scan and awards the winner
                          M         ;
  00000001                M LLIM_LTN SET    1
                          M         WHILE LLIM_LTN > 0
  00000000                M LLIM_LTN --
                          M          SET_SSR_OFF 11
                          M          SET_SSR_VALUE 11,  0
000C5C 0104               M         BANKSEL SSR_DATA_BANK
000C5E 0E00               M          MOVLW  0
000C60 6F00               M          MOVWF  SSR_00_VALUE+11,  BANKED
000C62 6B00               M          CLRF   SSR_00_STEP+11,  BANKED
000C64 6B00               M          CLRF   SSR_00_SPEED+11,  BANKED
000C66 6B00               M          CLRF   SSR_00_COUNTER+11,  BANKED
000C68 6B00               M          CLRF   SSR_00_FLAGS+11,  BANKED
MPASM 5.66              ../QUIZSHOW_MAIN.ASM   3-1-2017  12:21:15         PAGE 57


LOC  OBJECT CODE     LINE SOURCE TEXT
  VALUE

                          M         ENDW
                          M 
000C6A                    M LLIM_END_16:
000C6A 010C               M         BANKSEL QUIZSHOW_DATA
  00000011                M LLIM_N  ++
                          M 
000C6C                    M SCN_DB_DONE_5:
                          M         ;
                          M         ; We're done with the button debouncing operations.
                          M         ;
                          M         ; If we're processing the 120Hz cleanup operations, do them now
                          M         ; for this button.
                          M         ;
000C6C A400               M         BTFSS   QUIZSHOW_FLAGS, QS_FLAG_DOING120, ACCESS
000C6E D???               M         BRA     SCN_DB_END_5
                          M         ;
                          M         ; If the button is locked out, decrement its timer. If it reaches
                          M         ; zero, we can release the lock now.
                          M         ;
000C70 010C               M         BANKSEL QUIZSHOW_DATA
000C72 B500               M         BTFSC   BTN_X0_FLAGS+5,           BTN_FLG_LOCKED, BANKED
000C74 2F00               M         DECFSZ  BTN_X0_LOCKTMR+5,           F, BANKED
000C76 D???               M         BRA     SCN_DB_END_5
000C78 9500               M         BCF     BTN_X0_FLAGS+5,           BTN_FLG_LOCKED, BANKED        ; release the lock
000C7A 9900               M         BCF     BTN_X0_FLAGS+5,           BTN_FLG_LCK_ACK, BANKED
                          M         LOCAL_LIGHT_INDICATOR BTN_IDX_L2, CHAN_L2R, 1, CHAN_L2R
000C7C 010C               M         BANKSEL QUIZSHOW_DATA
000C7E A500               M         BTFSS   BTN_X0_FLAGS+5,           BTN_FLG_LOCKED, BANKED
000C80 D???               M         BRA     LLIM_NOT_LOCKED_17
000C82 B900               M         BTFSC   BTN_X0_FLAGS+5,           BTN_FLG_LCK_ACK, BANKED
000C84 D???               M         BRA     LLIM_NOT_LOCKED_17
                          M         ;
                          M         ; light up for locked mode for the first time
                          M         ;
000C86 8900               M         BSF     BTN_X0_FLAGS+5,           BTN_FLG_LCK_ACK, BANKED       ; don't do it again
  00000001                M LLIM_LTN SET    1
                          M         WHILE LLIM_LTN > 0
  00000000                M LLIM_LTN --
                          M          SET_SSR_OFF 11
                          M          SET_SSR_VALUE 11,  0
000C88 0104               M         BANKSEL SSR_DATA_BANK
000C8A 0E00               M          MOVLW  0
000C8C 6F00               M          MOVWF  SSR_00_VALUE+11,  BANKED
000C8E 6B00               M          CLRF   SSR_00_STEP+11,  BANKED
000C90 6B00               M          CLRF   SSR_00_SPEED+11,  BANKED
000C92 6B00               M          CLRF   SSR_00_COUNTER+11,  BANKED
000C94 6B00               M          CLRF   SSR_00_FLAGS+11,  BANKED
                          M         ENDW
                          M         SET_SSR_RAPID_FADE CHAN_L2R
                          M          SET_SSR_PATTERN CHAN_L2R, 0, 4, 1, BIT_FADE_UP|BIT_FADE_CYCLE
000C96 0104               M         BANKSEL SSR_DATA_BANK
000C98 0E00               M          MOVLW  0
000C9A 6F00               M          MOVWF  SSR_00_VALUE+CHAN_L2R, BANKED
000C9C 0E04               M          MOVLW  4
000C9E 6F00               M          MOVWF  SSR_00_STEP+CHAN_L2R, BANKED
000CA0 0E01               M          MOVLW  1
000CA2 6F00               M          MOVWF  SSR_00_SPEED+CHAN_L2R, BANKED
000CA4 6F00               M          MOVWF  SSR_00_COUNTER+CHAN_L2R, BANKED
000CA6 0EA0               M          MOVLW  BIT_FADE_UP|BIT_FADE_CYCLE
000CA8 6F00               M          MOVWF  SSR_00_FLAGS+CHAN_L2R, BANKED
000CAA D???               M         BRA     LLIM_END_17
                          M 
000CAC                    M LLIM_NOT_LOCKED_17:
000CAC 010C               M         BANKSEL QUIZSHOW_DATA
000CAE B300               M         BTFSC   BTN_X0_FLAGS+5,           BTN_FLG_MASKED, BANKED
000CB0 D???               M         BRA     LLIM_OFF_17
000CB2 B100               M         BTFSC   BTN_X0_FLAGS+5,           BTN_FLG_PRESSED, BANKED
000CB4 D???               M         BRA     LLIM_OFF_17
000CB6 A000               M         BTFSS   QUIZSHOW_FLAGS, QS_FLAG_SCANNING, ACCESS
000CB8 D???               M         BRA     LLIM_OFF_17
                          M         ;
                          M         ; scanning and not pressed or masked? light up fully
                          M         ;
  00000001                M LLIM_LTN SET    1
                          M         WHILE LLIM_LTN > 0
  00000000                M LLIM_LTN --
                          M          SET_SSR_STEADY 11
                          M          SET_SSR_VALUE 11,  255
000CBA 0104               M         BANKSEL SSR_DATA_BANK
000CBC 0EFF               M          MOVLW  255
MPASM 5.66              ../QUIZSHOW_MAIN.ASM   3-1-2017  12:21:15         PAGE 58


LOC  OBJECT CODE     LINE SOURCE TEXT
  VALUE

000CBE 6F00               M          MOVWF  SSR_00_VALUE+11,  BANKED
000CC0 6B00               M          CLRF   SSR_00_STEP+11,  BANKED
000CC2 6B00               M          CLRF   SSR_00_SPEED+11,  BANKED
000CC4 6B00               M          CLRF   SSR_00_COUNTER+11,  BANKED
000CC6 6B00               M          CLRF   SSR_00_FLAGS+11,  BANKED
                          M         ENDW
000CC8 D???               M         BRA     LLIM_END_17
                          M         
000CCA                    M LLIM_OFF_17:
                          M         ;
                          M         ; button pressed or masked, or scan is off; 
                          M         ; turn off until the host computer
                          M         ; stops the scan and awards the winner
                          M         ;
  00000001                M LLIM_LTN SET    1
                          M         WHILE LLIM_LTN > 0
  00000000                M LLIM_LTN --
                          M          SET_SSR_OFF 11
                          M          SET_SSR_VALUE 11,  0
000CCA 0104               M         BANKSEL SSR_DATA_BANK
000CCC 0E00               M          MOVLW  0
000CCE 6F00               M          MOVWF  SSR_00_VALUE+11,  BANKED
000CD0 6B00               M          CLRF   SSR_00_STEP+11,  BANKED
000CD2 6B00               M          CLRF   SSR_00_SPEED+11,  BANKED
000CD4 6B00               M          CLRF   SSR_00_COUNTER+11,  BANKED
000CD6 6B00               M          CLRF   SSR_00_FLAGS+11,  BANKED
                          M         ENDW
                          M 
000CD8                    M LLIM_END_17:
000CD8 010C               M         BANKSEL QUIZSHOW_DATA
  00000012                M LLIM_N  ++
                          M 
000CDA                    M SCN_DB_END_5:
  00000006                M SCN_DBN ++
                      01013           SCAN_DEBOUNCE BTN_IDX_X3, PORT_X3, BIT_X3, CHAN_X3R, 3, CHAN_X3R
000CDA 010C               M         BANKSEL QUIZSHOW_DATA
000CDC 0004               M         CLRWDT
                          M         ;
                          M         ; Sense button state: 
                          M         ;  0=pressed
                          M         ;  1=released
                          M         ;
000CDE A882               M         BTFSS   3970,         BIT_X3,  ACCESS
000CE0 D???               M         BRA     SCN_DB_DOWN_6           ; pressed? branch
                          M         ;
                          M         ; button senses as "up". drain debounce counter if possible
                          M         ;
000CE2 6700               M         TSTFSZ  BTN_X0_DEB_TMR+6,           BANKED
000CE4 D???               M         BRA     SCN_DB_DRAIN_6
                          M         ;
                          M         ; The button is officially "up".  If this is news, respond
                          M         ; to this change now.  All we need to do is note the status
                          M         ; change. Everything else happens later when the code notices
                          M         ; this flag state.
                          M         ;
000CE6 9700               M         BCF     BTN_X0_FLAGS+6,           BTN_FLG_ACTIVE, BANKED
000CE8 D???               M         BRA     SCN_DB_DONE_6
                          M 
000CEA                    M SCN_DB_DRAIN_6:
                          M         ;
                          M         ; Drain the button debounce counter
                          M         ;
000CEA 010C               M         BANKSEL QUIZSHOW_DATA
000CEC 0700               M         DECF    BTN_X0_DEB_TMR+6,           F, BANKED
000CEE D???               M         BRA     SCN_DB_DONE_6
                          M 
000CF0                    M SCN_DB_RST_LCK_6:
                          M         ;
                          M         ; The button needs to be locked out!
                          M         ; We found them pushing the button when they weren't supposed to.
                          M         ;
000CF0 010C               M         BANKSEL QUIZSHOW_DATA
000CF2 8500               M         BSF     BTN_X0_FLAGS+6,           BTN_FLG_LOCKED, BANKED
000CF4 C??? F???          M         MOVFF   QUIZSHOW_LCKTM, BTN_X0_LOCKTMR+6
                          M         LOCAL_LIGHT_INDICATOR BTN_IDX_X3, CHAN_X3R, 3, CHAN_X3R
000CF8 010C               M         BANKSEL QUIZSHOW_DATA
000CFA A500               M         BTFSS   BTN_X0_FLAGS+6,           BTN_FLG_LOCKED, BANKED
000CFC D???               M         BRA     LLIM_NOT_LOCKED_18
000CFE B900               M         BTFSC   BTN_X0_FLAGS+6,           BTN_FLG_LCK_ACK, BANKED
000D00 D???               M         BRA     LLIM_NOT_LOCKED_18
MPASM 5.66              ../QUIZSHOW_MAIN.ASM   3-1-2017  12:21:15         PAGE 59


LOC  OBJECT CODE     LINE SOURCE TEXT
  VALUE

                          M         ;
                          M         ; light up for locked mode for the first time
                          M         ;
000D02 8900               M         BSF     BTN_X0_FLAGS+6,           BTN_FLG_LCK_ACK, BANKED       ; don't do it again
  00000003                M LLIM_LTN SET    3
                          M         WHILE LLIM_LTN > 0
  00000002                M LLIM_LTN --
                          M          SET_SSR_OFF 14
                          M          SET_SSR_VALUE 14,  0
000D04 0104               M         BANKSEL SSR_DATA_BANK
000D06 0E00               M          MOVLW  0
000D08 6F00               M          MOVWF  SSR_00_VALUE+14,  BANKED
000D0A 6B00               M          CLRF   SSR_00_STEP+14,  BANKED
000D0C 6B00               M          CLRF   SSR_00_SPEED+14,  BANKED
000D0E 6B00               M          CLRF   SSR_00_COUNTER+14,  BANKED
000D10 6B00               M          CLRF   SSR_00_FLAGS+14,  BANKED
  00000001                M LLIM_LTN --
                          M          SET_SSR_OFF 13
                          M          SET_SSR_VALUE 13,  0
000D12 0104               M         BANKSEL SSR_DATA_BANK
000D14 0E00               M          MOVLW  0
000D16 6F00               M          MOVWF  SSR_00_VALUE+13,  BANKED
000D18 6B00               M          CLRF   SSR_00_STEP+13,  BANKED
000D1A 6B00               M          CLRF   SSR_00_SPEED+13,  BANKED
000D1C 6B00               M          CLRF   SSR_00_COUNTER+13,  BANKED
000D1E 6B00               M          CLRF   SSR_00_FLAGS+13,  BANKED
  00000000                M LLIM_LTN --
                          M          SET_SSR_OFF 12
                          M          SET_SSR_VALUE 12,  0
000D20 0104               M         BANKSEL SSR_DATA_BANK
000D22 0E00               M          MOVLW  0
000D24 6F00               M          MOVWF  SSR_00_VALUE+12,  BANKED
000D26 6B00               M          CLRF   SSR_00_STEP+12,  BANKED
000D28 6B00               M          CLRF   SSR_00_SPEED+12,  BANKED
000D2A 6B00               M          CLRF   SSR_00_COUNTER+12,  BANKED
000D2C 6B00               M          CLRF   SSR_00_FLAGS+12,  BANKED
                          M         ENDW
                          M         SET_SSR_RAPID_FADE CHAN_X3R
                          M          SET_SSR_PATTERN CHAN_X3R, 0, 4, 1, BIT_FADE_UP|BIT_FADE_CYCLE
000D2E 0104               M         BANKSEL SSR_DATA_BANK
000D30 0E00               M          MOVLW  0
000D32 6F00               M          MOVWF  SSR_00_VALUE+CHAN_X3R, BANKED
000D34 0E04               M          MOVLW  4
000D36 6F00               M          MOVWF  SSR_00_STEP+CHAN_X3R, BANKED
000D38 0E01               M          MOVLW  1
000D3A 6F00               M          MOVWF  SSR_00_SPEED+CHAN_X3R, BANKED
000D3C 6F00               M          MOVWF  SSR_00_COUNTER+CHAN_X3R, BANKED
000D3E 0EA0               M          MOVLW  BIT_FADE_UP|BIT_FADE_CYCLE
000D40 6F00               M          MOVWF  SSR_00_FLAGS+CHAN_X3R, BANKED
000D42 D???               M         BRA     LLIM_END_18
                          M 
000D44                    M LLIM_NOT_LOCKED_18:
000D44 010C               M         BANKSEL QUIZSHOW_DATA
000D46 B300               M         BTFSC   BTN_X0_FLAGS+6,           BTN_FLG_MASKED, BANKED
000D48 D???               M         BRA     LLIM_OFF_18
000D4A B100               M         BTFSC   BTN_X0_FLAGS+6,           BTN_FLG_PRESSED, BANKED
000D4C D???               M         BRA     LLIM_OFF_18
000D4E A000               M         BTFSS   QUIZSHOW_FLAGS, QS_FLAG_SCANNING, ACCESS
000D50 D???               M         BRA     LLIM_OFF_18
                          M         ;
                          M         ; scanning and not pressed or masked? light up fully
                          M         ;
  00000003                M LLIM_LTN SET    3
                          M         WHILE LLIM_LTN > 0
  00000002                M LLIM_LTN --
                          M          SET_SSR_STEADY 14
                          M          SET_SSR_VALUE 14,  255
000D52 0104               M         BANKSEL SSR_DATA_BANK
000D54 0EFF               M          MOVLW  255
000D56 6F00               M          MOVWF  SSR_00_VALUE+14,  BANKED
000D58 6B00               M          CLRF   SSR_00_STEP+14,  BANKED
000D5A 6B00               M          CLRF   SSR_00_SPEED+14,  BANKED
000D5C 6B00               M          CLRF   SSR_00_COUNTER+14,  BANKED
000D5E 6B00               M          CLRF   SSR_00_FLAGS+14,  BANKED
  00000001                M LLIM_LTN --
                          M          SET_SSR_STEADY 13
                          M          SET_SSR_VALUE 13,  255
000D60 0104               M         BANKSEL SSR_DATA_BANK
000D62 0EFF               M          MOVLW  255
000D64 6F00               M          MOVWF  SSR_00_VALUE+13,  BANKED
MPASM 5.66              ../QUIZSHOW_MAIN.ASM   3-1-2017  12:21:15         PAGE 60


LOC  OBJECT CODE     LINE SOURCE TEXT
  VALUE

000D66 6B00               M          CLRF   SSR_00_STEP+13,  BANKED
000D68 6B00               M          CLRF   SSR_00_SPEED+13,  BANKED
000D6A 6B00               M          CLRF   SSR_00_COUNTER+13,  BANKED
000D6C 6B00               M          CLRF   SSR_00_FLAGS+13,  BANKED
  00000000                M LLIM_LTN --
                          M          SET_SSR_STEADY 12
                          M          SET_SSR_VALUE 12,  255
000D6E 0104               M         BANKSEL SSR_DATA_BANK
000D70 0EFF               M          MOVLW  255
000D72 6F00               M          MOVWF  SSR_00_VALUE+12,  BANKED
000D74 6B00               M          CLRF   SSR_00_STEP+12,  BANKED
000D76 6B00               M          CLRF   SSR_00_SPEED+12,  BANKED
000D78 6B00               M          CLRF   SSR_00_COUNTER+12,  BANKED
000D7A 6B00               M          CLRF   SSR_00_FLAGS+12,  BANKED
                          M         ENDW
000D7C D???               M         BRA     LLIM_END_18
                          M         
000D7E                    M LLIM_OFF_18:
                          M         ;
                          M         ; button pressed or masked, or scan is off; 
                          M         ; turn off until the host computer
                          M         ; stops the scan and awards the winner
                          M         ;
  00000003                M LLIM_LTN SET    3
                          M         WHILE LLIM_LTN > 0
  00000002                M LLIM_LTN --
                          M          SET_SSR_OFF 14
                          M          SET_SSR_VALUE 14,  0
000D7E 0104               M         BANKSEL SSR_DATA_BANK
000D80 0E00               M          MOVLW  0
000D82 6F00               M          MOVWF  SSR_00_VALUE+14,  BANKED
000D84 6B00               M          CLRF   SSR_00_STEP+14,  BANKED
000D86 6B00               M          CLRF   SSR_00_SPEED+14,  BANKED
000D88 6B00               M          CLRF   SSR_00_COUNTER+14,  BANKED
000D8A 6B00               M          CLRF   SSR_00_FLAGS+14,  BANKED
  00000001                M LLIM_LTN --
                          M          SET_SSR_OFF 13
                          M          SET_SSR_VALUE 13,  0
000D8C 0104               M         BANKSEL SSR_DATA_BANK
000D8E 0E00               M          MOVLW  0
000D90 6F00               M          MOVWF  SSR_00_VALUE+13,  BANKED
000D92 6B00               M          CLRF   SSR_00_STEP+13,  BANKED
000D94 6B00               M          CLRF   SSR_00_SPEED+13,  BANKED
000D96 6B00               M          CLRF   SSR_00_COUNTER+13,  BANKED
000D98 6B00               M          CLRF   SSR_00_FLAGS+13,  BANKED
  00000000                M LLIM_LTN --
                          M          SET_SSR_OFF 12
                          M          SET_SSR_VALUE 12,  0
000D9A 0104               M         BANKSEL SSR_DATA_BANK
000D9C 0E00               M          MOVLW  0
000D9E 6F00               M          MOVWF  SSR_00_VALUE+12,  BANKED
000DA0 6B00               M          CLRF   SSR_00_STEP+12,  BANKED
000DA2 6B00               M          CLRF   SSR_00_SPEED+12,  BANKED
000DA4 6B00               M          CLRF   SSR_00_COUNTER+12,  BANKED
000DA6 6B00               M          CLRF   SSR_00_FLAGS+12,  BANKED
                          M         ENDW
                          M 
000DA8                    M LLIM_END_18:
000DA8 010C               M         BANKSEL QUIZSHOW_DATA
  00000013                M LLIM_N  ++
000DAA D???               M         BRA     SCN_DB_DONE_6
                          M 
000DAC                    M SCN_DB_DOWN_6:
                          M         ;
                          M         ; button senses as "down". fill debounce counter if possible
                          M         ;
000DAC 010C               M         BANKSEL QUIZSHOW_DATA
000DAE 3F00               M         INCFSZ  BTN_X0_DEB_TMR+6,           F, BANKED
000DB0 D???               M         BRA     SCN_DB_DONE_6
                          M         ;
                          M         ; counter was full (since we overflowed it to 0 again). so
                          M         ; the button is officially "down".  Put the counter back
                          M         ; to 255 and proceed with what it means for the button to be
                          M         ; officially down.
                          M         ;
000DB2 6900               M         SETF    BTN_X0_DEB_TMR+6,           BANKED
000DB4 B500               M         BTFSC   BTN_X0_FLAGS+6,           BTN_FLG_LOCKED, BANKED        ; is it locked?
000DB6 D???               M         BRA     SCN_DB_RST_LCK_6                                ; stay locked longer
000DB8 B700               M         BTFSC   BTN_X0_FLAGS+6,           BTN_FLG_ACTIVE, BANKED        ; if we already saw the button p
                            ress
MPASM 5.66              ../QUIZSHOW_MAIN.ASM   3-1-2017  12:21:15         PAGE 61


LOC  OBJECT CODE     LINE SOURCE TEXT
  VALUE

000DBA D???               M         BRA     SCN_DB_DONE_6                                   ;   then we don't need to do anything mo
                            re
                          M         ;
                          M         ; We didn't know the button was down yet. Let's see what
                          M         ; that changes...
                          M         ;
000DBC 8700               M         BSF     BTN_X0_FLAGS+6,           BTN_FLG_ACTIVE, BANKED        ; mark as "down"
000DBE B300               M         BTFSC   BTN_X0_FLAGS+6,           BTN_FLG_MASKED, BANKED        ; is it masked?
000DC0 D???               M         BRA     SCN_DB_DONE_6                                   ; then ignore it
000DC2 B100               M         BTFSC   BTN_X0_FLAGS+6,           BTN_FLG_PRESSED, BANKED       ; already noted?
000DC4 D???               M         BRA     SCN_DB_DONE_6                                   ; then we're already done
000DC6 A000               M         BTFSS   QUIZSHOW_FLAGS, QS_FLAG_SCANNING, ACCESS        ; legal to press?
000DC8 D???               M         BRA     SCN_DB_RST_LCK_6                                ; if not, lock out!
                          M         ;
                          M         ; The button was pressed legally and this is the first time we
                          M         ; noticed it. Record it as the official press for this button.
                          M         ;
000DCA 8100               M         BSF     BTN_X0_FLAGS+6,           BTN_FLG_PRESSED, BANKED
000DCC 9EF2               M         BCF     INTCON, 7, ACCESS                               ; disable interrupts
000DCE 9CF2               M         BCF     INTCON, 6, ACCESS                               ; disable interrupts
000DD0 C??? F???          M         MOVFF   QS_BTN_TMR_U, BTN_X0_TIME_U+6
000DD4 C??? F???          M         MOVFF   QS_BTN_TMR_T, BTN_X0_TIME_T+6
000DD8 CFCE F???          M         MOVFF   TMR1L, BTN_X0_TIME_L+6
000DDC CFCF F???          M         MOVFF   TMR1H, BTN_X0_TIME_H+6
000DE0 8EF2               M         BSF     INTCON, 7, ACCESS                               ; enable interrupts
000DE2 8CF2               M         BSF     INTCON, 6, ACCESS                               ; enable interrupts
                          M         LOCAL_LIGHT_INDICATOR BTN_IDX_X3, CHAN_X3R, 3, CHAN_X3R
000DE4 010C               M         BANKSEL QUIZSHOW_DATA
000DE6 A500               M         BTFSS   BTN_X0_FLAGS+6,           BTN_FLG_LOCKED, BANKED
000DE8 D???               M         BRA     LLIM_NOT_LOCKED_19
000DEA B900               M         BTFSC   BTN_X0_FLAGS+6,           BTN_FLG_LCK_ACK, BANKED
000DEC D???               M         BRA     LLIM_NOT_LOCKED_19
                          M         ;
                          M         ; light up for locked mode for the first time
                          M         ;
000DEE 8900               M         BSF     BTN_X0_FLAGS+6,           BTN_FLG_LCK_ACK, BANKED       ; don't do it again
  00000003                M LLIM_LTN SET    3
                          M         WHILE LLIM_LTN > 0
  00000002                M LLIM_LTN --
                          M          SET_SSR_OFF 14
                          M          SET_SSR_VALUE 14,  0
000DF0 0104               M         BANKSEL SSR_DATA_BANK
000DF2 0E00               M          MOVLW  0
000DF4 6F00               M          MOVWF  SSR_00_VALUE+14,  BANKED
000DF6 6B00               M          CLRF   SSR_00_STEP+14,  BANKED
000DF8 6B00               M          CLRF   SSR_00_SPEED+14,  BANKED
000DFA 6B00               M          CLRF   SSR_00_COUNTER+14,  BANKED
000DFC 6B00               M          CLRF   SSR_00_FLAGS+14,  BANKED
  00000001                M LLIM_LTN --
                          M          SET_SSR_OFF 13
                          M          SET_SSR_VALUE 13,  0
000DFE 0104               M         BANKSEL SSR_DATA_BANK
000E00 0E00               M          MOVLW  0
000E02 6F00               M          MOVWF  SSR_00_VALUE+13,  BANKED
000E04 6B00               M          CLRF   SSR_00_STEP+13,  BANKED
000E06 6B00               M          CLRF   SSR_00_SPEED+13,  BANKED
000E08 6B00               M          CLRF   SSR_00_COUNTER+13,  BANKED
000E0A 6B00               M          CLRF   SSR_00_FLAGS+13,  BANKED
  00000000                M LLIM_LTN --
                          M          SET_SSR_OFF 12
                          M          SET_SSR_VALUE 12,  0
000E0C 0104               M         BANKSEL SSR_DATA_BANK
000E0E 0E00               M          MOVLW  0
000E10 6F00               M          MOVWF  SSR_00_VALUE+12,  BANKED
000E12 6B00               M          CLRF   SSR_00_STEP+12,  BANKED
000E14 6B00               M          CLRF   SSR_00_SPEED+12,  BANKED
000E16 6B00               M          CLRF   SSR_00_COUNTER+12,  BANKED
000E18 6B00               M          CLRF   SSR_00_FLAGS+12,  BANKED
                          M         ENDW
                          M         SET_SSR_RAPID_FADE CHAN_X3R
                          M          SET_SSR_PATTERN CHAN_X3R, 0, 4, 1, BIT_FADE_UP|BIT_FADE_CYCLE
000E1A 0104               M         BANKSEL SSR_DATA_BANK
000E1C 0E00               M          MOVLW  0
000E1E 6F00               M          MOVWF  SSR_00_VALUE+CHAN_X3R, BANKED
000E20 0E04               M          MOVLW  4
000E22 6F00               M          MOVWF  SSR_00_STEP+CHAN_X3R, BANKED
000E24 0E01               M          MOVLW  1
000E26 6F00               M          MOVWF  SSR_00_SPEED+CHAN_X3R, BANKED
000E28 6F00               M          MOVWF  SSR_00_COUNTER+CHAN_X3R, BANKED
000E2A 0EA0               M          MOVLW  BIT_FADE_UP|BIT_FADE_CYCLE
MPASM 5.66              ../QUIZSHOW_MAIN.ASM   3-1-2017  12:21:15         PAGE 62


LOC  OBJECT CODE     LINE SOURCE TEXT
  VALUE

000E2C 6F00               M          MOVWF  SSR_00_FLAGS+CHAN_X3R, BANKED
000E2E D???               M         BRA     LLIM_END_19
                          M 
000E30                    M LLIM_NOT_LOCKED_19:
000E30 010C               M         BANKSEL QUIZSHOW_DATA
000E32 B300               M         BTFSC   BTN_X0_FLAGS+6,           BTN_FLG_MASKED, BANKED
000E34 D???               M         BRA     LLIM_OFF_19
000E36 B100               M         BTFSC   BTN_X0_FLAGS+6,           BTN_FLG_PRESSED, BANKED
000E38 D???               M         BRA     LLIM_OFF_19
000E3A A000               M         BTFSS   QUIZSHOW_FLAGS, QS_FLAG_SCANNING, ACCESS
000E3C D???               M         BRA     LLIM_OFF_19
                          M         ;
                          M         ; scanning and not pressed or masked? light up fully
                          M         ;
  00000003                M LLIM_LTN SET    3
                          M         WHILE LLIM_LTN > 0
  00000002                M LLIM_LTN --
                          M          SET_SSR_STEADY 14
                          M          SET_SSR_VALUE 14,  255
000E3E 0104               M         BANKSEL SSR_DATA_BANK
000E40 0EFF               M          MOVLW  255
000E42 6F00               M          MOVWF  SSR_00_VALUE+14,  BANKED
000E44 6B00               M          CLRF   SSR_00_STEP+14,  BANKED
000E46 6B00               M          CLRF   SSR_00_SPEED+14,  BANKED
000E48 6B00               M          CLRF   SSR_00_COUNTER+14,  BANKED
000E4A 6B00               M          CLRF   SSR_00_FLAGS+14,  BANKED
  00000001                M LLIM_LTN --
                          M          SET_SSR_STEADY 13
                          M          SET_SSR_VALUE 13,  255
000E4C 0104               M         BANKSEL SSR_DATA_BANK
000E4E 0EFF               M          MOVLW  255
000E50 6F00               M          MOVWF  SSR_00_VALUE+13,  BANKED
000E52 6B00               M          CLRF   SSR_00_STEP+13,  BANKED
000E54 6B00               M          CLRF   SSR_00_SPEED+13,  BANKED
000E56 6B00               M          CLRF   SSR_00_COUNTER+13,  BANKED
000E58 6B00               M          CLRF   SSR_00_FLAGS+13,  BANKED
  00000000                M LLIM_LTN --
                          M          SET_SSR_STEADY 12
                          M          SET_SSR_VALUE 12,  255
000E5A 0104               M         BANKSEL SSR_DATA_BANK
000E5C 0EFF               M          MOVLW  255
000E5E 6F00               M          MOVWF  SSR_00_VALUE+12,  BANKED
000E60 6B00               M          CLRF   SSR_00_STEP+12,  BANKED
000E62 6B00               M          CLRF   SSR_00_SPEED+12,  BANKED
000E64 6B00               M          CLRF   SSR_00_COUNTER+12,  BANKED
000E66 6B00               M          CLRF   SSR_00_FLAGS+12,  BANKED
                          M         ENDW
000E68 D???               M         BRA     LLIM_END_19
                          M         
000E6A                    M LLIM_OFF_19:
                          M         ;
                          M         ; button pressed or masked, or scan is off; 
                          M         ; turn off until the host computer
                          M         ; stops the scan and awards the winner
                          M         ;
  00000003                M LLIM_LTN SET    3
                          M         WHILE LLIM_LTN > 0
  00000002                M LLIM_LTN --
                          M          SET_SSR_OFF 14
                          M          SET_SSR_VALUE 14,  0
000E6A 0104               M         BANKSEL SSR_DATA_BANK
000E6C 0E00               M          MOVLW  0
000E6E 6F00               M          MOVWF  SSR_00_VALUE+14,  BANKED
000E70 6B00               M          CLRF   SSR_00_STEP+14,  BANKED
000E72 6B00               M          CLRF   SSR_00_SPEED+14,  BANKED
000E74 6B00               M          CLRF   SSR_00_COUNTER+14,  BANKED
000E76 6B00               M          CLRF   SSR_00_FLAGS+14,  BANKED
  00000001                M LLIM_LTN --
                          M          SET_SSR_OFF 13
                          M          SET_SSR_VALUE 13,  0
000E78 0104               M         BANKSEL SSR_DATA_BANK
000E7A 0E00               M          MOVLW  0
000E7C 6F00               M          MOVWF  SSR_00_VALUE+13,  BANKED
000E7E 6B00               M          CLRF   SSR_00_STEP+13,  BANKED
000E80 6B00               M          CLRF   SSR_00_SPEED+13,  BANKED
000E82 6B00               M          CLRF   SSR_00_COUNTER+13,  BANKED
000E84 6B00               M          CLRF   SSR_00_FLAGS+13,  BANKED
  00000000                M LLIM_LTN --
                          M          SET_SSR_OFF 12
                          M          SET_SSR_VALUE 12,  0
MPASM 5.66              ../QUIZSHOW_MAIN.ASM   3-1-2017  12:21:15         PAGE 63


LOC  OBJECT CODE     LINE SOURCE TEXT
  VALUE

000E86 0104               M         BANKSEL SSR_DATA_BANK
000E88 0E00               M          MOVLW  0
000E8A 6F00               M          MOVWF  SSR_00_VALUE+12,  BANKED
000E8C 6B00               M          CLRF   SSR_00_STEP+12,  BANKED
000E8E 6B00               M          CLRF   SSR_00_SPEED+12,  BANKED
000E90 6B00               M          CLRF   SSR_00_COUNTER+12,  BANKED
000E92 6B00               M          CLRF   SSR_00_FLAGS+12,  BANKED
                          M         ENDW
                          M 
000E94                    M LLIM_END_19:
000E94 010C               M         BANKSEL QUIZSHOW_DATA
  00000014                M LLIM_N  ++
                          M 
000E96                    M SCN_DB_DONE_6:
                          M         ;
                          M         ; We're done with the button debouncing operations.
                          M         ;
                          M         ; If we're processing the 120Hz cleanup operations, do them now
                          M         ; for this button.
                          M         ;
000E96 A400               M         BTFSS   QUIZSHOW_FLAGS, QS_FLAG_DOING120, ACCESS
000E98 D???               M         BRA     SCN_DB_END_6
                          M         ;
                          M         ; If the button is locked out, decrement its timer. If it reaches
                          M         ; zero, we can release the lock now.
                          M         ;
000E9A 010C               M         BANKSEL QUIZSHOW_DATA
000E9C B500               M         BTFSC   BTN_X0_FLAGS+6,           BTN_FLG_LOCKED, BANKED
000E9E 2F00               M         DECFSZ  BTN_X0_LOCKTMR+6,           F, BANKED
000EA0 D???               M         BRA     SCN_DB_END_6
000EA2 9500               M         BCF     BTN_X0_FLAGS+6,           BTN_FLG_LOCKED, BANKED        ; release the lock
000EA4 9900               M         BCF     BTN_X0_FLAGS+6,           BTN_FLG_LCK_ACK, BANKED
                          M         LOCAL_LIGHT_INDICATOR BTN_IDX_X3, CHAN_X3R, 3, CHAN_X3R
000EA6 010C               M         BANKSEL QUIZSHOW_DATA
000EA8 A500               M         BTFSS   BTN_X0_FLAGS+6,           BTN_FLG_LOCKED, BANKED
000EAA D???               M         BRA     LLIM_NOT_LOCKED_20
000EAC B900               M         BTFSC   BTN_X0_FLAGS+6,           BTN_FLG_LCK_ACK, BANKED
000EAE D???               M         BRA     LLIM_NOT_LOCKED_20
                          M         ;
                          M         ; light up for locked mode for the first time
                          M         ;
000EB0 8900               M         BSF     BTN_X0_FLAGS+6,           BTN_FLG_LCK_ACK, BANKED       ; don't do it again
  00000003                M LLIM_LTN SET    3
                          M         WHILE LLIM_LTN > 0
  00000002                M LLIM_LTN --
                          M          SET_SSR_OFF 14
                          M          SET_SSR_VALUE 14,  0
000EB2 0104               M         BANKSEL SSR_DATA_BANK
000EB4 0E00               M          MOVLW  0
000EB6 6F00               M          MOVWF  SSR_00_VALUE+14,  BANKED
000EB8 6B00               M          CLRF   SSR_00_STEP+14,  BANKED
000EBA 6B00               M          CLRF   SSR_00_SPEED+14,  BANKED
000EBC 6B00               M          CLRF   SSR_00_COUNTER+14,  BANKED
000EBE 6B00               M          CLRF   SSR_00_FLAGS+14,  BANKED
  00000001                M LLIM_LTN --
                          M          SET_SSR_OFF 13
                          M          SET_SSR_VALUE 13,  0
000EC0 0104               M         BANKSEL SSR_DATA_BANK
000EC2 0E00               M          MOVLW  0
000EC4 6F00               M          MOVWF  SSR_00_VALUE+13,  BANKED
000EC6 6B00               M          CLRF   SSR_00_STEP+13,  BANKED
000EC8 6B00               M          CLRF   SSR_00_SPEED+13,  BANKED
000ECA 6B00               M          CLRF   SSR_00_COUNTER+13,  BANKED
000ECC 6B00               M          CLRF   SSR_00_FLAGS+13,  BANKED
  00000000                M LLIM_LTN --
                          M          SET_SSR_OFF 12
                          M          SET_SSR_VALUE 12,  0
000ECE 0104               M         BANKSEL SSR_DATA_BANK
000ED0 0E00               M          MOVLW  0
000ED2 6F00               M          MOVWF  SSR_00_VALUE+12,  BANKED
000ED4 6B00               M          CLRF   SSR_00_STEP+12,  BANKED
000ED6 6B00               M          CLRF   SSR_00_SPEED+12,  BANKED
000ED8 6B00               M          CLRF   SSR_00_COUNTER+12,  BANKED
000EDA 6B00               M          CLRF   SSR_00_FLAGS+12,  BANKED
                          M         ENDW
                          M         SET_SSR_RAPID_FADE CHAN_X3R
                          M          SET_SSR_PATTERN CHAN_X3R, 0, 4, 1, BIT_FADE_UP|BIT_FADE_CYCLE
000EDC 0104               M         BANKSEL SSR_DATA_BANK
000EDE 0E00               M          MOVLW  0
000EE0 6F00               M          MOVWF  SSR_00_VALUE+CHAN_X3R, BANKED
MPASM 5.66              ../QUIZSHOW_MAIN.ASM   3-1-2017  12:21:15         PAGE 64


LOC  OBJECT CODE     LINE SOURCE TEXT
  VALUE

000EE2 0E04               M          MOVLW  4
000EE4 6F00               M          MOVWF  SSR_00_STEP+CHAN_X3R, BANKED
000EE6 0E01               M          MOVLW  1
000EE8 6F00               M          MOVWF  SSR_00_SPEED+CHAN_X3R, BANKED
000EEA 6F00               M          MOVWF  SSR_00_COUNTER+CHAN_X3R, BANKED
000EEC 0EA0               M          MOVLW  BIT_FADE_UP|BIT_FADE_CYCLE
000EEE 6F00               M          MOVWF  SSR_00_FLAGS+CHAN_X3R, BANKED
000EF0 D???               M         BRA     LLIM_END_20
                          M 
000EF2                    M LLIM_NOT_LOCKED_20:
000EF2 010C               M         BANKSEL QUIZSHOW_DATA
000EF4 B300               M         BTFSC   BTN_X0_FLAGS+6,           BTN_FLG_MASKED, BANKED
000EF6 D???               M         BRA     LLIM_OFF_20
000EF8 B100               M         BTFSC   BTN_X0_FLAGS+6,           BTN_FLG_PRESSED, BANKED
000EFA D???               M         BRA     LLIM_OFF_20
000EFC A000               M         BTFSS   QUIZSHOW_FLAGS, QS_FLAG_SCANNING, ACCESS
000EFE D???               M         BRA     LLIM_OFF_20
                          M         ;
                          M         ; scanning and not pressed or masked? light up fully
                          M         ;
  00000003                M LLIM_LTN SET    3
                          M         WHILE LLIM_LTN > 0
  00000002                M LLIM_LTN --
                          M          SET_SSR_STEADY 14
                          M          SET_SSR_VALUE 14,  255
000F00 0104               M         BANKSEL SSR_DATA_BANK
000F02 0EFF               M          MOVLW  255
000F04 6F00               M          MOVWF  SSR_00_VALUE+14,  BANKED
000F06 6B00               M          CLRF   SSR_00_STEP+14,  BANKED
000F08 6B00               M          CLRF   SSR_00_SPEED+14,  BANKED
000F0A 6B00               M          CLRF   SSR_00_COUNTER+14,  BANKED
000F0C 6B00               M          CLRF   SSR_00_FLAGS+14,  BANKED
  00000001                M LLIM_LTN --
                          M          SET_SSR_STEADY 13
                          M          SET_SSR_VALUE 13,  255
000F0E 0104               M         BANKSEL SSR_DATA_BANK
000F10 0EFF               M          MOVLW  255
000F12 6F00               M          MOVWF  SSR_00_VALUE+13,  BANKED
000F14 6B00               M          CLRF   SSR_00_STEP+13,  BANKED
000F16 6B00               M          CLRF   SSR_00_SPEED+13,  BANKED
000F18 6B00               M          CLRF   SSR_00_COUNTER+13,  BANKED
000F1A 6B00               M          CLRF   SSR_00_FLAGS+13,  BANKED
  00000000                M LLIM_LTN --
                          M          SET_SSR_STEADY 12
                          M          SET_SSR_VALUE 12,  255
000F1C 0104               M         BANKSEL SSR_DATA_BANK
000F1E 0EFF               M          MOVLW  255
000F20 6F00               M          MOVWF  SSR_00_VALUE+12,  BANKED
000F22 6B00               M          CLRF   SSR_00_STEP+12,  BANKED
000F24 6B00               M          CLRF   SSR_00_SPEED+12,  BANKED
000F26 6B00               M          CLRF   SSR_00_COUNTER+12,  BANKED
000F28 6B00               M          CLRF   SSR_00_FLAGS+12,  BANKED
                          M         ENDW
000F2A D???               M         BRA     LLIM_END_20
                          M         
000F2C                    M LLIM_OFF_20:
                          M         ;
                          M         ; button pressed or masked, or scan is off; 
                          M         ; turn off until the host computer
                          M         ; stops the scan and awards the winner
                          M         ;
  00000003                M LLIM_LTN SET    3
                          M         WHILE LLIM_LTN > 0
  00000002                M LLIM_LTN --
                          M          SET_SSR_OFF 14
                          M          SET_SSR_VALUE 14,  0
000F2C 0104               M         BANKSEL SSR_DATA_BANK
000F2E 0E00               M          MOVLW  0
000F30 6F00               M          MOVWF  SSR_00_VALUE+14,  BANKED
000F32 6B00               M          CLRF   SSR_00_STEP+14,  BANKED
000F34 6B00               M          CLRF   SSR_00_SPEED+14,  BANKED
000F36 6B00               M          CLRF   SSR_00_COUNTER+14,  BANKED
000F38 6B00               M          CLRF   SSR_00_FLAGS+14,  BANKED
  00000001                M LLIM_LTN --
                          M          SET_SSR_OFF 13
                          M          SET_SSR_VALUE 13,  0
000F3A 0104               M         BANKSEL SSR_DATA_BANK
000F3C 0E00               M          MOVLW  0
000F3E 6F00               M          MOVWF  SSR_00_VALUE+13,  BANKED
000F40 6B00               M          CLRF   SSR_00_STEP+13,  BANKED
MPASM 5.66              ../QUIZSHOW_MAIN.ASM   3-1-2017  12:21:15         PAGE 65


LOC  OBJECT CODE     LINE SOURCE TEXT
  VALUE

000F42 6B00               M          CLRF   SSR_00_SPEED+13,  BANKED
000F44 6B00               M          CLRF   SSR_00_COUNTER+13,  BANKED
000F46 6B00               M          CLRF   SSR_00_FLAGS+13,  BANKED
  00000000                M LLIM_LTN --
                          M          SET_SSR_OFF 12
                          M          SET_SSR_VALUE 12,  0
000F48 0104               M         BANKSEL SSR_DATA_BANK
000F4A 0E00               M          MOVLW  0
000F4C 6F00               M          MOVWF  SSR_00_VALUE+12,  BANKED
000F4E 6B00               M          CLRF   SSR_00_STEP+12,  BANKED
000F50 6B00               M          CLRF   SSR_00_SPEED+12,  BANKED
000F52 6B00               M          CLRF   SSR_00_COUNTER+12,  BANKED
000F54 6B00               M          CLRF   SSR_00_FLAGS+12,  BANKED
                          M         ENDW
                          M 
000F56                    M LLIM_END_20:
000F56 010C               M         BANKSEL QUIZSHOW_DATA
  00000015                M LLIM_N  ++
                          M 
000F58                    M SCN_DB_END_6:
  00000007                M SCN_DBN ++
                      01014           SCAN_DEBOUNCE BTN_IDX_L3, PORT_L3, BIT_L3, CHAN_L3R, 1, CHAN_L3R
000F58 010C               M         BANKSEL QUIZSHOW_DATA
000F5A 0004               M         CLRWDT
                          M         ;
                          M         ; Sense button state: 
                          M         ;  0=pressed
                          M         ;  1=released
                          M         ;
000F5C A083               M         BTFSS   3971,         BIT_L3,  ACCESS
000F5E D???               M         BRA     SCN_DB_DOWN_7           ; pressed? branch
                          M         ;
                          M         ; button senses as "up". drain debounce counter if possible
                          M         ;
000F60 6700               M         TSTFSZ  BTN_X0_DEB_TMR+7,           BANKED
000F62 D???               M         BRA     SCN_DB_DRAIN_7
                          M         ;
                          M         ; The button is officially "up".  If this is news, respond
                          M         ; to this change now.  All we need to do is note the status
                          M         ; change. Everything else happens later when the code notices
                          M         ; this flag state.
                          M         ;
000F64 9700               M         BCF     BTN_X0_FLAGS+7,           BTN_FLG_ACTIVE, BANKED
000F66 D???               M         BRA     SCN_DB_DONE_7
                          M 
000F68                    M SCN_DB_DRAIN_7:
                          M         ;
                          M         ; Drain the button debounce counter
                          M         ;
000F68 010C               M         BANKSEL QUIZSHOW_DATA
000F6A 0700               M         DECF    BTN_X0_DEB_TMR+7,           F, BANKED
000F6C D???               M         BRA     SCN_DB_DONE_7
                          M 
000F6E                    M SCN_DB_RST_LCK_7:
                          M         ;
                          M         ; The button needs to be locked out!
                          M         ; We found them pushing the button when they weren't supposed to.
                          M         ;
000F6E 010C               M         BANKSEL QUIZSHOW_DATA
000F70 8500               M         BSF     BTN_X0_FLAGS+7,           BTN_FLG_LOCKED, BANKED
000F72 C??? F???          M         MOVFF   QUIZSHOW_LCKTM, BTN_X0_LOCKTMR+7
                          M         LOCAL_LIGHT_INDICATOR BTN_IDX_L3, CHAN_L3R, 1, CHAN_L3R
000F76 010C               M         BANKSEL QUIZSHOW_DATA
000F78 A500               M         BTFSS   BTN_X0_FLAGS+7,           BTN_FLG_LOCKED, BANKED
000F7A D???               M         BRA     LLIM_NOT_LOCKED_21
000F7C B900               M         BTFSC   BTN_X0_FLAGS+7,           BTN_FLG_LCK_ACK, BANKED
000F7E D???               M         BRA     LLIM_NOT_LOCKED_21
                          M         ;
                          M         ; light up for locked mode for the first time
                          M         ;
000F80 8900               M         BSF     BTN_X0_FLAGS+7,           BTN_FLG_LCK_ACK, BANKED       ; don't do it again
  00000001                M LLIM_LTN SET    1
                          M         WHILE LLIM_LTN > 0
  00000000                M LLIM_LTN --
                          M          SET_SSR_OFF 15
                          M          SET_SSR_VALUE 15,  0
000F82 0104               M         BANKSEL SSR_DATA_BANK
000F84 0E00               M          MOVLW  0
000F86 6F00               M          MOVWF  SSR_00_VALUE+15,  BANKED
000F88 6B00               M          CLRF   SSR_00_STEP+15,  BANKED
MPASM 5.66              ../QUIZSHOW_MAIN.ASM   3-1-2017  12:21:15         PAGE 66


LOC  OBJECT CODE     LINE SOURCE TEXT
  VALUE

000F8A 6B00               M          CLRF   SSR_00_SPEED+15,  BANKED
000F8C 6B00               M          CLRF   SSR_00_COUNTER+15,  BANKED
000F8E 6B00               M          CLRF   SSR_00_FLAGS+15,  BANKED
                          M         ENDW
                          M         SET_SSR_RAPID_FADE CHAN_L3R
                          M          SET_SSR_PATTERN CHAN_L3R, 0, 4, 1, BIT_FADE_UP|BIT_FADE_CYCLE
000F90 0104               M         BANKSEL SSR_DATA_BANK
000F92 0E00               M          MOVLW  0
000F94 6F00               M          MOVWF  SSR_00_VALUE+CHAN_L3R, BANKED
000F96 0E04               M          MOVLW  4
000F98 6F00               M          MOVWF  SSR_00_STEP+CHAN_L3R, BANKED
000F9A 0E01               M          MOVLW  1
000F9C 6F00               M          MOVWF  SSR_00_SPEED+CHAN_L3R, BANKED
000F9E 6F00               M          MOVWF  SSR_00_COUNTER+CHAN_L3R, BANKED
000FA0 0EA0               M          MOVLW  BIT_FADE_UP|BIT_FADE_CYCLE
000FA2 6F00               M          MOVWF  SSR_00_FLAGS+CHAN_L3R, BANKED
000FA4 D???               M         BRA     LLIM_END_21
                          M 
000FA6                    M LLIM_NOT_LOCKED_21:
000FA6 010C               M         BANKSEL QUIZSHOW_DATA
000FA8 B300               M         BTFSC   BTN_X0_FLAGS+7,           BTN_FLG_MASKED, BANKED
000FAA D???               M         BRA     LLIM_OFF_21
000FAC B100               M         BTFSC   BTN_X0_FLAGS+7,           BTN_FLG_PRESSED, BANKED
000FAE D???               M         BRA     LLIM_OFF_21
000FB0 A000               M         BTFSS   QUIZSHOW_FLAGS, QS_FLAG_SCANNING, ACCESS
000FB2 D???               M         BRA     LLIM_OFF_21
                          M         ;
                          M         ; scanning and not pressed or masked? light up fully
                          M         ;
  00000001                M LLIM_LTN SET    1
                          M         WHILE LLIM_LTN > 0
  00000000                M LLIM_LTN --
                          M          SET_SSR_STEADY 15
                          M          SET_SSR_VALUE 15,  255
000FB4 0104               M         BANKSEL SSR_DATA_BANK
000FB6 0EFF               M          MOVLW  255
000FB8 6F00               M          MOVWF  SSR_00_VALUE+15,  BANKED
000FBA 6B00               M          CLRF   SSR_00_STEP+15,  BANKED
000FBC 6B00               M          CLRF   SSR_00_SPEED+15,  BANKED
000FBE 6B00               M          CLRF   SSR_00_COUNTER+15,  BANKED
000FC0 6B00               M          CLRF   SSR_00_FLAGS+15,  BANKED
                          M         ENDW
000FC2 D???               M         BRA     LLIM_END_21
                          M         
000FC4                    M LLIM_OFF_21:
                          M         ;
                          M         ; button pressed or masked, or scan is off; 
                          M         ; turn off until the host computer
                          M         ; stops the scan and awards the winner
                          M         ;
  00000001                M LLIM_LTN SET    1
                          M         WHILE LLIM_LTN > 0
  00000000                M LLIM_LTN --
                          M          SET_SSR_OFF 15
                          M          SET_SSR_VALUE 15,  0
000FC4 0104               M         BANKSEL SSR_DATA_BANK
000FC6 0E00               M          MOVLW  0
000FC8 6F00               M          MOVWF  SSR_00_VALUE+15,  BANKED
000FCA 6B00               M          CLRF   SSR_00_STEP+15,  BANKED
000FCC 6B00               M          CLRF   SSR_00_SPEED+15,  BANKED
000FCE 6B00               M          CLRF   SSR_00_COUNTER+15,  BANKED
000FD0 6B00               M          CLRF   SSR_00_FLAGS+15,  BANKED
                          M         ENDW
                          M 
000FD2                    M LLIM_END_21:
000FD2 010C               M         BANKSEL QUIZSHOW_DATA
  00000016                M LLIM_N  ++
000FD4 D???               M         BRA     SCN_DB_DONE_7
                          M 
000FD6                    M SCN_DB_DOWN_7:
                          M         ;
                          M         ; button senses as "down". fill debounce counter if possible
                          M         ;
000FD6 010C               M         BANKSEL QUIZSHOW_DATA
000FD8 3F00               M         INCFSZ  BTN_X0_DEB_TMR+7,           F, BANKED
000FDA D???               M         BRA     SCN_DB_DONE_7
                          M         ;
                          M         ; counter was full (since we overflowed it to 0 again). so
                          M         ; the button is officially "down".  Put the counter back
                          M         ; to 255 and proceed with what it means for the button to be
MPASM 5.66              ../QUIZSHOW_MAIN.ASM   3-1-2017  12:21:15         PAGE 67


LOC  OBJECT CODE     LINE SOURCE TEXT
  VALUE

                          M         ; officially down.
                          M         ;
000FDC 6900               M         SETF    BTN_X0_DEB_TMR+7,           BANKED
000FDE B500               M         BTFSC   BTN_X0_FLAGS+7,           BTN_FLG_LOCKED, BANKED        ; is it locked?
000FE0 D???               M         BRA     SCN_DB_RST_LCK_7                                ; stay locked longer
000FE2 B700               M         BTFSC   BTN_X0_FLAGS+7,           BTN_FLG_ACTIVE, BANKED        ; if we already saw the button p
                            ress
000FE4 D???               M         BRA     SCN_DB_DONE_7                                   ;   then we don't need to do anything mo
                            re
                          M         ;
                          M         ; We didn't know the button was down yet. Let's see what
                          M         ; that changes...
                          M         ;
000FE6 8700               M         BSF     BTN_X0_FLAGS+7,           BTN_FLG_ACTIVE, BANKED        ; mark as "down"
000FE8 B300               M         BTFSC   BTN_X0_FLAGS+7,           BTN_FLG_MASKED, BANKED        ; is it masked?
000FEA D???               M         BRA     SCN_DB_DONE_7                                   ; then ignore it
000FEC B100               M         BTFSC   BTN_X0_FLAGS+7,           BTN_FLG_PRESSED, BANKED       ; already noted?
000FEE D???               M         BRA     SCN_DB_DONE_7                                   ; then we're already done
000FF0 A000               M         BTFSS   QUIZSHOW_FLAGS, QS_FLAG_SCANNING, ACCESS        ; legal to press?
000FF2 D???               M         BRA     SCN_DB_RST_LCK_7                                ; if not, lock out!
                          M         ;
                          M         ; The button was pressed legally and this is the first time we
                          M         ; noticed it. Record it as the official press for this button.
                          M         ;
000FF4 8100               M         BSF     BTN_X0_FLAGS+7,           BTN_FLG_PRESSED, BANKED
000FF6 9EF2               M         BCF     INTCON, 7, ACCESS                               ; disable interrupts
000FF8 9CF2               M         BCF     INTCON, 6, ACCESS                               ; disable interrupts
000FFA C??? F???          M         MOVFF   QS_BTN_TMR_U, BTN_X0_TIME_U+7
000FFE C??? F???          M         MOVFF   QS_BTN_TMR_T, BTN_X0_TIME_T+7
001002 CFCE F???          M         MOVFF   TMR1L, BTN_X0_TIME_L+7
001006 CFCF F???          M         MOVFF   TMR1H, BTN_X0_TIME_H+7
00100A 8EF2               M         BSF     INTCON, 7, ACCESS                               ; enable interrupts
00100C 8CF2               M         BSF     INTCON, 6, ACCESS                               ; enable interrupts
                          M         LOCAL_LIGHT_INDICATOR BTN_IDX_L3, CHAN_L3R, 1, CHAN_L3R
00100E 010C               M         BANKSEL QUIZSHOW_DATA
001010 A500               M         BTFSS   BTN_X0_FLAGS+7,           BTN_FLG_LOCKED, BANKED
001012 D???               M         BRA     LLIM_NOT_LOCKED_22
001014 B900               M         BTFSC   BTN_X0_FLAGS+7,           BTN_FLG_LCK_ACK, BANKED
001016 D???               M         BRA     LLIM_NOT_LOCKED_22
                          M         ;
                          M         ; light up for locked mode for the first time
                          M         ;
001018 8900               M         BSF     BTN_X0_FLAGS+7,           BTN_FLG_LCK_ACK, BANKED       ; don't do it again
  00000001                M LLIM_LTN SET    1
                          M         WHILE LLIM_LTN > 0
  00000000                M LLIM_LTN --
                          M          SET_SSR_OFF 15
                          M          SET_SSR_VALUE 15,  0
00101A 0104               M         BANKSEL SSR_DATA_BANK
00101C 0E00               M          MOVLW  0
00101E 6F00               M          MOVWF  SSR_00_VALUE+15,  BANKED
001020 6B00               M          CLRF   SSR_00_STEP+15,  BANKED
001022 6B00               M          CLRF   SSR_00_SPEED+15,  BANKED
001024 6B00               M          CLRF   SSR_00_COUNTER+15,  BANKED
001026 6B00               M          CLRF   SSR_00_FLAGS+15,  BANKED
                          M         ENDW
                          M         SET_SSR_RAPID_FADE CHAN_L3R
                          M          SET_SSR_PATTERN CHAN_L3R, 0, 4, 1, BIT_FADE_UP|BIT_FADE_CYCLE
001028 0104               M         BANKSEL SSR_DATA_BANK
00102A 0E00               M          MOVLW  0
00102C 6F00               M          MOVWF  SSR_00_VALUE+CHAN_L3R, BANKED
00102E 0E04               M          MOVLW  4
001030 6F00               M          MOVWF  SSR_00_STEP+CHAN_L3R, BANKED
001032 0E01               M          MOVLW  1
001034 6F00               M          MOVWF  SSR_00_SPEED+CHAN_L3R, BANKED
001036 6F00               M          MOVWF  SSR_00_COUNTER+CHAN_L3R, BANKED
001038 0EA0               M          MOVLW  BIT_FADE_UP|BIT_FADE_CYCLE
00103A 6F00               M          MOVWF  SSR_00_FLAGS+CHAN_L3R, BANKED
00103C D???               M         BRA     LLIM_END_22
                          M 
00103E                    M LLIM_NOT_LOCKED_22:
00103E 010C               M         BANKSEL QUIZSHOW_DATA
001040 B300               M         BTFSC   BTN_X0_FLAGS+7,           BTN_FLG_MASKED, BANKED
001042 D???               M         BRA     LLIM_OFF_22
001044 B100               M         BTFSC   BTN_X0_FLAGS+7,           BTN_FLG_PRESSED, BANKED
001046 D???               M         BRA     LLIM_OFF_22
001048 A000               M         BTFSS   QUIZSHOW_FLAGS, QS_FLAG_SCANNING, ACCESS
00104A D???               M         BRA     LLIM_OFF_22
                          M         ;
                          M         ; scanning and not pressed or masked? light up fully
MPASM 5.66              ../QUIZSHOW_MAIN.ASM   3-1-2017  12:21:15         PAGE 68


LOC  OBJECT CODE     LINE SOURCE TEXT
  VALUE

                          M         ;
  00000001                M LLIM_LTN SET    1
                          M         WHILE LLIM_LTN > 0
  00000000                M LLIM_LTN --
                          M          SET_SSR_STEADY 15
                          M          SET_SSR_VALUE 15,  255
00104C 0104               M         BANKSEL SSR_DATA_BANK
00104E 0EFF               M          MOVLW  255
001050 6F00               M          MOVWF  SSR_00_VALUE+15,  BANKED
001052 6B00               M          CLRF   SSR_00_STEP+15,  BANKED
001054 6B00               M          CLRF   SSR_00_SPEED+15,  BANKED
001056 6B00               M          CLRF   SSR_00_COUNTER+15,  BANKED
001058 6B00               M          CLRF   SSR_00_FLAGS+15,  BANKED
                          M         ENDW
00105A D???               M         BRA     LLIM_END_22
                          M         
00105C                    M LLIM_OFF_22:
                          M         ;
                          M         ; button pressed or masked, or scan is off; 
                          M         ; turn off until the host computer
                          M         ; stops the scan and awards the winner
                          M         ;
  00000001                M LLIM_LTN SET    1
                          M         WHILE LLIM_LTN > 0
  00000000                M LLIM_LTN --
                          M          SET_SSR_OFF 15
                          M          SET_SSR_VALUE 15,  0
00105C 0104               M         BANKSEL SSR_DATA_BANK
00105E 0E00               M          MOVLW  0
001060 6F00               M          MOVWF  SSR_00_VALUE+15,  BANKED
001062 6B00               M          CLRF   SSR_00_STEP+15,  BANKED
001064 6B00               M          CLRF   SSR_00_SPEED+15,  BANKED
001066 6B00               M          CLRF   SSR_00_COUNTER+15,  BANKED
001068 6B00               M          CLRF   SSR_00_FLAGS+15,  BANKED
                          M         ENDW
                          M 
00106A                    M LLIM_END_22:
00106A 010C               M         BANKSEL QUIZSHOW_DATA
  00000017                M LLIM_N  ++
                          M 
00106C                    M SCN_DB_DONE_7:
                          M         ;
                          M         ; We're done with the button debouncing operations.
                          M         ;
                          M         ; If we're processing the 120Hz cleanup operations, do them now
                          M         ; for this button.
                          M         ;
00106C A400               M         BTFSS   QUIZSHOW_FLAGS, QS_FLAG_DOING120, ACCESS
00106E D???               M         BRA     SCN_DB_END_7
                          M         ;
                          M         ; If the button is locked out, decrement its timer. If it reaches
                          M         ; zero, we can release the lock now.
                          M         ;
001070 010C               M         BANKSEL QUIZSHOW_DATA
001072 B500               M         BTFSC   BTN_X0_FLAGS+7,           BTN_FLG_LOCKED, BANKED
001074 2F00               M         DECFSZ  BTN_X0_LOCKTMR+7,           F, BANKED
001076 D???               M         BRA     SCN_DB_END_7
001078 9500               M         BCF     BTN_X0_FLAGS+7,           BTN_FLG_LOCKED, BANKED        ; release the lock
00107A 9900               M         BCF     BTN_X0_FLAGS+7,           BTN_FLG_LCK_ACK, BANKED
                          M         LOCAL_LIGHT_INDICATOR BTN_IDX_L3, CHAN_L3R, 1, CHAN_L3R
00107C 010C               M         BANKSEL QUIZSHOW_DATA
00107E A500               M         BTFSS   BTN_X0_FLAGS+7,           BTN_FLG_LOCKED, BANKED
001080 D???               M         BRA     LLIM_NOT_LOCKED_23
001082 B900               M         BTFSC   BTN_X0_FLAGS+7,           BTN_FLG_LCK_ACK, BANKED
001084 D???               M         BRA     LLIM_NOT_LOCKED_23
                          M         ;
                          M         ; light up for locked mode for the first time
                          M         ;
001086 8900               M         BSF     BTN_X0_FLAGS+7,           BTN_FLG_LCK_ACK, BANKED       ; don't do it again
  00000001                M LLIM_LTN SET    1
                          M         WHILE LLIM_LTN > 0
  00000000                M LLIM_LTN --
                          M          SET_SSR_OFF 15
                          M          SET_SSR_VALUE 15,  0
001088 0104               M         BANKSEL SSR_DATA_BANK
00108A 0E00               M          MOVLW  0
00108C 6F00               M          MOVWF  SSR_00_VALUE+15,  BANKED
00108E 6B00               M          CLRF   SSR_00_STEP+15,  BANKED
001090 6B00               M          CLRF   SSR_00_SPEED+15,  BANKED
001092 6B00               M          CLRF   SSR_00_COUNTER+15,  BANKED
MPASM 5.66              ../QUIZSHOW_MAIN.ASM   3-1-2017  12:21:15         PAGE 69


LOC  OBJECT CODE     LINE SOURCE TEXT
  VALUE

001094 6B00               M          CLRF   SSR_00_FLAGS+15,  BANKED
                          M         ENDW
                          M         SET_SSR_RAPID_FADE CHAN_L3R
                          M          SET_SSR_PATTERN CHAN_L3R, 0, 4, 1, BIT_FADE_UP|BIT_FADE_CYCLE
001096 0104               M         BANKSEL SSR_DATA_BANK
001098 0E00               M          MOVLW  0
00109A 6F00               M          MOVWF  SSR_00_VALUE+CHAN_L3R, BANKED
00109C 0E04               M          MOVLW  4
00109E 6F00               M          MOVWF  SSR_00_STEP+CHAN_L3R, BANKED
0010A0 0E01               M          MOVLW  1
0010A2 6F00               M          MOVWF  SSR_00_SPEED+CHAN_L3R, BANKED
0010A4 6F00               M          MOVWF  SSR_00_COUNTER+CHAN_L3R, BANKED
0010A6 0EA0               M          MOVLW  BIT_FADE_UP|BIT_FADE_CYCLE
0010A8 6F00               M          MOVWF  SSR_00_FLAGS+CHAN_L3R, BANKED
0010AA D???               M         BRA     LLIM_END_23
                          M 
0010AC                    M LLIM_NOT_LOCKED_23:
0010AC 010C               M         BANKSEL QUIZSHOW_DATA
0010AE B300               M         BTFSC   BTN_X0_FLAGS+7,           BTN_FLG_MASKED, BANKED
0010B0 D???               M         BRA     LLIM_OFF_23
0010B2 B100               M         BTFSC   BTN_X0_FLAGS+7,           BTN_FLG_PRESSED, BANKED
0010B4 D???               M         BRA     LLIM_OFF_23
0010B6 A000               M         BTFSS   QUIZSHOW_FLAGS, QS_FLAG_SCANNING, ACCESS
0010B8 D???               M         BRA     LLIM_OFF_23
                          M         ;
                          M         ; scanning and not pressed or masked? light up fully
                          M         ;
  00000001                M LLIM_LTN SET    1
                          M         WHILE LLIM_LTN > 0
  00000000                M LLIM_LTN --
                          M          SET_SSR_STEADY 15
                          M          SET_SSR_VALUE 15,  255
0010BA 0104               M         BANKSEL SSR_DATA_BANK
0010BC 0EFF               M          MOVLW  255
0010BE 6F00               M          MOVWF  SSR_00_VALUE+15,  BANKED
0010C0 6B00               M          CLRF   SSR_00_STEP+15,  BANKED
0010C2 6B00               M          CLRF   SSR_00_SPEED+15,  BANKED
0010C4 6B00               M          CLRF   SSR_00_COUNTER+15,  BANKED
0010C6 6B00               M          CLRF   SSR_00_FLAGS+15,  BANKED
                          M         ENDW
0010C8 D???               M         BRA     LLIM_END_23
                          M         
0010CA                    M LLIM_OFF_23:
                          M         ;
                          M         ; button pressed or masked, or scan is off; 
                          M         ; turn off until the host computer
                          M         ; stops the scan and awards the winner
                          M         ;
  00000001                M LLIM_LTN SET    1
                          M         WHILE LLIM_LTN > 0
  00000000                M LLIM_LTN --
                          M          SET_SSR_OFF 15
                          M          SET_SSR_VALUE 15,  0
0010CA 0104               M         BANKSEL SSR_DATA_BANK
0010CC 0E00               M          MOVLW  0
0010CE 6F00               M          MOVWF  SSR_00_VALUE+15,  BANKED
0010D0 6B00               M          CLRF   SSR_00_STEP+15,  BANKED
0010D2 6B00               M          CLRF   SSR_00_SPEED+15,  BANKED
0010D4 6B00               M          CLRF   SSR_00_COUNTER+15,  BANKED
0010D6 6B00               M          CLRF   SSR_00_FLAGS+15,  BANKED
                          M         ENDW
                          M 
0010D8                    M LLIM_END_23:
0010D8 010C               M         BANKSEL QUIZSHOW_DATA
  00000018                M LLIM_N  ++
                          M 
0010DA                    M SCN_DB_END_7:
  00000008                M SCN_DBN ++
                      01015           SCAN_DEBOUNCE BTN_IDX_X4, PORT_X4, BIT_X4, CHAN_X4R, 3, CHAN_X4R
0010DA 010C               M         BANKSEL QUIZSHOW_DATA
0010DC 0004               M         CLRWDT
                          M         ;
                          M         ; Sense button state: 
                          M         ;  0=pressed
                          M         ;  1=released
                          M         ;
0010DE A883               M         BTFSS   3971,         BIT_X4,  ACCESS
0010E0 D???               M         BRA     SCN_DB_DOWN_8           ; pressed? branch
                          M         ;
                          M         ; button senses as "up". drain debounce counter if possible
MPASM 5.66              ../QUIZSHOW_MAIN.ASM   3-1-2017  12:21:15         PAGE 70


LOC  OBJECT CODE     LINE SOURCE TEXT
  VALUE

                          M         ;
0010E2 6700               M         TSTFSZ  BTN_X0_DEB_TMR+8,           BANKED
0010E4 D???               M         BRA     SCN_DB_DRAIN_8
                          M         ;
                          M         ; The button is officially "up".  If this is news, respond
                          M         ; to this change now.  All we need to do is note the status
                          M         ; change. Everything else happens later when the code notices
                          M         ; this flag state.
                          M         ;
0010E6 9700               M         BCF     BTN_X0_FLAGS+8,           BTN_FLG_ACTIVE, BANKED
0010E8 D???               M         BRA     SCN_DB_DONE_8
                          M 
0010EA                    M SCN_DB_DRAIN_8:
                          M         ;
                          M         ; Drain the button debounce counter
                          M         ;
0010EA 010C               M         BANKSEL QUIZSHOW_DATA
0010EC 0700               M         DECF    BTN_X0_DEB_TMR+8,           F, BANKED
0010EE D???               M         BRA     SCN_DB_DONE_8
                          M 
0010F0                    M SCN_DB_RST_LCK_8:
                          M         ;
                          M         ; The button needs to be locked out!
                          M         ; We found them pushing the button when they weren't supposed to.
                          M         ;
0010F0 010C               M         BANKSEL QUIZSHOW_DATA
0010F2 8500               M         BSF     BTN_X0_FLAGS+8,           BTN_FLG_LOCKED, BANKED
0010F4 C??? F???          M         MOVFF   QUIZSHOW_LCKTM, BTN_X0_LOCKTMR+8
                          M         LOCAL_LIGHT_INDICATOR BTN_IDX_X4, CHAN_X4R, 3, CHAN_X4R
0010F8 010C               M         BANKSEL QUIZSHOW_DATA
0010FA A500               M         BTFSS   BTN_X0_FLAGS+8,           BTN_FLG_LOCKED, BANKED
0010FC D???               M         BRA     LLIM_NOT_LOCKED_24
0010FE B900               M         BTFSC   BTN_X0_FLAGS+8,           BTN_FLG_LCK_ACK, BANKED
001100 D???               M         BRA     LLIM_NOT_LOCKED_24
                          M         ;
                          M         ; light up for locked mode for the first time
                          M         ;
001102 8900               M         BSF     BTN_X0_FLAGS+8,           BTN_FLG_LCK_ACK, BANKED       ; don't do it again
  00000003                M LLIM_LTN SET    3
                          M         WHILE LLIM_LTN > 0
  00000002                M LLIM_LTN --
                          M          SET_SSR_OFF 18
                          M          SET_SSR_VALUE 18,  0
001104 0104               M         BANKSEL SSR_DATA_BANK
001106 0E00               M          MOVLW  0
001108 6F00               M          MOVWF  SSR_00_VALUE+18,  BANKED
00110A 6B00               M          CLRF   SSR_00_STEP+18,  BANKED
00110C 6B00               M          CLRF   SSR_00_SPEED+18,  BANKED
00110E 6B00               M          CLRF   SSR_00_COUNTER+18,  BANKED
001110 6B00               M          CLRF   SSR_00_FLAGS+18,  BANKED
  00000001                M LLIM_LTN --
                          M          SET_SSR_OFF 17
                          M          SET_SSR_VALUE 17,  0
001112 0104               M         BANKSEL SSR_DATA_BANK
001114 0E00               M          MOVLW  0
001116 6F00               M          MOVWF  SSR_00_VALUE+17,  BANKED
001118 6B00               M          CLRF   SSR_00_STEP+17,  BANKED
00111A 6B00               M          CLRF   SSR_00_SPEED+17,  BANKED
00111C 6B00               M          CLRF   SSR_00_COUNTER+17,  BANKED
00111E 6B00               M          CLRF   SSR_00_FLAGS+17,  BANKED
  00000000                M LLIM_LTN --
                          M          SET_SSR_OFF 16
                          M          SET_SSR_VALUE 16,  0
001120 0104               M         BANKSEL SSR_DATA_BANK
001122 0E00               M          MOVLW  0
001124 6F00               M          MOVWF  SSR_00_VALUE+16,  BANKED
001126 6B00               M          CLRF   SSR_00_STEP+16,  BANKED
001128 6B00               M          CLRF   SSR_00_SPEED+16,  BANKED
00112A 6B00               M          CLRF   SSR_00_COUNTER+16,  BANKED
00112C 6B00               M          CLRF   SSR_00_FLAGS+16,  BANKED
                          M         ENDW
                          M         SET_SSR_RAPID_FADE CHAN_X4R
                          M          SET_SSR_PATTERN CHAN_X4R, 0, 4, 1, BIT_FADE_UP|BIT_FADE_CYCLE
00112E 0104               M         BANKSEL SSR_DATA_BANK
001130 0E00               M          MOVLW  0
001132 6F00               M          MOVWF  SSR_00_VALUE+CHAN_X4R, BANKED
001134 0E04               M          MOVLW  4
001136 6F00               M          MOVWF  SSR_00_STEP+CHAN_X4R, BANKED
001138 0E01               M          MOVLW  1
00113A 6F00               M          MOVWF  SSR_00_SPEED+CHAN_X4R, BANKED
MPASM 5.66              ../QUIZSHOW_MAIN.ASM   3-1-2017  12:21:15         PAGE 71


LOC  OBJECT CODE     LINE SOURCE TEXT
  VALUE

00113C 6F00               M          MOVWF  SSR_00_COUNTER+CHAN_X4R, BANKED
00113E 0EA0               M          MOVLW  BIT_FADE_UP|BIT_FADE_CYCLE
001140 6F00               M          MOVWF  SSR_00_FLAGS+CHAN_X4R, BANKED
001142 D???               M         BRA     LLIM_END_24
                          M 
001144                    M LLIM_NOT_LOCKED_24:
001144 010C               M         BANKSEL QUIZSHOW_DATA
001146 B300               M         BTFSC   BTN_X0_FLAGS+8,           BTN_FLG_MASKED, BANKED
001148 D???               M         BRA     LLIM_OFF_24
00114A B100               M         BTFSC   BTN_X0_FLAGS+8,           BTN_FLG_PRESSED, BANKED
00114C D???               M         BRA     LLIM_OFF_24
00114E A000               M         BTFSS   QUIZSHOW_FLAGS, QS_FLAG_SCANNING, ACCESS
001150 D???               M         BRA     LLIM_OFF_24
                          M         ;
                          M         ; scanning and not pressed or masked? light up fully
                          M         ;
  00000003                M LLIM_LTN SET    3
                          M         WHILE LLIM_LTN > 0
  00000002                M LLIM_LTN --
                          M          SET_SSR_STEADY 18
                          M          SET_SSR_VALUE 18,  255
001152 0104               M         BANKSEL SSR_DATA_BANK
001154 0EFF               M          MOVLW  255
001156 6F00               M          MOVWF  SSR_00_VALUE+18,  BANKED
001158 6B00               M          CLRF   SSR_00_STEP+18,  BANKED
00115A 6B00               M          CLRF   SSR_00_SPEED+18,  BANKED
00115C 6B00               M          CLRF   SSR_00_COUNTER+18,  BANKED
00115E 6B00               M          CLRF   SSR_00_FLAGS+18,  BANKED
  00000001                M LLIM_LTN --
                          M          SET_SSR_STEADY 17
                          M          SET_SSR_VALUE 17,  255
001160 0104               M         BANKSEL SSR_DATA_BANK
001162 0EFF               M          MOVLW  255
001164 6F00               M          MOVWF  SSR_00_VALUE+17,  BANKED
001166 6B00               M          CLRF   SSR_00_STEP+17,  BANKED
001168 6B00               M          CLRF   SSR_00_SPEED+17,  BANKED
00116A 6B00               M          CLRF   SSR_00_COUNTER+17,  BANKED
00116C 6B00               M          CLRF   SSR_00_FLAGS+17,  BANKED
  00000000                M LLIM_LTN --
                          M          SET_SSR_STEADY 16
                          M          SET_SSR_VALUE 16,  255
00116E 0104               M         BANKSEL SSR_DATA_BANK
001170 0EFF               M          MOVLW  255
001172 6F00               M          MOVWF  SSR_00_VALUE+16,  BANKED
001174 6B00               M          CLRF   SSR_00_STEP+16,  BANKED
001176 6B00               M          CLRF   SSR_00_SPEED+16,  BANKED
001178 6B00               M          CLRF   SSR_00_COUNTER+16,  BANKED
00117A 6B00               M          CLRF   SSR_00_FLAGS+16,  BANKED
                          M         ENDW
00117C D???               M         BRA     LLIM_END_24
                          M         
00117E                    M LLIM_OFF_24:
                          M         ;
                          M         ; button pressed or masked, or scan is off; 
                          M         ; turn off until the host computer
                          M         ; stops the scan and awards the winner
                          M         ;
  00000003                M LLIM_LTN SET    3
                          M         WHILE LLIM_LTN > 0
  00000002                M LLIM_LTN --
                          M          SET_SSR_OFF 18
                          M          SET_SSR_VALUE 18,  0
00117E 0104               M         BANKSEL SSR_DATA_BANK
001180 0E00               M          MOVLW  0
001182 6F00               M          MOVWF  SSR_00_VALUE+18,  BANKED
001184 6B00               M          CLRF   SSR_00_STEP+18,  BANKED
001186 6B00               M          CLRF   SSR_00_SPEED+18,  BANKED
001188 6B00               M          CLRF   SSR_00_COUNTER+18,  BANKED
00118A 6B00               M          CLRF   SSR_00_FLAGS+18,  BANKED
  00000001                M LLIM_LTN --
                          M          SET_SSR_OFF 17
                          M          SET_SSR_VALUE 17,  0
00118C 0104               M         BANKSEL SSR_DATA_BANK
00118E 0E00               M          MOVLW  0
001190 6F00               M          MOVWF  SSR_00_VALUE+17,  BANKED
001192 6B00               M          CLRF   SSR_00_STEP+17,  BANKED
001194 6B00               M          CLRF   SSR_00_SPEED+17,  BANKED
001196 6B00               M          CLRF   SSR_00_COUNTER+17,  BANKED
001198 6B00               M          CLRF   SSR_00_FLAGS+17,  BANKED
  00000000                M LLIM_LTN --
MPASM 5.66              ../QUIZSHOW_MAIN.ASM   3-1-2017  12:21:15         PAGE 72


LOC  OBJECT CODE     LINE SOURCE TEXT
  VALUE

                          M          SET_SSR_OFF 16
                          M          SET_SSR_VALUE 16,  0
00119A 0104               M         BANKSEL SSR_DATA_BANK
00119C 0E00               M          MOVLW  0
00119E 6F00               M          MOVWF  SSR_00_VALUE+16,  BANKED
0011A0 6B00               M          CLRF   SSR_00_STEP+16,  BANKED
0011A2 6B00               M          CLRF   SSR_00_SPEED+16,  BANKED
0011A4 6B00               M          CLRF   SSR_00_COUNTER+16,  BANKED
0011A6 6B00               M          CLRF   SSR_00_FLAGS+16,  BANKED
                          M         ENDW
                          M 
0011A8                    M LLIM_END_24:
0011A8 010C               M         BANKSEL QUIZSHOW_DATA
  00000019                M LLIM_N  ++
0011AA D???               M         BRA     SCN_DB_DONE_8
                          M 
0011AC                    M SCN_DB_DOWN_8:
                          M         ;
                          M         ; button senses as "down". fill debounce counter if possible
                          M         ;
0011AC 010C               M         BANKSEL QUIZSHOW_DATA
0011AE 3F00               M         INCFSZ  BTN_X0_DEB_TMR+8,           F, BANKED
0011B0 D???               M         BRA     SCN_DB_DONE_8
                          M         ;
                          M         ; counter was full (since we overflowed it to 0 again). so
                          M         ; the button is officially "down".  Put the counter back
                          M         ; to 255 and proceed with what it means for the button to be
                          M         ; officially down.
                          M         ;
0011B2 6900               M         SETF    BTN_X0_DEB_TMR+8,           BANKED
0011B4 B500               M         BTFSC   BTN_X0_FLAGS+8,           BTN_FLG_LOCKED, BANKED        ; is it locked?
0011B6 D???               M         BRA     SCN_DB_RST_LCK_8                                ; stay locked longer
0011B8 B700               M         BTFSC   BTN_X0_FLAGS+8,           BTN_FLG_ACTIVE, BANKED        ; if we already saw the button p
                            ress
0011BA D???               M         BRA     SCN_DB_DONE_8                                   ;   then we don't need to do anything mo
                            re
                          M         ;
                          M         ; We didn't know the button was down yet. Let's see what
                          M         ; that changes...
                          M         ;
0011BC 8700               M         BSF     BTN_X0_FLAGS+8,           BTN_FLG_ACTIVE, BANKED        ; mark as "down"
0011BE B300               M         BTFSC   BTN_X0_FLAGS+8,           BTN_FLG_MASKED, BANKED        ; is it masked?
0011C0 D???               M         BRA     SCN_DB_DONE_8                                   ; then ignore it
0011C2 B100               M         BTFSC   BTN_X0_FLAGS+8,           BTN_FLG_PRESSED, BANKED       ; already noted?
0011C4 D???               M         BRA     SCN_DB_DONE_8                                   ; then we're already done
0011C6 A000               M         BTFSS   QUIZSHOW_FLAGS, QS_FLAG_SCANNING, ACCESS        ; legal to press?
0011C8 D???               M         BRA     SCN_DB_RST_LCK_8                                ; if not, lock out!
                          M         ;
                          M         ; The button was pressed legally and this is the first time we
                          M         ; noticed it. Record it as the official press for this button.
                          M         ;
0011CA 8100               M         BSF     BTN_X0_FLAGS+8,           BTN_FLG_PRESSED, BANKED
0011CC 9EF2               M         BCF     INTCON, 7, ACCESS                               ; disable interrupts
0011CE 9CF2               M         BCF     INTCON, 6, ACCESS                               ; disable interrupts
0011D0 C??? F???          M         MOVFF   QS_BTN_TMR_U, BTN_X0_TIME_U+8
0011D4 C??? F???          M         MOVFF   QS_BTN_TMR_T, BTN_X0_TIME_T+8
0011D8 CFCE F???          M         MOVFF   TMR1L, BTN_X0_TIME_L+8
0011DC CFCF F???          M         MOVFF   TMR1H, BTN_X0_TIME_H+8
0011E0 8EF2               M         BSF     INTCON, 7, ACCESS                               ; enable interrupts
0011E2 8CF2               M         BSF     INTCON, 6, ACCESS                               ; enable interrupts
                          M         LOCAL_LIGHT_INDICATOR BTN_IDX_X4, CHAN_X4R, 3, CHAN_X4R
0011E4 010C               M         BANKSEL QUIZSHOW_DATA
0011E6 A500               M         BTFSS   BTN_X0_FLAGS+8,           BTN_FLG_LOCKED, BANKED
0011E8 D???               M         BRA     LLIM_NOT_LOCKED_25
0011EA B900               M         BTFSC   BTN_X0_FLAGS+8,           BTN_FLG_LCK_ACK, BANKED
0011EC D???               M         BRA     LLIM_NOT_LOCKED_25
                          M         ;
                          M         ; light up for locked mode for the first time
                          M         ;
0011EE 8900               M         BSF     BTN_X0_FLAGS+8,           BTN_FLG_LCK_ACK, BANKED       ; don't do it again
  00000003                M LLIM_LTN SET    3
                          M         WHILE LLIM_LTN > 0
  00000002                M LLIM_LTN --
                          M          SET_SSR_OFF 18
                          M          SET_SSR_VALUE 18,  0
0011F0 0104               M         BANKSEL SSR_DATA_BANK
0011F2 0E00               M          MOVLW  0
0011F4 6F00               M          MOVWF  SSR_00_VALUE+18,  BANKED
0011F6 6B00               M          CLRF   SSR_00_STEP+18,  BANKED
0011F8 6B00               M          CLRF   SSR_00_SPEED+18,  BANKED
MPASM 5.66              ../QUIZSHOW_MAIN.ASM   3-1-2017  12:21:15         PAGE 73


LOC  OBJECT CODE     LINE SOURCE TEXT
  VALUE

0011FA 6B00               M          CLRF   SSR_00_COUNTER+18,  BANKED
0011FC 6B00               M          CLRF   SSR_00_FLAGS+18,  BANKED
  00000001                M LLIM_LTN --
                          M          SET_SSR_OFF 17
                          M          SET_SSR_VALUE 17,  0
0011FE 0104               M         BANKSEL SSR_DATA_BANK
001200 0E00               M          MOVLW  0
001202 6F00               M          MOVWF  SSR_00_VALUE+17,  BANKED
001204 6B00               M          CLRF   SSR_00_STEP+17,  BANKED
001206 6B00               M          CLRF   SSR_00_SPEED+17,  BANKED
001208 6B00               M          CLRF   SSR_00_COUNTER+17,  BANKED
00120A 6B00               M          CLRF   SSR_00_FLAGS+17,  BANKED
  00000000                M LLIM_LTN --
                          M          SET_SSR_OFF 16
                          M          SET_SSR_VALUE 16,  0
00120C 0104               M         BANKSEL SSR_DATA_BANK
00120E 0E00               M          MOVLW  0
001210 6F00               M          MOVWF  SSR_00_VALUE+16,  BANKED
001212 6B00               M          CLRF   SSR_00_STEP+16,  BANKED
001214 6B00               M          CLRF   SSR_00_SPEED+16,  BANKED
001216 6B00               M          CLRF   SSR_00_COUNTER+16,  BANKED
001218 6B00               M          CLRF   SSR_00_FLAGS+16,  BANKED
                          M         ENDW
                          M         SET_SSR_RAPID_FADE CHAN_X4R
                          M          SET_SSR_PATTERN CHAN_X4R, 0, 4, 1, BIT_FADE_UP|BIT_FADE_CYCLE
00121A 0104               M         BANKSEL SSR_DATA_BANK
00121C 0E00               M          MOVLW  0
00121E 6F00               M          MOVWF  SSR_00_VALUE+CHAN_X4R, BANKED
001220 0E04               M          MOVLW  4
001222 6F00               M          MOVWF  SSR_00_STEP+CHAN_X4R, BANKED
001224 0E01               M          MOVLW  1
001226 6F00               M          MOVWF  SSR_00_SPEED+CHAN_X4R, BANKED
001228 6F00               M          MOVWF  SSR_00_COUNTER+CHAN_X4R, BANKED
00122A 0EA0               M          MOVLW  BIT_FADE_UP|BIT_FADE_CYCLE
00122C 6F00               M          MOVWF  SSR_00_FLAGS+CHAN_X4R, BANKED
00122E D???               M         BRA     LLIM_END_25
                          M 
001230                    M LLIM_NOT_LOCKED_25:
001230 010C               M         BANKSEL QUIZSHOW_DATA
001232 B300               M         BTFSC   BTN_X0_FLAGS+8,           BTN_FLG_MASKED, BANKED
001234 D???               M         BRA     LLIM_OFF_25
001236 B100               M         BTFSC   BTN_X0_FLAGS+8,           BTN_FLG_PRESSED, BANKED
001238 D???               M         BRA     LLIM_OFF_25
00123A A000               M         BTFSS   QUIZSHOW_FLAGS, QS_FLAG_SCANNING, ACCESS
00123C D???               M         BRA     LLIM_OFF_25
                          M         ;
                          M         ; scanning and not pressed or masked? light up fully
                          M         ;
  00000003                M LLIM_LTN SET    3
                          M         WHILE LLIM_LTN > 0
  00000002                M LLIM_LTN --
                          M          SET_SSR_STEADY 18
                          M          SET_SSR_VALUE 18,  255
00123E 0104               M         BANKSEL SSR_DATA_BANK
001240 0EFF               M          MOVLW  255
001242 6F00               M          MOVWF  SSR_00_VALUE+18,  BANKED
001244 6B00               M          CLRF   SSR_00_STEP+18,  BANKED
001246 6B00               M          CLRF   SSR_00_SPEED+18,  BANKED
001248 6B00               M          CLRF   SSR_00_COUNTER+18,  BANKED
00124A 6B00               M          CLRF   SSR_00_FLAGS+18,  BANKED
  00000001                M LLIM_LTN --
                          M          SET_SSR_STEADY 17
                          M          SET_SSR_VALUE 17,  255
00124C 0104               M         BANKSEL SSR_DATA_BANK
00124E 0EFF               M          MOVLW  255
001250 6F00               M          MOVWF  SSR_00_VALUE+17,  BANKED
001252 6B00               M          CLRF   SSR_00_STEP+17,  BANKED
001254 6B00               M          CLRF   SSR_00_SPEED+17,  BANKED
001256 6B00               M          CLRF   SSR_00_COUNTER+17,  BANKED
001258 6B00               M          CLRF   SSR_00_FLAGS+17,  BANKED
  00000000                M LLIM_LTN --
                          M          SET_SSR_STEADY 16
                          M          SET_SSR_VALUE 16,  255
00125A 0104               M         BANKSEL SSR_DATA_BANK
00125C 0EFF               M          MOVLW  255
00125E 6F00               M          MOVWF  SSR_00_VALUE+16,  BANKED
001260 6B00               M          CLRF   SSR_00_STEP+16,  BANKED
001262 6B00               M          CLRF   SSR_00_SPEED+16,  BANKED
001264 6B00               M          CLRF   SSR_00_COUNTER+16,  BANKED
001266 6B00               M          CLRF   SSR_00_FLAGS+16,  BANKED
MPASM 5.66              ../QUIZSHOW_MAIN.ASM   3-1-2017  12:21:15         PAGE 74


LOC  OBJECT CODE     LINE SOURCE TEXT
  VALUE

                          M         ENDW
001268 D???               M         BRA     LLIM_END_25
                          M         
00126A                    M LLIM_OFF_25:
                          M         ;
                          M         ; button pressed or masked, or scan is off; 
                          M         ; turn off until the host computer
                          M         ; stops the scan and awards the winner
                          M         ;
  00000003                M LLIM_LTN SET    3
                          M         WHILE LLIM_LTN > 0
  00000002                M LLIM_LTN --
                          M          SET_SSR_OFF 18
                          M          SET_SSR_VALUE 18,  0
00126A 0104               M         BANKSEL SSR_DATA_BANK
00126C 0E00               M          MOVLW  0
00126E 6F00               M          MOVWF  SSR_00_VALUE+18,  BANKED
001270 6B00               M          CLRF   SSR_00_STEP+18,  BANKED
001272 6B00               M          CLRF   SSR_00_SPEED+18,  BANKED
001274 6B00               M          CLRF   SSR_00_COUNTER+18,  BANKED
001276 6B00               M          CLRF   SSR_00_FLAGS+18,  BANKED
  00000001                M LLIM_LTN --
                          M          SET_SSR_OFF 17
                          M          SET_SSR_VALUE 17,  0
001278 0104               M         BANKSEL SSR_DATA_BANK
00127A 0E00               M          MOVLW  0
00127C 6F00               M          MOVWF  SSR_00_VALUE+17,  BANKED
00127E 6B00               M          CLRF   SSR_00_STEP+17,  BANKED
001280 6B00               M          CLRF   SSR_00_SPEED+17,  BANKED
001282 6B00               M          CLRF   SSR_00_COUNTER+17,  BANKED
001284 6B00               M          CLRF   SSR_00_FLAGS+17,  BANKED
  00000000                M LLIM_LTN --
                          M          SET_SSR_OFF 16
                          M          SET_SSR_VALUE 16,  0
001286 0104               M         BANKSEL SSR_DATA_BANK
001288 0E00               M          MOVLW  0
00128A 6F00               M          MOVWF  SSR_00_VALUE+16,  BANKED
00128C 6B00               M          CLRF   SSR_00_STEP+16,  BANKED
00128E 6B00               M          CLRF   SSR_00_SPEED+16,  BANKED
001290 6B00               M          CLRF   SSR_00_COUNTER+16,  BANKED
001292 6B00               M          CLRF   SSR_00_FLAGS+16,  BANKED
                          M         ENDW
                          M 
001294                    M LLIM_END_25:
001294 010C               M         BANKSEL QUIZSHOW_DATA
  0000001A                M LLIM_N  ++
                          M 
001296                    M SCN_DB_DONE_8:
                          M         ;
                          M         ; We're done with the button debouncing operations.
                          M         ;
                          M         ; If we're processing the 120Hz cleanup operations, do them now
                          M         ; for this button.
                          M         ;
001296 A400               M         BTFSS   QUIZSHOW_FLAGS, QS_FLAG_DOING120, ACCESS
001298 D???               M         BRA     SCN_DB_END_8
                          M         ;
                          M         ; If the button is locked out, decrement its timer. If it reaches
                          M         ; zero, we can release the lock now.
                          M         ;
00129A 010C               M         BANKSEL QUIZSHOW_DATA
00129C B500               M         BTFSC   BTN_X0_FLAGS+8,           BTN_FLG_LOCKED, BANKED
00129E 2F00               M         DECFSZ  BTN_X0_LOCKTMR+8,           F, BANKED
0012A0 D???               M         BRA     SCN_DB_END_8
0012A2 9500               M         BCF     BTN_X0_FLAGS+8,           BTN_FLG_LOCKED, BANKED        ; release the lock
0012A4 9900               M         BCF     BTN_X0_FLAGS+8,           BTN_FLG_LCK_ACK, BANKED
                          M         LOCAL_LIGHT_INDICATOR BTN_IDX_X4, CHAN_X4R, 3, CHAN_X4R
0012A6 010C               M         BANKSEL QUIZSHOW_DATA
0012A8 A500               M         BTFSS   BTN_X0_FLAGS+8,           BTN_FLG_LOCKED, BANKED
0012AA D???               M         BRA     LLIM_NOT_LOCKED_26
0012AC B900               M         BTFSC   BTN_X0_FLAGS+8,           BTN_FLG_LCK_ACK, BANKED
0012AE D???               M         BRA     LLIM_NOT_LOCKED_26
                          M         ;
                          M         ; light up for locked mode for the first time
                          M         ;
0012B0 8900               M         BSF     BTN_X0_FLAGS+8,           BTN_FLG_LCK_ACK, BANKED       ; don't do it again
  00000003                M LLIM_LTN SET    3
                          M         WHILE LLIM_LTN > 0
  00000002                M LLIM_LTN --
                          M          SET_SSR_OFF 18
MPASM 5.66              ../QUIZSHOW_MAIN.ASM   3-1-2017  12:21:15         PAGE 75


LOC  OBJECT CODE     LINE SOURCE TEXT
  VALUE

                          M          SET_SSR_VALUE 18,  0
0012B2 0104               M         BANKSEL SSR_DATA_BANK
0012B4 0E00               M          MOVLW  0
0012B6 6F00               M          MOVWF  SSR_00_VALUE+18,  BANKED
0012B8 6B00               M          CLRF   SSR_00_STEP+18,  BANKED
0012BA 6B00               M          CLRF   SSR_00_SPEED+18,  BANKED
0012BC 6B00               M          CLRF   SSR_00_COUNTER+18,  BANKED
0012BE 6B00               M          CLRF   SSR_00_FLAGS+18,  BANKED
  00000001                M LLIM_LTN --
                          M          SET_SSR_OFF 17
                          M          SET_SSR_VALUE 17,  0
0012C0 0104               M         BANKSEL SSR_DATA_BANK
0012C2 0E00               M          MOVLW  0
0012C4 6F00               M          MOVWF  SSR_00_VALUE+17,  BANKED
0012C6 6B00               M          CLRF   SSR_00_STEP+17,  BANKED
0012C8 6B00               M          CLRF   SSR_00_SPEED+17,  BANKED
0012CA 6B00               M          CLRF   SSR_00_COUNTER+17,  BANKED
0012CC 6B00               M          CLRF   SSR_00_FLAGS+17,  BANKED
  00000000                M LLIM_LTN --
                          M          SET_SSR_OFF 16
                          M          SET_SSR_VALUE 16,  0
0012CE 0104               M         BANKSEL SSR_DATA_BANK
0012D0 0E00               M          MOVLW  0
0012D2 6F00               M          MOVWF  SSR_00_VALUE+16,  BANKED
0012D4 6B00               M          CLRF   SSR_00_STEP+16,  BANKED
0012D6 6B00               M          CLRF   SSR_00_SPEED+16,  BANKED
0012D8 6B00               M          CLRF   SSR_00_COUNTER+16,  BANKED
0012DA 6B00               M          CLRF   SSR_00_FLAGS+16,  BANKED
                          M         ENDW
                          M         SET_SSR_RAPID_FADE CHAN_X4R
                          M          SET_SSR_PATTERN CHAN_X4R, 0, 4, 1, BIT_FADE_UP|BIT_FADE_CYCLE
0012DC 0104               M         BANKSEL SSR_DATA_BANK
0012DE 0E00               M          MOVLW  0
0012E0 6F00               M          MOVWF  SSR_00_VALUE+CHAN_X4R, BANKED
0012E2 0E04               M          MOVLW  4
0012E4 6F00               M          MOVWF  SSR_00_STEP+CHAN_X4R, BANKED
0012E6 0E01               M          MOVLW  1
0012E8 6F00               M          MOVWF  SSR_00_SPEED+CHAN_X4R, BANKED
0012EA 6F00               M          MOVWF  SSR_00_COUNTER+CHAN_X4R, BANKED
0012EC 0EA0               M          MOVLW  BIT_FADE_UP|BIT_FADE_CYCLE
0012EE 6F00               M          MOVWF  SSR_00_FLAGS+CHAN_X4R, BANKED
0012F0 D???               M         BRA     LLIM_END_26
                          M 
0012F2                    M LLIM_NOT_LOCKED_26:
0012F2 010C               M         BANKSEL QUIZSHOW_DATA
0012F4 B300               M         BTFSC   BTN_X0_FLAGS+8,           BTN_FLG_MASKED, BANKED
0012F6 D???               M         BRA     LLIM_OFF_26
0012F8 B100               M         BTFSC   BTN_X0_FLAGS+8,           BTN_FLG_PRESSED, BANKED
0012FA D???               M         BRA     LLIM_OFF_26
0012FC A000               M         BTFSS   QUIZSHOW_FLAGS, QS_FLAG_SCANNING, ACCESS
0012FE D???               M         BRA     LLIM_OFF_26
                          M         ;
                          M         ; scanning and not pressed or masked? light up fully
                          M         ;
  00000003                M LLIM_LTN SET    3
                          M         WHILE LLIM_LTN > 0
  00000002                M LLIM_LTN --
                          M          SET_SSR_STEADY 18
                          M          SET_SSR_VALUE 18,  255
001300 0104               M         BANKSEL SSR_DATA_BANK
001302 0EFF               M          MOVLW  255
001304 6F00               M          MOVWF  SSR_00_VALUE+18,  BANKED
001306 6B00               M          CLRF   SSR_00_STEP+18,  BANKED
001308 6B00               M          CLRF   SSR_00_SPEED+18,  BANKED
00130A 6B00               M          CLRF   SSR_00_COUNTER+18,  BANKED
00130C 6B00               M          CLRF   SSR_00_FLAGS+18,  BANKED
  00000001                M LLIM_LTN --
                          M          SET_SSR_STEADY 17
                          M          SET_SSR_VALUE 17,  255
00130E 0104               M         BANKSEL SSR_DATA_BANK
001310 0EFF               M          MOVLW  255
001312 6F00               M          MOVWF  SSR_00_VALUE+17,  BANKED
001314 6B00               M          CLRF   SSR_00_STEP+17,  BANKED
001316 6B00               M          CLRF   SSR_00_SPEED+17,  BANKED
001318 6B00               M          CLRF   SSR_00_COUNTER+17,  BANKED
00131A 6B00               M          CLRF   SSR_00_FLAGS+17,  BANKED
  00000000                M LLIM_LTN --
                          M          SET_SSR_STEADY 16
                          M          SET_SSR_VALUE 16,  255
00131C 0104               M         BANKSEL SSR_DATA_BANK
MPASM 5.66              ../QUIZSHOW_MAIN.ASM   3-1-2017  12:21:15         PAGE 76


LOC  OBJECT CODE     LINE SOURCE TEXT
  VALUE

00131E 0EFF               M          MOVLW  255
001320 6F00               M          MOVWF  SSR_00_VALUE+16,  BANKED
001322 6B00               M          CLRF   SSR_00_STEP+16,  BANKED
001324 6B00               M          CLRF   SSR_00_SPEED+16,  BANKED
001326 6B00               M          CLRF   SSR_00_COUNTER+16,  BANKED
001328 6B00               M          CLRF   SSR_00_FLAGS+16,  BANKED
                          M         ENDW
00132A D???               M         BRA     LLIM_END_26
                          M         
00132C                    M LLIM_OFF_26:
                          M         ;
                          M         ; button pressed or masked, or scan is off; 
                          M         ; turn off until the host computer
                          M         ; stops the scan and awards the winner
                          M         ;
  00000003                M LLIM_LTN SET    3
                          M         WHILE LLIM_LTN > 0
  00000002                M LLIM_LTN --
                          M          SET_SSR_OFF 18
                          M          SET_SSR_VALUE 18,  0
00132C 0104               M         BANKSEL SSR_DATA_BANK
00132E 0E00               M          MOVLW  0
001330 6F00               M          MOVWF  SSR_00_VALUE+18,  BANKED
001332 6B00               M          CLRF   SSR_00_STEP+18,  BANKED
001334 6B00               M          CLRF   SSR_00_SPEED+18,  BANKED
001336 6B00               M          CLRF   SSR_00_COUNTER+18,  BANKED
001338 6B00               M          CLRF   SSR_00_FLAGS+18,  BANKED
  00000001                M LLIM_LTN --
                          M          SET_SSR_OFF 17
                          M          SET_SSR_VALUE 17,  0
00133A 0104               M         BANKSEL SSR_DATA_BANK
00133C 0E00               M          MOVLW  0
00133E 6F00               M          MOVWF  SSR_00_VALUE+17,  BANKED
001340 6B00               M          CLRF   SSR_00_STEP+17,  BANKED
001342 6B00               M          CLRF   SSR_00_SPEED+17,  BANKED
001344 6B00               M          CLRF   SSR_00_COUNTER+17,  BANKED
001346 6B00               M          CLRF   SSR_00_FLAGS+17,  BANKED
  00000000                M LLIM_LTN --
                          M          SET_SSR_OFF 16
                          M          SET_SSR_VALUE 16,  0
001348 0104               M         BANKSEL SSR_DATA_BANK
00134A 0E00               M          MOVLW  0
00134C 6F00               M          MOVWF  SSR_00_VALUE+16,  BANKED
00134E 6B00               M          CLRF   SSR_00_STEP+16,  BANKED
001350 6B00               M          CLRF   SSR_00_SPEED+16,  BANKED
001352 6B00               M          CLRF   SSR_00_COUNTER+16,  BANKED
001354 6B00               M          CLRF   SSR_00_FLAGS+16,  BANKED
                          M         ENDW
                          M 
001356                    M LLIM_END_26:
001356 010C               M         BANKSEL QUIZSHOW_DATA
  0000001B                M LLIM_N  ++
                          M 
001358                    M SCN_DB_END_8:
  00000009                M SCN_DBN ++
                      01016           SCAN_DEBOUNCE BTN_IDX_L4, PORT_L4, BIT_L4, CHAN_L4R, 1, CHAN_L4R
001358 010C               M         BANKSEL QUIZSHOW_DATA
00135A 0004               M         CLRWDT
                          M         ;
                          M         ; Sense button state: 
                          M         ;  0=pressed
                          M         ;  1=released
                          M         ;
00135C AA82               M         BTFSS   3970,         BIT_L4,  ACCESS
00135E D???               M         BRA     SCN_DB_DOWN_9           ; pressed? branch
                          M         ;
                          M         ; button senses as "up". drain debounce counter if possible
                          M         ;
001360 6700               M         TSTFSZ  BTN_X0_DEB_TMR+9,           BANKED
001362 D???               M         BRA     SCN_DB_DRAIN_9
                          M         ;
                          M         ; The button is officially "up".  If this is news, respond
                          M         ; to this change now.  All we need to do is note the status
                          M         ; change. Everything else happens later when the code notices
                          M         ; this flag state.
                          M         ;
001364 9700               M         BCF     BTN_X0_FLAGS+9,           BTN_FLG_ACTIVE, BANKED
001366 D???               M         BRA     SCN_DB_DONE_9
                          M 
001368                    M SCN_DB_DRAIN_9:
MPASM 5.66              ../QUIZSHOW_MAIN.ASM   3-1-2017  12:21:15         PAGE 77


LOC  OBJECT CODE     LINE SOURCE TEXT
  VALUE

                          M         ;
                          M         ; Drain the button debounce counter
                          M         ;
001368 010C               M         BANKSEL QUIZSHOW_DATA
00136A 0700               M         DECF    BTN_X0_DEB_TMR+9,           F, BANKED
00136C D???               M         BRA     SCN_DB_DONE_9
                          M 
00136E                    M SCN_DB_RST_LCK_9:
                          M         ;
                          M         ; The button needs to be locked out!
                          M         ; We found them pushing the button when they weren't supposed to.
                          M         ;
00136E 010C               M         BANKSEL QUIZSHOW_DATA
001370 8500               M         BSF     BTN_X0_FLAGS+9,           BTN_FLG_LOCKED, BANKED
001372 C??? F???          M         MOVFF   QUIZSHOW_LCKTM, BTN_X0_LOCKTMR+9
                          M         LOCAL_LIGHT_INDICATOR BTN_IDX_L4, CHAN_L4R, 1, CHAN_L4R
001376 010C               M         BANKSEL QUIZSHOW_DATA
001378 A500               M         BTFSS   BTN_X0_FLAGS+9,           BTN_FLG_LOCKED, BANKED
00137A D???               M         BRA     LLIM_NOT_LOCKED_27
00137C B900               M         BTFSC   BTN_X0_FLAGS+9,           BTN_FLG_LCK_ACK, BANKED
00137E D???               M         BRA     LLIM_NOT_LOCKED_27
                          M         ;
                          M         ; light up for locked mode for the first time
                          M         ;
001380 8900               M         BSF     BTN_X0_FLAGS+9,           BTN_FLG_LCK_ACK, BANKED       ; don't do it again
  00000001                M LLIM_LTN SET    1
                          M         WHILE LLIM_LTN > 0
  00000000                M LLIM_LTN --
                          M          SET_SSR_OFF 19
                          M          SET_SSR_VALUE 19,  0
001382 0104               M         BANKSEL SSR_DATA_BANK
001384 0E00               M          MOVLW  0
001386 6F00               M          MOVWF  SSR_00_VALUE+19,  BANKED
001388 6B00               M          CLRF   SSR_00_STEP+19,  BANKED
00138A 6B00               M          CLRF   SSR_00_SPEED+19,  BANKED
00138C 6B00               M          CLRF   SSR_00_COUNTER+19,  BANKED
00138E 6B00               M          CLRF   SSR_00_FLAGS+19,  BANKED
                          M         ENDW
                          M         SET_SSR_RAPID_FADE CHAN_L4R
                          M          SET_SSR_PATTERN CHAN_L4R, 0, 4, 1, BIT_FADE_UP|BIT_FADE_CYCLE
001390 0104               M         BANKSEL SSR_DATA_BANK
001392 0E00               M          MOVLW  0
001394 6F00               M          MOVWF  SSR_00_VALUE+CHAN_L4R, BANKED
001396 0E04               M          MOVLW  4
001398 6F00               M          MOVWF  SSR_00_STEP+CHAN_L4R, BANKED
00139A 0E01               M          MOVLW  1
00139C 6F00               M          MOVWF  SSR_00_SPEED+CHAN_L4R, BANKED
00139E 6F00               M          MOVWF  SSR_00_COUNTER+CHAN_L4R, BANKED
0013A0 0EA0               M          MOVLW  BIT_FADE_UP|BIT_FADE_CYCLE
0013A2 6F00               M          MOVWF  SSR_00_FLAGS+CHAN_L4R, BANKED
0013A4 D???               M         BRA     LLIM_END_27
                          M 
0013A6                    M LLIM_NOT_LOCKED_27:
0013A6 010C               M         BANKSEL QUIZSHOW_DATA
0013A8 B300               M         BTFSC   BTN_X0_FLAGS+9,           BTN_FLG_MASKED, BANKED
0013AA D???               M         BRA     LLIM_OFF_27
0013AC B100               M         BTFSC   BTN_X0_FLAGS+9,           BTN_FLG_PRESSED, BANKED
0013AE D???               M         BRA     LLIM_OFF_27
0013B0 A000               M         BTFSS   QUIZSHOW_FLAGS, QS_FLAG_SCANNING, ACCESS
0013B2 D???               M         BRA     LLIM_OFF_27
                          M         ;
                          M         ; scanning and not pressed or masked? light up fully
                          M         ;
  00000001                M LLIM_LTN SET    1
                          M         WHILE LLIM_LTN > 0
  00000000                M LLIM_LTN --
                          M          SET_SSR_STEADY 19
                          M          SET_SSR_VALUE 19,  255
0013B4 0104               M         BANKSEL SSR_DATA_BANK
0013B6 0EFF               M          MOVLW  255
0013B8 6F00               M          MOVWF  SSR_00_VALUE+19,  BANKED
0013BA 6B00               M          CLRF   SSR_00_STEP+19,  BANKED
0013BC 6B00               M          CLRF   SSR_00_SPEED+19,  BANKED
0013BE 6B00               M          CLRF   SSR_00_COUNTER+19,  BANKED
0013C0 6B00               M          CLRF   SSR_00_FLAGS+19,  BANKED
                          M         ENDW
0013C2 D???               M         BRA     LLIM_END_27
                          M         
0013C4                    M LLIM_OFF_27:
                          M         ;
MPASM 5.66              ../QUIZSHOW_MAIN.ASM   3-1-2017  12:21:15         PAGE 78


LOC  OBJECT CODE     LINE SOURCE TEXT
  VALUE

                          M         ; button pressed or masked, or scan is off; 
                          M         ; turn off until the host computer
                          M         ; stops the scan and awards the winner
                          M         ;
  00000001                M LLIM_LTN SET    1
                          M         WHILE LLIM_LTN > 0
  00000000                M LLIM_LTN --
                          M          SET_SSR_OFF 19
                          M          SET_SSR_VALUE 19,  0
0013C4 0104               M         BANKSEL SSR_DATA_BANK
0013C6 0E00               M          MOVLW  0
0013C8 6F00               M          MOVWF  SSR_00_VALUE+19,  BANKED
0013CA 6B00               M          CLRF   SSR_00_STEP+19,  BANKED
0013CC 6B00               M          CLRF   SSR_00_SPEED+19,  BANKED
0013CE 6B00               M          CLRF   SSR_00_COUNTER+19,  BANKED
0013D0 6B00               M          CLRF   SSR_00_FLAGS+19,  BANKED
                          M         ENDW
                          M 
0013D2                    M LLIM_END_27:
0013D2 010C               M         BANKSEL QUIZSHOW_DATA
  0000001C                M LLIM_N  ++
0013D4 D???               M         BRA     SCN_DB_DONE_9
                          M 
0013D6                    M SCN_DB_DOWN_9:
                          M         ;
                          M         ; button senses as "down". fill debounce counter if possible
                          M         ;
0013D6 010C               M         BANKSEL QUIZSHOW_DATA
0013D8 3F00               M         INCFSZ  BTN_X0_DEB_TMR+9,           F, BANKED
0013DA D???               M         BRA     SCN_DB_DONE_9
                          M         ;
                          M         ; counter was full (since we overflowed it to 0 again). so
                          M         ; the button is officially "down".  Put the counter back
                          M         ; to 255 and proceed with what it means for the button to be
                          M         ; officially down.
                          M         ;
0013DC 6900               M         SETF    BTN_X0_DEB_TMR+9,           BANKED
0013DE B500               M         BTFSC   BTN_X0_FLAGS+9,           BTN_FLG_LOCKED, BANKED        ; is it locked?
0013E0 D???               M         BRA     SCN_DB_RST_LCK_9                                ; stay locked longer
0013E2 B700               M         BTFSC   BTN_X0_FLAGS+9,           BTN_FLG_ACTIVE, BANKED        ; if we already saw the button p
                            ress
0013E4 D???               M         BRA     SCN_DB_DONE_9                                   ;   then we don't need to do anything mo
                            re
                          M         ;
                          M         ; We didn't know the button was down yet. Let's see what
                          M         ; that changes...
                          M         ;
0013E6 8700               M         BSF     BTN_X0_FLAGS+9,           BTN_FLG_ACTIVE, BANKED        ; mark as "down"
0013E8 B300               M         BTFSC   BTN_X0_FLAGS+9,           BTN_FLG_MASKED, BANKED        ; is it masked?
0013EA D???               M         BRA     SCN_DB_DONE_9                                   ; then ignore it
0013EC B100               M         BTFSC   BTN_X0_FLAGS+9,           BTN_FLG_PRESSED, BANKED       ; already noted?
0013EE D???               M         BRA     SCN_DB_DONE_9                                   ; then we're already done
0013F0 A000               M         BTFSS   QUIZSHOW_FLAGS, QS_FLAG_SCANNING, ACCESS        ; legal to press?
0013F2 D???               M         BRA     SCN_DB_RST_LCK_9                                ; if not, lock out!
                          M         ;
                          M         ; The button was pressed legally and this is the first time we
                          M         ; noticed it. Record it as the official press for this button.
                          M         ;
0013F4 8100               M         BSF     BTN_X0_FLAGS+9,           BTN_FLG_PRESSED, BANKED
0013F6 9EF2               M         BCF     INTCON, 7, ACCESS                               ; disable interrupts
0013F8 9CF2               M         BCF     INTCON, 6, ACCESS                               ; disable interrupts
0013FA C??? F???          M         MOVFF   QS_BTN_TMR_U, BTN_X0_TIME_U+9
0013FE C??? F???          M         MOVFF   QS_BTN_TMR_T, BTN_X0_TIME_T+9
001402 CFCE F???          M         MOVFF   TMR1L, BTN_X0_TIME_L+9
001406 CFCF F???          M         MOVFF   TMR1H, BTN_X0_TIME_H+9
00140A 8EF2               M         BSF     INTCON, 7, ACCESS                               ; enable interrupts
00140C 8CF2               M         BSF     INTCON, 6, ACCESS                               ; enable interrupts
                          M         LOCAL_LIGHT_INDICATOR BTN_IDX_L4, CHAN_L4R, 1, CHAN_L4R
00140E 010C               M         BANKSEL QUIZSHOW_DATA
001410 A500               M         BTFSS   BTN_X0_FLAGS+9,           BTN_FLG_LOCKED, BANKED
001412 D???               M         BRA     LLIM_NOT_LOCKED_28
001414 B900               M         BTFSC   BTN_X0_FLAGS+9,           BTN_FLG_LCK_ACK, BANKED
001416 D???               M         BRA     LLIM_NOT_LOCKED_28
                          M         ;
                          M         ; light up for locked mode for the first time
                          M         ;
001418 8900               M         BSF     BTN_X0_FLAGS+9,           BTN_FLG_LCK_ACK, BANKED       ; don't do it again
  00000001                M LLIM_LTN SET    1
                          M         WHILE LLIM_LTN > 0
  00000000                M LLIM_LTN --
MPASM 5.66              ../QUIZSHOW_MAIN.ASM   3-1-2017  12:21:15         PAGE 79


LOC  OBJECT CODE     LINE SOURCE TEXT
  VALUE

                          M          SET_SSR_OFF 19
                          M          SET_SSR_VALUE 19,  0
00141A 0104               M         BANKSEL SSR_DATA_BANK
00141C 0E00               M          MOVLW  0
00141E 6F00               M          MOVWF  SSR_00_VALUE+19,  BANKED
001420 6B00               M          CLRF   SSR_00_STEP+19,  BANKED
001422 6B00               M          CLRF   SSR_00_SPEED+19,  BANKED
001424 6B00               M          CLRF   SSR_00_COUNTER+19,  BANKED
001426 6B00               M          CLRF   SSR_00_FLAGS+19,  BANKED
                          M         ENDW
                          M         SET_SSR_RAPID_FADE CHAN_L4R
                          M          SET_SSR_PATTERN CHAN_L4R, 0, 4, 1, BIT_FADE_UP|BIT_FADE_CYCLE
001428 0104               M         BANKSEL SSR_DATA_BANK
00142A 0E00               M          MOVLW  0
00142C 6F00               M          MOVWF  SSR_00_VALUE+CHAN_L4R, BANKED
00142E 0E04               M          MOVLW  4
001430 6F00               M          MOVWF  SSR_00_STEP+CHAN_L4R, BANKED
001432 0E01               M          MOVLW  1
001434 6F00               M          MOVWF  SSR_00_SPEED+CHAN_L4R, BANKED
001436 6F00               M          MOVWF  SSR_00_COUNTER+CHAN_L4R, BANKED
001438 0EA0               M          MOVLW  BIT_FADE_UP|BIT_FADE_CYCLE
00143A 6F00               M          MOVWF  SSR_00_FLAGS+CHAN_L4R, BANKED
00143C D???               M         BRA     LLIM_END_28
                          M 
00143E                    M LLIM_NOT_LOCKED_28:
00143E 010C               M         BANKSEL QUIZSHOW_DATA
001440 B300               M         BTFSC   BTN_X0_FLAGS+9,           BTN_FLG_MASKED, BANKED
001442 D???               M         BRA     LLIM_OFF_28
001444 B100               M         BTFSC   BTN_X0_FLAGS+9,           BTN_FLG_PRESSED, BANKED
001446 D???               M         BRA     LLIM_OFF_28
001448 A000               M         BTFSS   QUIZSHOW_FLAGS, QS_FLAG_SCANNING, ACCESS
00144A D???               M         BRA     LLIM_OFF_28
                          M         ;
                          M         ; scanning and not pressed or masked? light up fully
                          M         ;
  00000001                M LLIM_LTN SET    1
                          M         WHILE LLIM_LTN > 0
  00000000                M LLIM_LTN --
                          M          SET_SSR_STEADY 19
                          M          SET_SSR_VALUE 19,  255
00144C 0104               M         BANKSEL SSR_DATA_BANK
00144E 0EFF               M          MOVLW  255
001450 6F00               M          MOVWF  SSR_00_VALUE+19,  BANKED
001452 6B00               M          CLRF   SSR_00_STEP+19,  BANKED
001454 6B00               M          CLRF   SSR_00_SPEED+19,  BANKED
001456 6B00               M          CLRF   SSR_00_COUNTER+19,  BANKED
001458 6B00               M          CLRF   SSR_00_FLAGS+19,  BANKED
                          M         ENDW
00145A D???               M         BRA     LLIM_END_28
                          M         
00145C                    M LLIM_OFF_28:
                          M         ;
                          M         ; button pressed or masked, or scan is off; 
                          M         ; turn off until the host computer
                          M         ; stops the scan and awards the winner
                          M         ;
  00000001                M LLIM_LTN SET    1
                          M         WHILE LLIM_LTN > 0
  00000000                M LLIM_LTN --
                          M          SET_SSR_OFF 19
                          M          SET_SSR_VALUE 19,  0
00145C 0104               M         BANKSEL SSR_DATA_BANK
00145E 0E00               M          MOVLW  0
001460 6F00               M          MOVWF  SSR_00_VALUE+19,  BANKED
001462 6B00               M          CLRF   SSR_00_STEP+19,  BANKED
001464 6B00               M          CLRF   SSR_00_SPEED+19,  BANKED
001466 6B00               M          CLRF   SSR_00_COUNTER+19,  BANKED
001468 6B00               M          CLRF   SSR_00_FLAGS+19,  BANKED
                          M         ENDW
                          M 
00146A                    M LLIM_END_28:
00146A 010C               M         BANKSEL QUIZSHOW_DATA
  0000001D                M LLIM_N  ++
                          M 
00146C                    M SCN_DB_DONE_9:
                          M         ;
                          M         ; We're done with the button debouncing operations.
                          M         ;
                          M         ; If we're processing the 120Hz cleanup operations, do them now
                          M         ; for this button.
MPASM 5.66              ../QUIZSHOW_MAIN.ASM   3-1-2017  12:21:15         PAGE 80


LOC  OBJECT CODE     LINE SOURCE TEXT
  VALUE

                          M         ;
00146C A400               M         BTFSS   QUIZSHOW_FLAGS, QS_FLAG_DOING120, ACCESS
00146E D???               M         BRA     SCN_DB_END_9
                          M         ;
                          M         ; If the button is locked out, decrement its timer. If it reaches
                          M         ; zero, we can release the lock now.
                          M         ;
001470 010C               M         BANKSEL QUIZSHOW_DATA
001472 B500               M         BTFSC   BTN_X0_FLAGS+9,           BTN_FLG_LOCKED, BANKED
001474 2F00               M         DECFSZ  BTN_X0_LOCKTMR+9,           F, BANKED
001476 D???               M         BRA     SCN_DB_END_9
001478 9500               M         BCF     BTN_X0_FLAGS+9,           BTN_FLG_LOCKED, BANKED        ; release the lock
00147A 9900               M         BCF     BTN_X0_FLAGS+9,           BTN_FLG_LCK_ACK, BANKED
                          M         LOCAL_LIGHT_INDICATOR BTN_IDX_L4, CHAN_L4R, 1, CHAN_L4R
00147C 010C               M         BANKSEL QUIZSHOW_DATA
00147E A500               M         BTFSS   BTN_X0_FLAGS+9,           BTN_FLG_LOCKED, BANKED
001480 D???               M         BRA     LLIM_NOT_LOCKED_29
001482 B900               M         BTFSC   BTN_X0_FLAGS+9,           BTN_FLG_LCK_ACK, BANKED
001484 D???               M         BRA     LLIM_NOT_LOCKED_29
                          M         ;
                          M         ; light up for locked mode for the first time
                          M         ;
001486 8900               M         BSF     BTN_X0_FLAGS+9,           BTN_FLG_LCK_ACK, BANKED       ; don't do it again
  00000001                M LLIM_LTN SET    1
                          M         WHILE LLIM_LTN > 0
  00000000                M LLIM_LTN --
                          M          SET_SSR_OFF 19
                          M          SET_SSR_VALUE 19,  0
001488 0104               M         BANKSEL SSR_DATA_BANK
00148A 0E00               M          MOVLW  0
00148C 6F00               M          MOVWF  SSR_00_VALUE+19,  BANKED
00148E 6B00               M          CLRF   SSR_00_STEP+19,  BANKED
001490 6B00               M          CLRF   SSR_00_SPEED+19,  BANKED
001492 6B00               M          CLRF   SSR_00_COUNTER+19,  BANKED
001494 6B00               M          CLRF   SSR_00_FLAGS+19,  BANKED
                          M         ENDW
                          M         SET_SSR_RAPID_FADE CHAN_L4R
                          M          SET_SSR_PATTERN CHAN_L4R, 0, 4, 1, BIT_FADE_UP|BIT_FADE_CYCLE
001496 0104               M         BANKSEL SSR_DATA_BANK
001498 0E00               M          MOVLW  0
00149A 6F00               M          MOVWF  SSR_00_VALUE+CHAN_L4R, BANKED
00149C 0E04               M          MOVLW  4
00149E 6F00               M          MOVWF  SSR_00_STEP+CHAN_L4R, BANKED
0014A0 0E01               M          MOVLW  1
0014A2 6F00               M          MOVWF  SSR_00_SPEED+CHAN_L4R, BANKED
0014A4 6F00               M          MOVWF  SSR_00_COUNTER+CHAN_L4R, BANKED
0014A6 0EA0               M          MOVLW  BIT_FADE_UP|BIT_FADE_CYCLE
0014A8 6F00               M          MOVWF  SSR_00_FLAGS+CHAN_L4R, BANKED
0014AA D???               M         BRA     LLIM_END_29
                          M 
0014AC                    M LLIM_NOT_LOCKED_29:
0014AC 010C               M         BANKSEL QUIZSHOW_DATA
0014AE B300               M         BTFSC   BTN_X0_FLAGS+9,           BTN_FLG_MASKED, BANKED
0014B0 D???               M         BRA     LLIM_OFF_29
0014B2 B100               M         BTFSC   BTN_X0_FLAGS+9,           BTN_FLG_PRESSED, BANKED
0014B4 D???               M         BRA     LLIM_OFF_29
0014B6 A000               M         BTFSS   QUIZSHOW_FLAGS, QS_FLAG_SCANNING, ACCESS
0014B8 D???               M         BRA     LLIM_OFF_29
                          M         ;
                          M         ; scanning and not pressed or masked? light up fully
                          M         ;
  00000001                M LLIM_LTN SET    1
                          M         WHILE LLIM_LTN > 0
  00000000                M LLIM_LTN --
                          M          SET_SSR_STEADY 19
                          M          SET_SSR_VALUE 19,  255
0014BA 0104               M         BANKSEL SSR_DATA_BANK
0014BC 0EFF               M          MOVLW  255
0014BE 6F00               M          MOVWF  SSR_00_VALUE+19,  BANKED
0014C0 6B00               M          CLRF   SSR_00_STEP+19,  BANKED
0014C2 6B00               M          CLRF   SSR_00_SPEED+19,  BANKED
0014C4 6B00               M          CLRF   SSR_00_COUNTER+19,  BANKED
0014C6 6B00               M          CLRF   SSR_00_FLAGS+19,  BANKED
                          M         ENDW
0014C8 D???               M         BRA     LLIM_END_29
                          M         
0014CA                    M LLIM_OFF_29:
                          M         ;
                          M         ; button pressed or masked, or scan is off; 
                          M         ; turn off until the host computer
MPASM 5.66              ../QUIZSHOW_MAIN.ASM   3-1-2017  12:21:15         PAGE 81


LOC  OBJECT CODE     LINE SOURCE TEXT
  VALUE

                          M         ; stops the scan and awards the winner
                          M         ;
  00000001                M LLIM_LTN SET    1
                          M         WHILE LLIM_LTN > 0
  00000000                M LLIM_LTN --
                          M          SET_SSR_OFF 19
                          M          SET_SSR_VALUE 19,  0
0014CA 0104               M         BANKSEL SSR_DATA_BANK
0014CC 0E00               M          MOVLW  0
0014CE 6F00               M          MOVWF  SSR_00_VALUE+19,  BANKED
0014D0 6B00               M          CLRF   SSR_00_STEP+19,  BANKED
0014D2 6B00               M          CLRF   SSR_00_SPEED+19,  BANKED
0014D4 6B00               M          CLRF   SSR_00_COUNTER+19,  BANKED
0014D6 6B00               M          CLRF   SSR_00_FLAGS+19,  BANKED
                          M         ENDW
                          M 
0014D8                    M LLIM_END_29:
0014D8 010C               M         BANKSEL QUIZSHOW_DATA
  0000001E                M LLIM_N  ++
                          M 
0014DA                    M SCN_DB_END_9:
  0000000A                M SCN_DBN ++
                      01017          ELSE
                      01018           ERROR "Improper LUMOS_CHIP_TYPE setting!"
                      01019          ENDIF
                      01020         ENDIF
0014DA 9400           01021         BCF     QUIZSHOW_FLAGS, QS_FLAG_DOING120, ACCESS
0014DC 0012           01022         RETURN
                      01023 
                      01024 
                      01025 ; if standalone mode:
                      01026 ;       if L4 pressed:
                      01027 ;               reset all buttons and lights, stop scanner
                      01028 ;       if X4 pressed:
                      01029 ;               start scanning
                      01030 ;       if anything else pressed:
                      01031 ;               light up X4 to indicate player who was in first
                      01032 ;               set flag to ignore further results (or, I suppose, keep re-comparing them :)
                      01033 ;       
                      01034 
                      01035 
                      01036 
                      01037 
                      01038 ;
                      01039 ; Start scanning for button presses
                      01040 ;
                      01041 ; Resets all button timers and pressed state, starts scanning
                      01042 ; This is stopped via the QS_QUERY command.
                      01043 ; This is a global command, only recognized when sent to address 15.
                      01044 ;
0014DE                01045 QSCC_CMD5_START:
0014DE 0004           01046         CLRWDT
                      01047         CLEAR_BUTTONS 0
  00000000                M CB_IDX  SET     0
0014E0 010C               M         BANKSEL QUIZSHOW_DATA
                          M         WHILE   CB_IDX < N_BUTTONS
0014E2 6B00               M          CLRF   BTN_X0_TIME_T+0,          BANKED
0014E4 6B00               M          CLRF   BTN_X0_TIME_U+0,          BANKED
0014E6 6B00               M          CLRF   BTN_X0_TIME_H+0,          BANKED
0014E8 6B00               M          CLRF   BTN_X0_TIME_L+0,          BANKED
                          M          IF 0
                          M           CLRF  BTN_X0_FLAGS+0,          BANKED
                          M           CLRF  BTN_X0_LOCKTMR+0,          BANKED
                          M           CLRF  BTN_X0_DEB_TMR+0,          BANKED
                          M          ELSE
0014EA 9100               M           BCF   BTN_X0_FLAGS+0,          BTN_FLG_PRESSED, BANKED
                          M          ENDIF
  00000001                M CB_IDX   ++
0014EC 6B00               M          CLRF   BTN_X0_TIME_T+1,          BANKED
0014EE 6B00               M          CLRF   BTN_X0_TIME_U+1,          BANKED
0014F0 6B00               M          CLRF   BTN_X0_TIME_H+1,          BANKED
0014F2 6B00               M          CLRF   BTN_X0_TIME_L+1,          BANKED
                          M          IF 0
                          M           CLRF  BTN_X0_FLAGS+1,          BANKED
                          M           CLRF  BTN_X0_LOCKTMR+1,          BANKED
                          M           CLRF  BTN_X0_DEB_TMR+1,          BANKED
                          M          ELSE
0014F4 9100               M           BCF   BTN_X0_FLAGS+1,          BTN_FLG_PRESSED, BANKED
                          M          ENDIF
  00000002                M CB_IDX   ++
MPASM 5.66              ../QUIZSHOW_MAIN.ASM   3-1-2017  12:21:15         PAGE 82


LOC  OBJECT CODE     LINE SOURCE TEXT
  VALUE

0014F6 6B00               M          CLRF   BTN_X0_TIME_T+2,          BANKED
0014F8 6B00               M          CLRF   BTN_X0_TIME_U+2,          BANKED
0014FA 6B00               M          CLRF   BTN_X0_TIME_H+2,          BANKED
0014FC 6B00               M          CLRF   BTN_X0_TIME_L+2,          BANKED
                          M          IF 0
                          M           CLRF  BTN_X0_FLAGS+2,          BANKED
                          M           CLRF  BTN_X0_LOCKTMR+2,          BANKED
                          M           CLRF  BTN_X0_DEB_TMR+2,          BANKED
                          M          ELSE
0014FE 9100               M           BCF   BTN_X0_FLAGS+2,          BTN_FLG_PRESSED, BANKED
                          M          ENDIF
  00000003                M CB_IDX   ++
001500 6B00               M          CLRF   BTN_X0_TIME_T+3,          BANKED
001502 6B00               M          CLRF   BTN_X0_TIME_U+3,          BANKED
001504 6B00               M          CLRF   BTN_X0_TIME_H+3,          BANKED
001506 6B00               M          CLRF   BTN_X0_TIME_L+3,          BANKED
                          M          IF 0
                          M           CLRF  BTN_X0_FLAGS+3,          BANKED
                          M           CLRF  BTN_X0_LOCKTMR+3,          BANKED
                          M           CLRF  BTN_X0_DEB_TMR+3,          BANKED
                          M          ELSE
001508 9100               M           BCF   BTN_X0_FLAGS+3,          BTN_FLG_PRESSED, BANKED
                          M          ENDIF
  00000004                M CB_IDX   ++
00150A 6B00               M          CLRF   BTN_X0_TIME_T+4,          BANKED
00150C 6B00               M          CLRF   BTN_X0_TIME_U+4,          BANKED
00150E 6B00               M          CLRF   BTN_X0_TIME_H+4,          BANKED
001510 6B00               M          CLRF   BTN_X0_TIME_L+4,          BANKED
                          M          IF 0
                          M           CLRF  BTN_X0_FLAGS+4,          BANKED
                          M           CLRF  BTN_X0_LOCKTMR+4,          BANKED
                          M           CLRF  BTN_X0_DEB_TMR+4,          BANKED
                          M          ELSE
001512 9100               M           BCF   BTN_X0_FLAGS+4,          BTN_FLG_PRESSED, BANKED
                          M          ENDIF
  00000005                M CB_IDX   ++
001514 6B00               M          CLRF   BTN_X0_TIME_T+5,          BANKED
001516 6B00               M          CLRF   BTN_X0_TIME_U+5,          BANKED
001518 6B00               M          CLRF   BTN_X0_TIME_H+5,          BANKED
00151A 6B00               M          CLRF   BTN_X0_TIME_L+5,          BANKED
                          M          IF 0
                          M           CLRF  BTN_X0_FLAGS+5,          BANKED
                          M           CLRF  BTN_X0_LOCKTMR+5,          BANKED
                          M           CLRF  BTN_X0_DEB_TMR+5,          BANKED
                          M          ELSE
00151C 9100               M           BCF   BTN_X0_FLAGS+5,          BTN_FLG_PRESSED, BANKED
                          M          ENDIF
  00000006                M CB_IDX   ++
00151E 6B00               M          CLRF   BTN_X0_TIME_T+6,          BANKED
001520 6B00               M          CLRF   BTN_X0_TIME_U+6,          BANKED
001522 6B00               M          CLRF   BTN_X0_TIME_H+6,          BANKED
001524 6B00               M          CLRF   BTN_X0_TIME_L+6,          BANKED
                          M          IF 0
                          M           CLRF  BTN_X0_FLAGS+6,          BANKED
                          M           CLRF  BTN_X0_LOCKTMR+6,          BANKED
                          M           CLRF  BTN_X0_DEB_TMR+6,          BANKED
                          M          ELSE
001526 9100               M           BCF   BTN_X0_FLAGS+6,          BTN_FLG_PRESSED, BANKED
                          M          ENDIF
  00000007                M CB_IDX   ++
001528 6B00               M          CLRF   BTN_X0_TIME_T+7,          BANKED
00152A 6B00               M          CLRF   BTN_X0_TIME_U+7,          BANKED
00152C 6B00               M          CLRF   BTN_X0_TIME_H+7,          BANKED
00152E 6B00               M          CLRF   BTN_X0_TIME_L+7,          BANKED
                          M          IF 0
                          M           CLRF  BTN_X0_FLAGS+7,          BANKED
                          M           CLRF  BTN_X0_LOCKTMR+7,          BANKED
                          M           CLRF  BTN_X0_DEB_TMR+7,          BANKED
                          M          ELSE
001530 9100               M           BCF   BTN_X0_FLAGS+7,          BTN_FLG_PRESSED, BANKED
                          M          ENDIF
  00000008                M CB_IDX   ++
001532 6B00               M          CLRF   BTN_X0_TIME_T+8,          BANKED
001534 6B00               M          CLRF   BTN_X0_TIME_U+8,          BANKED
001536 6B00               M          CLRF   BTN_X0_TIME_H+8,          BANKED
001538 6B00               M          CLRF   BTN_X0_TIME_L+8,          BANKED
                          M          IF 0
                          M           CLRF  BTN_X0_FLAGS+8,          BANKED
                          M           CLRF  BTN_X0_LOCKTMR+8,          BANKED
                          M           CLRF  BTN_X0_DEB_TMR+8,          BANKED
MPASM 5.66              ../QUIZSHOW_MAIN.ASM   3-1-2017  12:21:15         PAGE 83


LOC  OBJECT CODE     LINE SOURCE TEXT
  VALUE

                          M          ELSE
00153A 9100               M           BCF   BTN_X0_FLAGS+8,          BTN_FLG_PRESSED, BANKED
                          M          ENDIF
  00000009                M CB_IDX   ++
00153C 6B00               M          CLRF   BTN_X0_TIME_T+9,          BANKED
00153E 6B00               M          CLRF   BTN_X0_TIME_U+9,          BANKED
001540 6B00               M          CLRF   BTN_X0_TIME_H+9,          BANKED
001542 6B00               M          CLRF   BTN_X0_TIME_L+9,          BANKED
                          M          IF 0
                          M           CLRF  BTN_X0_FLAGS+9,          BANKED
                          M           CLRF  BTN_X0_LOCKTMR+9,          BANKED
                          M           CLRF  BTN_X0_DEB_TMR+9,          BANKED
                          M          ELSE
001544 9100               M           BCF   BTN_X0_FLAGS+9,          BTN_FLG_PRESSED, BANKED
                          M          ENDIF
  0000000A                M CB_IDX   ++
                          M         ENDW
001546 8000           01048         BSF     QUIZSHOW_FLAGS, QS_FLAG_SCANNING, ACCESS
                      01049         ; start timer
001548 6ACF           01050         CLRF    TMR1H, ACCESS
00154A 6ACE           01051         CLRF    TMR1L, ACCESS
00154C 6A00           01052         CLRF    QS_BTN_TMR_T, ACCESS
00154E 6A00           01053         CLRF    QS_BTN_TMR_U, ACCESS
001550 909E           01054         BCF     PIR1, TMR1IF, ACCESS
001552 809F           01055         BSF     IPR1, TMR1IP, ACCESS
001554 809D           01056         BSF     PIE1, TMR1IE, ACCESS
001556 80CD           01057         BSF     T1CON, TMR1ON, ACCESS
                      01058         ; light up non-masked buttons
001558 D???           01059         RCALL   SET_ALL_BUTTON_LIGHTS
00155A 0012           01060         RETURN
                      01061 
00155C                01062 SET_ALL_BUTTON_LIGHTS:
00155C 0004           01063         CLRWDT
00155E 010C           01064         BANKSEL QUIZSHOW_DATA
                      01065         IF LUMOS_CHIP_TYPE == LUMOS_CHIP_QSCC
                      01066          LOCAL_LIGHT_INDICATOR BTN_IDX_X0, CHAN_X0R, 3, CHAN_X0R
                      01067          LOCAL_LIGHT_INDICATOR BTN_IDX_L0, CHAN_L0R, 2, CHAN_L0R
                      01068          LOCAL_LIGHT_INDICATOR BTN_IDX_A0, CHAN_A0L, 1, CHAN_A0L
                      01069          LOCAL_LIGHT_INDICATOR BTN_IDX_B0, CHAN_B0L, 1, CHAN_B0L
                      01070          LOCAL_LIGHT_INDICATOR BTN_IDX_C0, CHAN_C0L, 1, CHAN_C0L
                      01071          LOCAL_LIGHT_INDICATOR BTN_IDX_D0, CHAN_D0L, 1, CHAN_D0L
                      01072         ELSE
                      01073          IF LUMOS_CHIP_TYPE == LUMOS_CHIP_QSRC
                      01074           LOCAL_LIGHT_INDICATOR BTN_IDX_X0, CHAN_X0R, 3, CHAN_X0R
001560 010C               M         BANKSEL QUIZSHOW_DATA
001562 A500               M         BTFSS   BTN_X0_FLAGS+0,           BTN_FLG_LOCKED, BANKED
001564 D???               M         BRA     LLIM_NOT_LOCKED_30
001566 B900               M         BTFSC   BTN_X0_FLAGS+0,           BTN_FLG_LCK_ACK, BANKED
001568 D???               M         BRA     LLIM_NOT_LOCKED_30
                          M         ;
                          M         ; light up for locked mode for the first time
                          M         ;
00156A 8900               M         BSF     BTN_X0_FLAGS+0,           BTN_FLG_LCK_ACK, BANKED       ; don't do it again
  00000003                M LLIM_LTN SET    3
                          M         WHILE LLIM_LTN > 0
  00000002                M LLIM_LTN --
                          M          SET_SSR_OFF 2
                          M          SET_SSR_VALUE 2,   0
00156C 0104               M         BANKSEL SSR_DATA_BANK
00156E 0E00               M          MOVLW  0
001570 6F00               M          MOVWF  SSR_00_VALUE+2,   BANKED
001572 6B00               M          CLRF   SSR_00_STEP+2,   BANKED
001574 6B00               M          CLRF   SSR_00_SPEED+2,   BANKED
001576 6B00               M          CLRF   SSR_00_COUNTER+2,   BANKED
001578 6B00               M          CLRF   SSR_00_FLAGS+2,   BANKED
  00000001                M LLIM_LTN --
                          M          SET_SSR_OFF 1
                          M          SET_SSR_VALUE 1,   0
00157A 0104               M         BANKSEL SSR_DATA_BANK
00157C 0E00               M          MOVLW  0
00157E 6F00               M          MOVWF  SSR_00_VALUE+1,   BANKED
001580 6B00               M          CLRF   SSR_00_STEP+1,   BANKED
001582 6B00               M          CLRF   SSR_00_SPEED+1,   BANKED
001584 6B00               M          CLRF   SSR_00_COUNTER+1,   BANKED
001586 6B00               M          CLRF   SSR_00_FLAGS+1,   BANKED
  00000000                M LLIM_LTN --
                          M          SET_SSR_OFF 0
                          M          SET_SSR_VALUE 0,   0
001588 0104               M         BANKSEL SSR_DATA_BANK
00158A 0E00               M          MOVLW  0
MPASM 5.66              ../QUIZSHOW_MAIN.ASM   3-1-2017  12:21:15         PAGE 84


LOC  OBJECT CODE     LINE SOURCE TEXT
  VALUE

00158C 6F00               M          MOVWF  SSR_00_VALUE+0,   BANKED
00158E 6B00               M          CLRF   SSR_00_STEP+0,   BANKED
001590 6B00               M          CLRF   SSR_00_SPEED+0,   BANKED
001592 6B00               M          CLRF   SSR_00_COUNTER+0,   BANKED
001594 6B00               M          CLRF   SSR_00_FLAGS+0,   BANKED
                          M         ENDW
                          M         SET_SSR_RAPID_FADE CHAN_X0R
                          M          SET_SSR_PATTERN CHAN_X0R, 0, 4, 1, BIT_FADE_UP|BIT_FADE_CYCLE
001596 0104               M         BANKSEL SSR_DATA_BANK
001598 0E00               M          MOVLW  0
00159A 6F00               M          MOVWF  SSR_00_VALUE+CHAN_X0R, BANKED
00159C 0E04               M          MOVLW  4
00159E 6F00               M          MOVWF  SSR_00_STEP+CHAN_X0R, BANKED
0015A0 0E01               M          MOVLW  1
0015A2 6F00               M          MOVWF  SSR_00_SPEED+CHAN_X0R, BANKED
0015A4 6F00               M          MOVWF  SSR_00_COUNTER+CHAN_X0R, BANKED
0015A6 0EA0               M          MOVLW  BIT_FADE_UP|BIT_FADE_CYCLE
0015A8 6F00               M          MOVWF  SSR_00_FLAGS+CHAN_X0R, BANKED
0015AA D???               M         BRA     LLIM_END_30
                          M 
0015AC                    M LLIM_NOT_LOCKED_30:
0015AC 010C               M         BANKSEL QUIZSHOW_DATA
0015AE B300               M         BTFSC   BTN_X0_FLAGS+0,           BTN_FLG_MASKED, BANKED
0015B0 D???               M         BRA     LLIM_OFF_30
0015B2 B100               M         BTFSC   BTN_X0_FLAGS+0,           BTN_FLG_PRESSED, BANKED
0015B4 D???               M         BRA     LLIM_OFF_30
0015B6 A000               M         BTFSS   QUIZSHOW_FLAGS, QS_FLAG_SCANNING, ACCESS
0015B8 D???               M         BRA     LLIM_OFF_30
                          M         ;
                          M         ; scanning and not pressed or masked? light up fully
                          M         ;
  00000003                M LLIM_LTN SET    3
                          M         WHILE LLIM_LTN > 0
  00000002                M LLIM_LTN --
                          M          SET_SSR_STEADY 2
                          M          SET_SSR_VALUE 2,   255
0015BA 0104               M         BANKSEL SSR_DATA_BANK
0015BC 0EFF               M          MOVLW  255
0015BE 6F00               M          MOVWF  SSR_00_VALUE+2,   BANKED
0015C0 6B00               M          CLRF   SSR_00_STEP+2,   BANKED
0015C2 6B00               M          CLRF   SSR_00_SPEED+2,   BANKED
0015C4 6B00               M          CLRF   SSR_00_COUNTER+2,   BANKED
0015C6 6B00               M          CLRF   SSR_00_FLAGS+2,   BANKED
  00000001                M LLIM_LTN --
                          M          SET_SSR_STEADY 1
                          M          SET_SSR_VALUE 1,   255
0015C8 0104               M         BANKSEL SSR_DATA_BANK
0015CA 0EFF               M          MOVLW  255
0015CC 6F00               M          MOVWF  SSR_00_VALUE+1,   BANKED
0015CE 6B00               M          CLRF   SSR_00_STEP+1,   BANKED
0015D0 6B00               M          CLRF   SSR_00_SPEED+1,   BANKED
0015D2 6B00               M          CLRF   SSR_00_COUNTER+1,   BANKED
0015D4 6B00               M          CLRF   SSR_00_FLAGS+1,   BANKED
  00000000                M LLIM_LTN --
                          M          SET_SSR_STEADY 0
                          M          SET_SSR_VALUE 0,   255
0015D6 0104               M         BANKSEL SSR_DATA_BANK
0015D8 0EFF               M          MOVLW  255
0015DA 6F00               M          MOVWF  SSR_00_VALUE+0,   BANKED
0015DC 6B00               M          CLRF   SSR_00_STEP+0,   BANKED
0015DE 6B00               M          CLRF   SSR_00_SPEED+0,   BANKED
0015E0 6B00               M          CLRF   SSR_00_COUNTER+0,   BANKED
0015E2 6B00               M          CLRF   SSR_00_FLAGS+0,   BANKED
                          M         ENDW
0015E4 D???               M         BRA     LLIM_END_30
                          M         
0015E6                    M LLIM_OFF_30:
                          M         ;
                          M         ; button pressed or masked, or scan is off; 
                          M         ; turn off until the host computer
                          M         ; stops the scan and awards the winner
                          M         ;
  00000003                M LLIM_LTN SET    3
                          M         WHILE LLIM_LTN > 0
  00000002                M LLIM_LTN --
                          M          SET_SSR_OFF 2
                          M          SET_SSR_VALUE 2,   0
0015E6 0104               M         BANKSEL SSR_DATA_BANK
0015E8 0E00               M          MOVLW  0
0015EA 6F00               M          MOVWF  SSR_00_VALUE+2,   BANKED
MPASM 5.66              ../QUIZSHOW_MAIN.ASM   3-1-2017  12:21:15         PAGE 85


LOC  OBJECT CODE     LINE SOURCE TEXT
  VALUE

0015EC 6B00               M          CLRF   SSR_00_STEP+2,   BANKED
0015EE 6B00               M          CLRF   SSR_00_SPEED+2,   BANKED
0015F0 6B00               M          CLRF   SSR_00_COUNTER+2,   BANKED
0015F2 6B00               M          CLRF   SSR_00_FLAGS+2,   BANKED
  00000001                M LLIM_LTN --
                          M          SET_SSR_OFF 1
                          M          SET_SSR_VALUE 1,   0
0015F4 0104               M         BANKSEL SSR_DATA_BANK
0015F6 0E00               M          MOVLW  0
0015F8 6F00               M          MOVWF  SSR_00_VALUE+1,   BANKED
0015FA 6B00               M          CLRF   SSR_00_STEP+1,   BANKED
0015FC 6B00               M          CLRF   SSR_00_SPEED+1,   BANKED
0015FE 6B00               M          CLRF   SSR_00_COUNTER+1,   BANKED
001600 6B00               M          CLRF   SSR_00_FLAGS+1,   BANKED
  00000000                M LLIM_LTN --
                          M          SET_SSR_OFF 0
                          M          SET_SSR_VALUE 0,   0
001602 0104               M         BANKSEL SSR_DATA_BANK
001604 0E00               M          MOVLW  0
001606 6F00               M          MOVWF  SSR_00_VALUE+0,   BANKED
001608 6B00               M          CLRF   SSR_00_STEP+0,   BANKED
00160A 6B00               M          CLRF   SSR_00_SPEED+0,   BANKED
00160C 6B00               M          CLRF   SSR_00_COUNTER+0,   BANKED
00160E 6B00               M          CLRF   SSR_00_FLAGS+0,   BANKED
                          M         ENDW
                          M 
001610                    M LLIM_END_30:
001610 010C               M         BANKSEL QUIZSHOW_DATA
  0000001F                M LLIM_N  ++
                      01075           LOCAL_LIGHT_INDICATOR BTN_IDX_L0, CHAN_L0R, 1, CHAN_L0R
001612 010C               M         BANKSEL QUIZSHOW_DATA
001614 A500               M         BTFSS   BTN_X0_FLAGS+1,           BTN_FLG_LOCKED, BANKED
001616 D???               M         BRA     LLIM_NOT_LOCKED_31
001618 B900               M         BTFSC   BTN_X0_FLAGS+1,           BTN_FLG_LCK_ACK, BANKED
00161A D???               M         BRA     LLIM_NOT_LOCKED_31
                          M         ;
                          M         ; light up for locked mode for the first time
                          M         ;
00161C 8900               M         BSF     BTN_X0_FLAGS+1,           BTN_FLG_LCK_ACK, BANKED       ; don't do it again
  00000001                M LLIM_LTN SET    1
                          M         WHILE LLIM_LTN > 0
  00000000                M LLIM_LTN --
                          M          SET_SSR_OFF 3
                          M          SET_SSR_VALUE 3,   0
00161E 0104               M         BANKSEL SSR_DATA_BANK
001620 0E00               M          MOVLW  0
001622 6F00               M          MOVWF  SSR_00_VALUE+3,   BANKED
001624 6B00               M          CLRF   SSR_00_STEP+3,   BANKED
001626 6B00               M          CLRF   SSR_00_SPEED+3,   BANKED
001628 6B00               M          CLRF   SSR_00_COUNTER+3,   BANKED
00162A 6B00               M          CLRF   SSR_00_FLAGS+3,   BANKED
                          M         ENDW
                          M         SET_SSR_RAPID_FADE CHAN_L0R
                          M          SET_SSR_PATTERN CHAN_L0R, 0, 4, 1, BIT_FADE_UP|BIT_FADE_CYCLE
00162C 0104               M         BANKSEL SSR_DATA_BANK
00162E 0E00               M          MOVLW  0
001630 6F00               M          MOVWF  SSR_00_VALUE+CHAN_L0R, BANKED
001632 0E04               M          MOVLW  4
001634 6F00               M          MOVWF  SSR_00_STEP+CHAN_L0R, BANKED
001636 0E01               M          MOVLW  1
001638 6F00               M          MOVWF  SSR_00_SPEED+CHAN_L0R, BANKED
00163A 6F00               M          MOVWF  SSR_00_COUNTER+CHAN_L0R, BANKED
00163C 0EA0               M          MOVLW  BIT_FADE_UP|BIT_FADE_CYCLE
00163E 6F00               M          MOVWF  SSR_00_FLAGS+CHAN_L0R, BANKED
001640 D???               M         BRA     LLIM_END_31
                          M 
001642                    M LLIM_NOT_LOCKED_31:
001642 010C               M         BANKSEL QUIZSHOW_DATA
001644 B300               M         BTFSC   BTN_X0_FLAGS+1,           BTN_FLG_MASKED, BANKED
001646 D???               M         BRA     LLIM_OFF_31
001648 B100               M         BTFSC   BTN_X0_FLAGS+1,           BTN_FLG_PRESSED, BANKED
00164A D???               M         BRA     LLIM_OFF_31
00164C A000               M         BTFSS   QUIZSHOW_FLAGS, QS_FLAG_SCANNING, ACCESS
00164E D???               M         BRA     LLIM_OFF_31
                          M         ;
                          M         ; scanning and not pressed or masked? light up fully
                          M         ;
  00000001                M LLIM_LTN SET    1
                          M         WHILE LLIM_LTN > 0
  00000000                M LLIM_LTN --
MPASM 5.66              ../QUIZSHOW_MAIN.ASM   3-1-2017  12:21:15         PAGE 86


LOC  OBJECT CODE     LINE SOURCE TEXT
  VALUE

                          M          SET_SSR_STEADY 3
                          M          SET_SSR_VALUE 3,   255
001650 0104               M         BANKSEL SSR_DATA_BANK
001652 0EFF               M          MOVLW  255
001654 6F00               M          MOVWF  SSR_00_VALUE+3,   BANKED
001656 6B00               M          CLRF   SSR_00_STEP+3,   BANKED
001658 6B00               M          CLRF   SSR_00_SPEED+3,   BANKED
00165A 6B00               M          CLRF   SSR_00_COUNTER+3,   BANKED
00165C 6B00               M          CLRF   SSR_00_FLAGS+3,   BANKED
                          M         ENDW
00165E D???               M         BRA     LLIM_END_31
                          M         
001660                    M LLIM_OFF_31:
                          M         ;
                          M         ; button pressed or masked, or scan is off; 
                          M         ; turn off until the host computer
                          M         ; stops the scan and awards the winner
                          M         ;
  00000001                M LLIM_LTN SET    1
                          M         WHILE LLIM_LTN > 0
  00000000                M LLIM_LTN --
                          M          SET_SSR_OFF 3
                          M          SET_SSR_VALUE 3,   0
001660 0104               M         BANKSEL SSR_DATA_BANK
001662 0E00               M          MOVLW  0
001664 6F00               M          MOVWF  SSR_00_VALUE+3,   BANKED
001666 6B00               M          CLRF   SSR_00_STEP+3,   BANKED
001668 6B00               M          CLRF   SSR_00_SPEED+3,   BANKED
00166A 6B00               M          CLRF   SSR_00_COUNTER+3,   BANKED
00166C 6B00               M          CLRF   SSR_00_FLAGS+3,   BANKED
                          M         ENDW
                          M 
00166E                    M LLIM_END_31:
00166E 010C               M         BANKSEL QUIZSHOW_DATA
  00000020                M LLIM_N  ++
                      01076           LOCAL_LIGHT_INDICATOR BTN_IDX_X1, CHAN_X1R, 3, CHAN_X1R
001670 010C               M         BANKSEL QUIZSHOW_DATA
001672 A500               M         BTFSS   BTN_X0_FLAGS+2,           BTN_FLG_LOCKED, BANKED
001674 D???               M         BRA     LLIM_NOT_LOCKED_32
001676 B900               M         BTFSC   BTN_X0_FLAGS+2,           BTN_FLG_LCK_ACK, BANKED
001678 D???               M         BRA     LLIM_NOT_LOCKED_32
                          M         ;
                          M         ; light up for locked mode for the first time
                          M         ;
00167A 8900               M         BSF     BTN_X0_FLAGS+2,           BTN_FLG_LCK_ACK, BANKED       ; don't do it again
  00000003                M LLIM_LTN SET    3
                          M         WHILE LLIM_LTN > 0
  00000002                M LLIM_LTN --
                          M          SET_SSR_OFF 6
                          M          SET_SSR_VALUE 6,   0
00167C 0104               M         BANKSEL SSR_DATA_BANK
00167E 0E00               M          MOVLW  0
001680 6F00               M          MOVWF  SSR_00_VALUE+6,   BANKED
001682 6B00               M          CLRF   SSR_00_STEP+6,   BANKED
001684 6B00               M          CLRF   SSR_00_SPEED+6,   BANKED
001686 6B00               M          CLRF   SSR_00_COUNTER+6,   BANKED
001688 6B00               M          CLRF   SSR_00_FLAGS+6,   BANKED
  00000001                M LLIM_LTN --
                          M          SET_SSR_OFF 5
                          M          SET_SSR_VALUE 5,   0
00168A 0104               M         BANKSEL SSR_DATA_BANK
00168C 0E00               M          MOVLW  0
00168E 6F00               M          MOVWF  SSR_00_VALUE+5,   BANKED
001690 6B00               M          CLRF   SSR_00_STEP+5,   BANKED
001692 6B00               M          CLRF   SSR_00_SPEED+5,   BANKED
001694 6B00               M          CLRF   SSR_00_COUNTER+5,   BANKED
001696 6B00               M          CLRF   SSR_00_FLAGS+5,   BANKED
  00000000                M LLIM_LTN --
                          M          SET_SSR_OFF 4
                          M          SET_SSR_VALUE 4,   0
001698 0104               M         BANKSEL SSR_DATA_BANK
00169A 0E00               M          MOVLW  0
00169C 6F00               M          MOVWF  SSR_00_VALUE+4,   BANKED
00169E 6B00               M          CLRF   SSR_00_STEP+4,   BANKED
0016A0 6B00               M          CLRF   SSR_00_SPEED+4,   BANKED
0016A2 6B00               M          CLRF   SSR_00_COUNTER+4,   BANKED
0016A4 6B00               M          CLRF   SSR_00_FLAGS+4,   BANKED
                          M         ENDW
                          M         SET_SSR_RAPID_FADE CHAN_X1R
                          M          SET_SSR_PATTERN CHAN_X1R, 0, 4, 1, BIT_FADE_UP|BIT_FADE_CYCLE
MPASM 5.66              ../QUIZSHOW_MAIN.ASM   3-1-2017  12:21:15         PAGE 87


LOC  OBJECT CODE     LINE SOURCE TEXT
  VALUE

0016A6 0104               M         BANKSEL SSR_DATA_BANK
0016A8 0E00               M          MOVLW  0
0016AA 6F00               M          MOVWF  SSR_00_VALUE+CHAN_X1R, BANKED
0016AC 0E04               M          MOVLW  4
0016AE 6F00               M          MOVWF  SSR_00_STEP+CHAN_X1R, BANKED
0016B0 0E01               M          MOVLW  1
0016B2 6F00               M          MOVWF  SSR_00_SPEED+CHAN_X1R, BANKED
0016B4 6F00               M          MOVWF  SSR_00_COUNTER+CHAN_X1R, BANKED
0016B6 0EA0               M          MOVLW  BIT_FADE_UP|BIT_FADE_CYCLE
0016B8 6F00               M          MOVWF  SSR_00_FLAGS+CHAN_X1R, BANKED
0016BA D???               M         BRA     LLIM_END_32
                          M 
0016BC                    M LLIM_NOT_LOCKED_32:
0016BC 010C               M         BANKSEL QUIZSHOW_DATA
0016BE B300               M         BTFSC   BTN_X0_FLAGS+2,           BTN_FLG_MASKED, BANKED
0016C0 D???               M         BRA     LLIM_OFF_32
0016C2 B100               M         BTFSC   BTN_X0_FLAGS+2,           BTN_FLG_PRESSED, BANKED
0016C4 D???               M         BRA     LLIM_OFF_32
0016C6 A000               M         BTFSS   QUIZSHOW_FLAGS, QS_FLAG_SCANNING, ACCESS
0016C8 D???               M         BRA     LLIM_OFF_32
                          M         ;
                          M         ; scanning and not pressed or masked? light up fully
                          M         ;
  00000003                M LLIM_LTN SET    3
                          M         WHILE LLIM_LTN > 0
  00000002                M LLIM_LTN --
                          M          SET_SSR_STEADY 6
                          M          SET_SSR_VALUE 6,   255
0016CA 0104               M         BANKSEL SSR_DATA_BANK
0016CC 0EFF               M          MOVLW  255
0016CE 6F00               M          MOVWF  SSR_00_VALUE+6,   BANKED
0016D0 6B00               M          CLRF   SSR_00_STEP+6,   BANKED
0016D2 6B00               M          CLRF   SSR_00_SPEED+6,   BANKED
0016D4 6B00               M          CLRF   SSR_00_COUNTER+6,   BANKED
0016D6 6B00               M          CLRF   SSR_00_FLAGS+6,   BANKED
  00000001                M LLIM_LTN --
                          M          SET_SSR_STEADY 5
                          M          SET_SSR_VALUE 5,   255
0016D8 0104               M         BANKSEL SSR_DATA_BANK
0016DA 0EFF               M          MOVLW  255
0016DC 6F00               M          MOVWF  SSR_00_VALUE+5,   BANKED
0016DE 6B00               M          CLRF   SSR_00_STEP+5,   BANKED
0016E0 6B00               M          CLRF   SSR_00_SPEED+5,   BANKED
0016E2 6B00               M          CLRF   SSR_00_COUNTER+5,   BANKED
0016E4 6B00               M          CLRF   SSR_00_FLAGS+5,   BANKED
  00000000                M LLIM_LTN --
                          M          SET_SSR_STEADY 4
                          M          SET_SSR_VALUE 4,   255
0016E6 0104               M         BANKSEL SSR_DATA_BANK
0016E8 0EFF               M          MOVLW  255
0016EA 6F00               M          MOVWF  SSR_00_VALUE+4,   BANKED
0016EC 6B00               M          CLRF   SSR_00_STEP+4,   BANKED
0016EE 6B00               M          CLRF   SSR_00_SPEED+4,   BANKED
0016F0 6B00               M          CLRF   SSR_00_COUNTER+4,   BANKED
0016F2 6B00               M          CLRF   SSR_00_FLAGS+4,   BANKED
                          M         ENDW
0016F4 D???               M         BRA     LLIM_END_32
                          M         
0016F6                    M LLIM_OFF_32:
                          M         ;
                          M         ; button pressed or masked, or scan is off; 
                          M         ; turn off until the host computer
                          M         ; stops the scan and awards the winner
                          M         ;
  00000003                M LLIM_LTN SET    3
                          M         WHILE LLIM_LTN > 0
  00000002                M LLIM_LTN --
                          M          SET_SSR_OFF 6
                          M          SET_SSR_VALUE 6,   0
0016F6 0104               M         BANKSEL SSR_DATA_BANK
0016F8 0E00               M          MOVLW  0
0016FA 6F00               M          MOVWF  SSR_00_VALUE+6,   BANKED
0016FC 6B00               M          CLRF   SSR_00_STEP+6,   BANKED
0016FE 6B00               M          CLRF   SSR_00_SPEED+6,   BANKED
001700 6B00               M          CLRF   SSR_00_COUNTER+6,   BANKED
001702 6B00               M          CLRF   SSR_00_FLAGS+6,   BANKED
  00000001                M LLIM_LTN --
                          M          SET_SSR_OFF 5
                          M          SET_SSR_VALUE 5,   0
001704 0104               M         BANKSEL SSR_DATA_BANK
MPASM 5.66              ../QUIZSHOW_MAIN.ASM   3-1-2017  12:21:15         PAGE 88


LOC  OBJECT CODE     LINE SOURCE TEXT
  VALUE

001706 0E00               M          MOVLW  0
001708 6F00               M          MOVWF  SSR_00_VALUE+5,   BANKED
00170A 6B00               M          CLRF   SSR_00_STEP+5,   BANKED
00170C 6B00               M          CLRF   SSR_00_SPEED+5,   BANKED
00170E 6B00               M          CLRF   SSR_00_COUNTER+5,   BANKED
001710 6B00               M          CLRF   SSR_00_FLAGS+5,   BANKED
  00000000                M LLIM_LTN --
                          M          SET_SSR_OFF 4
                          M          SET_SSR_VALUE 4,   0
001712 0104               M         BANKSEL SSR_DATA_BANK
001714 0E00               M          MOVLW  0
001716 6F00               M          MOVWF  SSR_00_VALUE+4,   BANKED
001718 6B00               M          CLRF   SSR_00_STEP+4,   BANKED
00171A 6B00               M          CLRF   SSR_00_SPEED+4,   BANKED
00171C 6B00               M          CLRF   SSR_00_COUNTER+4,   BANKED
00171E 6B00               M          CLRF   SSR_00_FLAGS+4,   BANKED
                          M         ENDW
                          M 
001720                    M LLIM_END_32:
001720 010C               M         BANKSEL QUIZSHOW_DATA
  00000021                M LLIM_N  ++
                      01077           LOCAL_LIGHT_INDICATOR BTN_IDX_L1, CHAN_L1R, 1, CHAN_L1R
001722 010C               M         BANKSEL QUIZSHOW_DATA
001724 A500               M         BTFSS   BTN_X0_FLAGS+3,           BTN_FLG_LOCKED, BANKED
001726 D???               M         BRA     LLIM_NOT_LOCKED_33
001728 B900               M         BTFSC   BTN_X0_FLAGS+3,           BTN_FLG_LCK_ACK, BANKED
00172A D???               M         BRA     LLIM_NOT_LOCKED_33
                          M         ;
                          M         ; light up for locked mode for the first time
                          M         ;
00172C 8900               M         BSF     BTN_X0_FLAGS+3,           BTN_FLG_LCK_ACK, BANKED       ; don't do it again
  00000001                M LLIM_LTN SET    1
                          M         WHILE LLIM_LTN > 0
  00000000                M LLIM_LTN --
                          M          SET_SSR_OFF 7
                          M          SET_SSR_VALUE 7,   0
00172E 0104               M         BANKSEL SSR_DATA_BANK
001730 0E00               M          MOVLW  0
001732 6F00               M          MOVWF  SSR_00_VALUE+7,   BANKED
001734 6B00               M          CLRF   SSR_00_STEP+7,   BANKED
001736 6B00               M          CLRF   SSR_00_SPEED+7,   BANKED
001738 6B00               M          CLRF   SSR_00_COUNTER+7,   BANKED
00173A 6B00               M          CLRF   SSR_00_FLAGS+7,   BANKED
                          M         ENDW
                          M         SET_SSR_RAPID_FADE CHAN_L1R
                          M          SET_SSR_PATTERN CHAN_L1R, 0, 4, 1, BIT_FADE_UP|BIT_FADE_CYCLE
00173C 0104               M         BANKSEL SSR_DATA_BANK
00173E 0E00               M          MOVLW  0
001740 6F00               M          MOVWF  SSR_00_VALUE+CHAN_L1R, BANKED
001742 0E04               M          MOVLW  4
001744 6F00               M          MOVWF  SSR_00_STEP+CHAN_L1R, BANKED
001746 0E01               M          MOVLW  1
001748 6F00               M          MOVWF  SSR_00_SPEED+CHAN_L1R, BANKED
00174A 6F00               M          MOVWF  SSR_00_COUNTER+CHAN_L1R, BANKED
00174C 0EA0               M          MOVLW  BIT_FADE_UP|BIT_FADE_CYCLE
00174E 6F00               M          MOVWF  SSR_00_FLAGS+CHAN_L1R, BANKED
001750 D???               M         BRA     LLIM_END_33
                          M 
001752                    M LLIM_NOT_LOCKED_33:
001752 010C               M         BANKSEL QUIZSHOW_DATA
001754 B300               M         BTFSC   BTN_X0_FLAGS+3,           BTN_FLG_MASKED, BANKED
001756 D???               M         BRA     LLIM_OFF_33
001758 B100               M         BTFSC   BTN_X0_FLAGS+3,           BTN_FLG_PRESSED, BANKED
00175A D???               M         BRA     LLIM_OFF_33
00175C A000               M         BTFSS   QUIZSHOW_FLAGS, QS_FLAG_SCANNING, ACCESS
00175E D???               M         BRA     LLIM_OFF_33
                          M         ;
                          M         ; scanning and not pressed or masked? light up fully
                          M         ;
  00000001                M LLIM_LTN SET    1
                          M         WHILE LLIM_LTN > 0
  00000000                M LLIM_LTN --
                          M          SET_SSR_STEADY 7
                          M          SET_SSR_VALUE 7,   255
001760 0104               M         BANKSEL SSR_DATA_BANK
001762 0EFF               M          MOVLW  255
001764 6F00               M          MOVWF  SSR_00_VALUE+7,   BANKED
001766 6B00               M          CLRF   SSR_00_STEP+7,   BANKED
001768 6B00               M          CLRF   SSR_00_SPEED+7,   BANKED
00176A 6B00               M          CLRF   SSR_00_COUNTER+7,   BANKED
MPASM 5.66              ../QUIZSHOW_MAIN.ASM   3-1-2017  12:21:15         PAGE 89


LOC  OBJECT CODE     LINE SOURCE TEXT
  VALUE

00176C 6B00               M          CLRF   SSR_00_FLAGS+7,   BANKED
                          M         ENDW
00176E D???               M         BRA     LLIM_END_33
                          M         
001770                    M LLIM_OFF_33:
                          M         ;
                          M         ; button pressed or masked, or scan is off; 
                          M         ; turn off until the host computer
                          M         ; stops the scan and awards the winner
                          M         ;
  00000001                M LLIM_LTN SET    1
                          M         WHILE LLIM_LTN > 0
  00000000                M LLIM_LTN --
                          M          SET_SSR_OFF 7
                          M          SET_SSR_VALUE 7,   0
001770 0104               M         BANKSEL SSR_DATA_BANK
001772 0E00               M          MOVLW  0
001774 6F00               M          MOVWF  SSR_00_VALUE+7,   BANKED
001776 6B00               M          CLRF   SSR_00_STEP+7,   BANKED
001778 6B00               M          CLRF   SSR_00_SPEED+7,   BANKED
00177A 6B00               M          CLRF   SSR_00_COUNTER+7,   BANKED
00177C 6B00               M          CLRF   SSR_00_FLAGS+7,   BANKED
                          M         ENDW
                          M 
00177E                    M LLIM_END_33:
00177E 010C               M         BANKSEL QUIZSHOW_DATA
  00000022                M LLIM_N  ++
                      01078           LOCAL_LIGHT_INDICATOR BTN_IDX_X2, CHAN_X2R, 3, CHAN_X2R
001780 010C               M         BANKSEL QUIZSHOW_DATA
001782 A500               M         BTFSS   BTN_X0_FLAGS+4,           BTN_FLG_LOCKED, BANKED
001784 D???               M         BRA     LLIM_NOT_LOCKED_34
001786 B900               M         BTFSC   BTN_X0_FLAGS+4,           BTN_FLG_LCK_ACK, BANKED
001788 D???               M         BRA     LLIM_NOT_LOCKED_34
                          M         ;
                          M         ; light up for locked mode for the first time
                          M         ;
00178A 8900               M         BSF     BTN_X0_FLAGS+4,           BTN_FLG_LCK_ACK, BANKED       ; don't do it again
  00000003                M LLIM_LTN SET    3
                          M         WHILE LLIM_LTN > 0
  00000002                M LLIM_LTN --
                          M          SET_SSR_OFF 10
                          M          SET_SSR_VALUE 10,  0
00178C 0104               M         BANKSEL SSR_DATA_BANK
00178E 0E00               M          MOVLW  0
001790 6F00               M          MOVWF  SSR_00_VALUE+10,  BANKED
001792 6B00               M          CLRF   SSR_00_STEP+10,  BANKED
001794 6B00               M          CLRF   SSR_00_SPEED+10,  BANKED
001796 6B00               M          CLRF   SSR_00_COUNTER+10,  BANKED
001798 6B00               M          CLRF   SSR_00_FLAGS+10,  BANKED
  00000001                M LLIM_LTN --
                          M          SET_SSR_OFF 9
                          M          SET_SSR_VALUE 9,   0
00179A 0104               M         BANKSEL SSR_DATA_BANK
00179C 0E00               M          MOVLW  0
00179E 6F00               M          MOVWF  SSR_00_VALUE+9,   BANKED
0017A0 6B00               M          CLRF   SSR_00_STEP+9,   BANKED
0017A2 6B00               M          CLRF   SSR_00_SPEED+9,   BANKED
0017A4 6B00               M          CLRF   SSR_00_COUNTER+9,   BANKED
0017A6 6B00               M          CLRF   SSR_00_FLAGS+9,   BANKED
  00000000                M LLIM_LTN --
                          M          SET_SSR_OFF 8
                          M          SET_SSR_VALUE 8,   0
0017A8 0104               M         BANKSEL SSR_DATA_BANK
0017AA 0E00               M          MOVLW  0
0017AC 6F00               M          MOVWF  SSR_00_VALUE+8,   BANKED
0017AE 6B00               M          CLRF   SSR_00_STEP+8,   BANKED
0017B0 6B00               M          CLRF   SSR_00_SPEED+8,   BANKED
0017B2 6B00               M          CLRF   SSR_00_COUNTER+8,   BANKED
0017B4 6B00               M          CLRF   SSR_00_FLAGS+8,   BANKED
                          M         ENDW
                          M         SET_SSR_RAPID_FADE CHAN_X2R
                          M          SET_SSR_PATTERN CHAN_X2R, 0, 4, 1, BIT_FADE_UP|BIT_FADE_CYCLE
0017B6 0104               M         BANKSEL SSR_DATA_BANK
0017B8 0E00               M          MOVLW  0
0017BA 6F00               M          MOVWF  SSR_00_VALUE+CHAN_X2R, BANKED
0017BC 0E04               M          MOVLW  4
0017BE 6F00               M          MOVWF  SSR_00_STEP+CHAN_X2R, BANKED
0017C0 0E01               M          MOVLW  1
0017C2 6F00               M          MOVWF  SSR_00_SPEED+CHAN_X2R, BANKED
0017C4 6F00               M          MOVWF  SSR_00_COUNTER+CHAN_X2R, BANKED
MPASM 5.66              ../QUIZSHOW_MAIN.ASM   3-1-2017  12:21:15         PAGE 90


LOC  OBJECT CODE     LINE SOURCE TEXT
  VALUE

0017C6 0EA0               M          MOVLW  BIT_FADE_UP|BIT_FADE_CYCLE
0017C8 6F00               M          MOVWF  SSR_00_FLAGS+CHAN_X2R, BANKED
0017CA D???               M         BRA     LLIM_END_34
                          M 
0017CC                    M LLIM_NOT_LOCKED_34:
0017CC 010C               M         BANKSEL QUIZSHOW_DATA
0017CE B300               M         BTFSC   BTN_X0_FLAGS+4,           BTN_FLG_MASKED, BANKED
0017D0 D???               M         BRA     LLIM_OFF_34
0017D2 B100               M         BTFSC   BTN_X0_FLAGS+4,           BTN_FLG_PRESSED, BANKED
0017D4 D???               M         BRA     LLIM_OFF_34
0017D6 A000               M         BTFSS   QUIZSHOW_FLAGS, QS_FLAG_SCANNING, ACCESS
0017D8 D???               M         BRA     LLIM_OFF_34
                          M         ;
                          M         ; scanning and not pressed or masked? light up fully
                          M         ;
  00000003                M LLIM_LTN SET    3
                          M         WHILE LLIM_LTN > 0
  00000002                M LLIM_LTN --
                          M          SET_SSR_STEADY 10
                          M          SET_SSR_VALUE 10,  255
0017DA 0104               M         BANKSEL SSR_DATA_BANK
0017DC 0EFF               M          MOVLW  255
0017DE 6F00               M          MOVWF  SSR_00_VALUE+10,  BANKED
0017E0 6B00               M          CLRF   SSR_00_STEP+10,  BANKED
0017E2 6B00               M          CLRF   SSR_00_SPEED+10,  BANKED
0017E4 6B00               M          CLRF   SSR_00_COUNTER+10,  BANKED
0017E6 6B00               M          CLRF   SSR_00_FLAGS+10,  BANKED
  00000001                M LLIM_LTN --
                          M          SET_SSR_STEADY 9
                          M          SET_SSR_VALUE 9,   255
0017E8 0104               M         BANKSEL SSR_DATA_BANK
0017EA 0EFF               M          MOVLW  255
0017EC 6F00               M          MOVWF  SSR_00_VALUE+9,   BANKED
0017EE 6B00               M          CLRF   SSR_00_STEP+9,   BANKED
0017F0 6B00               M          CLRF   SSR_00_SPEED+9,   BANKED
0017F2 6B00               M          CLRF   SSR_00_COUNTER+9,   BANKED
0017F4 6B00               M          CLRF   SSR_00_FLAGS+9,   BANKED
  00000000                M LLIM_LTN --
                          M          SET_SSR_STEADY 8
                          M          SET_SSR_VALUE 8,   255
0017F6 0104               M         BANKSEL SSR_DATA_BANK
0017F8 0EFF               M          MOVLW  255
0017FA 6F00               M          MOVWF  SSR_00_VALUE+8,   BANKED
0017FC 6B00               M          CLRF   SSR_00_STEP+8,   BANKED
0017FE 6B00               M          CLRF   SSR_00_SPEED+8,   BANKED
001800 6B00               M          CLRF   SSR_00_COUNTER+8,   BANKED
001802 6B00               M          CLRF   SSR_00_FLAGS+8,   BANKED
                          M         ENDW
001804 D???               M         BRA     LLIM_END_34
                          M         
001806                    M LLIM_OFF_34:
                          M         ;
                          M         ; button pressed or masked, or scan is off; 
                          M         ; turn off until the host computer
                          M         ; stops the scan and awards the winner
                          M         ;
  00000003                M LLIM_LTN SET    3
                          M         WHILE LLIM_LTN > 0
  00000002                M LLIM_LTN --
                          M          SET_SSR_OFF 10
                          M          SET_SSR_VALUE 10,  0
001806 0104               M         BANKSEL SSR_DATA_BANK
001808 0E00               M          MOVLW  0
00180A 6F00               M          MOVWF  SSR_00_VALUE+10,  BANKED
00180C 6B00               M          CLRF   SSR_00_STEP+10,  BANKED
00180E 6B00               M          CLRF   SSR_00_SPEED+10,  BANKED
001810 6B00               M          CLRF   SSR_00_COUNTER+10,  BANKED
001812 6B00               M          CLRF   SSR_00_FLAGS+10,  BANKED
  00000001                M LLIM_LTN --
                          M          SET_SSR_OFF 9
                          M          SET_SSR_VALUE 9,   0
001814 0104               M         BANKSEL SSR_DATA_BANK
001816 0E00               M          MOVLW  0
001818 6F00               M          MOVWF  SSR_00_VALUE+9,   BANKED
00181A 6B00               M          CLRF   SSR_00_STEP+9,   BANKED
00181C 6B00               M          CLRF   SSR_00_SPEED+9,   BANKED
00181E 6B00               M          CLRF   SSR_00_COUNTER+9,   BANKED
001820 6B00               M          CLRF   SSR_00_FLAGS+9,   BANKED
  00000000                M LLIM_LTN --
                          M          SET_SSR_OFF 8
MPASM 5.66              ../QUIZSHOW_MAIN.ASM   3-1-2017  12:21:15         PAGE 91


LOC  OBJECT CODE     LINE SOURCE TEXT
  VALUE

                          M          SET_SSR_VALUE 8,   0
001822 0104               M         BANKSEL SSR_DATA_BANK
001824 0E00               M          MOVLW  0
001826 6F00               M          MOVWF  SSR_00_VALUE+8,   BANKED
001828 6B00               M          CLRF   SSR_00_STEP+8,   BANKED
00182A 6B00               M          CLRF   SSR_00_SPEED+8,   BANKED
00182C 6B00               M          CLRF   SSR_00_COUNTER+8,   BANKED
00182E 6B00               M          CLRF   SSR_00_FLAGS+8,   BANKED
                          M         ENDW
                          M 
001830                    M LLIM_END_34:
001830 010C               M         BANKSEL QUIZSHOW_DATA
  00000023                M LLIM_N  ++
                      01079           LOCAL_LIGHT_INDICATOR BTN_IDX_L2, CHAN_L2R, 1, CHAN_L2R
001832 010C               M         BANKSEL QUIZSHOW_DATA
001834 A500               M         BTFSS   BTN_X0_FLAGS+5,           BTN_FLG_LOCKED, BANKED
001836 D???               M         BRA     LLIM_NOT_LOCKED_35
001838 B900               M         BTFSC   BTN_X0_FLAGS+5,           BTN_FLG_LCK_ACK, BANKED
00183A D???               M         BRA     LLIM_NOT_LOCKED_35
                          M         ;
                          M         ; light up for locked mode for the first time
                          M         ;
00183C 8900               M         BSF     BTN_X0_FLAGS+5,           BTN_FLG_LCK_ACK, BANKED       ; don't do it again
  00000001                M LLIM_LTN SET    1
                          M         WHILE LLIM_LTN > 0
  00000000                M LLIM_LTN --
                          M          SET_SSR_OFF 11
                          M          SET_SSR_VALUE 11,  0
00183E 0104               M         BANKSEL SSR_DATA_BANK
001840 0E00               M          MOVLW  0
001842 6F00               M          MOVWF  SSR_00_VALUE+11,  BANKED
001844 6B00               M          CLRF   SSR_00_STEP+11,  BANKED
001846 6B00               M          CLRF   SSR_00_SPEED+11,  BANKED
001848 6B00               M          CLRF   SSR_00_COUNTER+11,  BANKED
00184A 6B00               M          CLRF   SSR_00_FLAGS+11,  BANKED
                          M         ENDW
                          M         SET_SSR_RAPID_FADE CHAN_L2R
                          M          SET_SSR_PATTERN CHAN_L2R, 0, 4, 1, BIT_FADE_UP|BIT_FADE_CYCLE
00184C 0104               M         BANKSEL SSR_DATA_BANK
00184E 0E00               M          MOVLW  0
001850 6F00               M          MOVWF  SSR_00_VALUE+CHAN_L2R, BANKED
001852 0E04               M          MOVLW  4
001854 6F00               M          MOVWF  SSR_00_STEP+CHAN_L2R, BANKED
001856 0E01               M          MOVLW  1
001858 6F00               M          MOVWF  SSR_00_SPEED+CHAN_L2R, BANKED
00185A 6F00               M          MOVWF  SSR_00_COUNTER+CHAN_L2R, BANKED
00185C 0EA0               M          MOVLW  BIT_FADE_UP|BIT_FADE_CYCLE
00185E 6F00               M          MOVWF  SSR_00_FLAGS+CHAN_L2R, BANKED
001860 D???               M         BRA     LLIM_END_35
                          M 
001862                    M LLIM_NOT_LOCKED_35:
001862 010C               M         BANKSEL QUIZSHOW_DATA
001864 B300               M         BTFSC   BTN_X0_FLAGS+5,           BTN_FLG_MASKED, BANKED
001866 D???               M         BRA     LLIM_OFF_35
001868 B100               M         BTFSC   BTN_X0_FLAGS+5,           BTN_FLG_PRESSED, BANKED
00186A D???               M         BRA     LLIM_OFF_35
00186C A000               M         BTFSS   QUIZSHOW_FLAGS, QS_FLAG_SCANNING, ACCESS
00186E D???               M         BRA     LLIM_OFF_35
                          M         ;
                          M         ; scanning and not pressed or masked? light up fully
                          M         ;
  00000001                M LLIM_LTN SET    1
                          M         WHILE LLIM_LTN > 0
  00000000                M LLIM_LTN --
                          M          SET_SSR_STEADY 11
                          M          SET_SSR_VALUE 11,  255
001870 0104               M         BANKSEL SSR_DATA_BANK
001872 0EFF               M          MOVLW  255
001874 6F00               M          MOVWF  SSR_00_VALUE+11,  BANKED
001876 6B00               M          CLRF   SSR_00_STEP+11,  BANKED
001878 6B00               M          CLRF   SSR_00_SPEED+11,  BANKED
00187A 6B00               M          CLRF   SSR_00_COUNTER+11,  BANKED
00187C 6B00               M          CLRF   SSR_00_FLAGS+11,  BANKED
                          M         ENDW
00187E D???               M         BRA     LLIM_END_35
                          M         
001880                    M LLIM_OFF_35:
                          M         ;
                          M         ; button pressed or masked, or scan is off; 
                          M         ; turn off until the host computer
MPASM 5.66              ../QUIZSHOW_MAIN.ASM   3-1-2017  12:21:15         PAGE 92


LOC  OBJECT CODE     LINE SOURCE TEXT
  VALUE

                          M         ; stops the scan and awards the winner
                          M         ;
  00000001                M LLIM_LTN SET    1
                          M         WHILE LLIM_LTN > 0
  00000000                M LLIM_LTN --
                          M          SET_SSR_OFF 11
                          M          SET_SSR_VALUE 11,  0
001880 0104               M         BANKSEL SSR_DATA_BANK
001882 0E00               M          MOVLW  0
001884 6F00               M          MOVWF  SSR_00_VALUE+11,  BANKED
001886 6B00               M          CLRF   SSR_00_STEP+11,  BANKED
001888 6B00               M          CLRF   SSR_00_SPEED+11,  BANKED
00188A 6B00               M          CLRF   SSR_00_COUNTER+11,  BANKED
00188C 6B00               M          CLRF   SSR_00_FLAGS+11,  BANKED
                          M         ENDW
                          M 
00188E                    M LLIM_END_35:
00188E 010C               M         BANKSEL QUIZSHOW_DATA
  00000024                M LLIM_N  ++
                      01080           LOCAL_LIGHT_INDICATOR BTN_IDX_X3, CHAN_X3R, 3, CHAN_X3R
001890 010C               M         BANKSEL QUIZSHOW_DATA
001892 A500               M         BTFSS   BTN_X0_FLAGS+6,           BTN_FLG_LOCKED, BANKED
001894 D???               M         BRA     LLIM_NOT_LOCKED_36
001896 B900               M         BTFSC   BTN_X0_FLAGS+6,           BTN_FLG_LCK_ACK, BANKED
001898 D???               M         BRA     LLIM_NOT_LOCKED_36
                          M         ;
                          M         ; light up for locked mode for the first time
                          M         ;
00189A 8900               M         BSF     BTN_X0_FLAGS+6,           BTN_FLG_LCK_ACK, BANKED       ; don't do it again
  00000003                M LLIM_LTN SET    3
                          M         WHILE LLIM_LTN > 0
  00000002                M LLIM_LTN --
                          M          SET_SSR_OFF 14
                          M          SET_SSR_VALUE 14,  0
00189C 0104               M         BANKSEL SSR_DATA_BANK
00189E 0E00               M          MOVLW  0
0018A0 6F00               M          MOVWF  SSR_00_VALUE+14,  BANKED
0018A2 6B00               M          CLRF   SSR_00_STEP+14,  BANKED
0018A4 6B00               M          CLRF   SSR_00_SPEED+14,  BANKED
0018A6 6B00               M          CLRF   SSR_00_COUNTER+14,  BANKED
0018A8 6B00               M          CLRF   SSR_00_FLAGS+14,  BANKED
  00000001                M LLIM_LTN --
                          M          SET_SSR_OFF 13
                          M          SET_SSR_VALUE 13,  0
0018AA 0104               M         BANKSEL SSR_DATA_BANK
0018AC 0E00               M          MOVLW  0
0018AE 6F00               M          MOVWF  SSR_00_VALUE+13,  BANKED
0018B0 6B00               M          CLRF   SSR_00_STEP+13,  BANKED
0018B2 6B00               M          CLRF   SSR_00_SPEED+13,  BANKED
0018B4 6B00               M          CLRF   SSR_00_COUNTER+13,  BANKED
0018B6 6B00               M          CLRF   SSR_00_FLAGS+13,  BANKED
  00000000                M LLIM_LTN --
                          M          SET_SSR_OFF 12
                          M          SET_SSR_VALUE 12,  0
0018B8 0104               M         BANKSEL SSR_DATA_BANK
0018BA 0E00               M          MOVLW  0
0018BC 6F00               M          MOVWF  SSR_00_VALUE+12,  BANKED
0018BE 6B00               M          CLRF   SSR_00_STEP+12,  BANKED
0018C0 6B00               M          CLRF   SSR_00_SPEED+12,  BANKED
0018C2 6B00               M          CLRF   SSR_00_COUNTER+12,  BANKED
0018C4 6B00               M          CLRF   SSR_00_FLAGS+12,  BANKED
                          M         ENDW
                          M         SET_SSR_RAPID_FADE CHAN_X3R
                          M          SET_SSR_PATTERN CHAN_X3R, 0, 4, 1, BIT_FADE_UP|BIT_FADE_CYCLE
0018C6 0104               M         BANKSEL SSR_DATA_BANK
0018C8 0E00               M          MOVLW  0
0018CA 6F00               M          MOVWF  SSR_00_VALUE+CHAN_X3R, BANKED
0018CC 0E04               M          MOVLW  4
0018CE 6F00               M          MOVWF  SSR_00_STEP+CHAN_X3R, BANKED
0018D0 0E01               M          MOVLW  1
0018D2 6F00               M          MOVWF  SSR_00_SPEED+CHAN_X3R, BANKED
0018D4 6F00               M          MOVWF  SSR_00_COUNTER+CHAN_X3R, BANKED
0018D6 0EA0               M          MOVLW  BIT_FADE_UP|BIT_FADE_CYCLE
0018D8 6F00               M          MOVWF  SSR_00_FLAGS+CHAN_X3R, BANKED
0018DA D???               M         BRA     LLIM_END_36
                          M 
0018DC                    M LLIM_NOT_LOCKED_36:
0018DC 010C               M         BANKSEL QUIZSHOW_DATA
0018DE B300               M         BTFSC   BTN_X0_FLAGS+6,           BTN_FLG_MASKED, BANKED
0018E0 D???               M         BRA     LLIM_OFF_36
MPASM 5.66              ../QUIZSHOW_MAIN.ASM   3-1-2017  12:21:15         PAGE 93


LOC  OBJECT CODE     LINE SOURCE TEXT
  VALUE

0018E2 B100               M         BTFSC   BTN_X0_FLAGS+6,           BTN_FLG_PRESSED, BANKED
0018E4 D???               M         BRA     LLIM_OFF_36
0018E6 A000               M         BTFSS   QUIZSHOW_FLAGS, QS_FLAG_SCANNING, ACCESS
0018E8 D???               M         BRA     LLIM_OFF_36
                          M         ;
                          M         ; scanning and not pressed or masked? light up fully
                          M         ;
  00000003                M LLIM_LTN SET    3
                          M         WHILE LLIM_LTN > 0
  00000002                M LLIM_LTN --
                          M          SET_SSR_STEADY 14
                          M          SET_SSR_VALUE 14,  255
0018EA 0104               M         BANKSEL SSR_DATA_BANK
0018EC 0EFF               M          MOVLW  255
0018EE 6F00               M          MOVWF  SSR_00_VALUE+14,  BANKED
0018F0 6B00               M          CLRF   SSR_00_STEP+14,  BANKED
0018F2 6B00               M          CLRF   SSR_00_SPEED+14,  BANKED
0018F4 6B00               M          CLRF   SSR_00_COUNTER+14,  BANKED
0018F6 6B00               M          CLRF   SSR_00_FLAGS+14,  BANKED
  00000001                M LLIM_LTN --
                          M          SET_SSR_STEADY 13
                          M          SET_SSR_VALUE 13,  255
0018F8 0104               M         BANKSEL SSR_DATA_BANK
0018FA 0EFF               M          MOVLW  255
0018FC 6F00               M          MOVWF  SSR_00_VALUE+13,  BANKED
0018FE 6B00               M          CLRF   SSR_00_STEP+13,  BANKED
001900 6B00               M          CLRF   SSR_00_SPEED+13,  BANKED
001902 6B00               M          CLRF   SSR_00_COUNTER+13,  BANKED
001904 6B00               M          CLRF   SSR_00_FLAGS+13,  BANKED
  00000000                M LLIM_LTN --
                          M          SET_SSR_STEADY 12
                          M          SET_SSR_VALUE 12,  255
001906 0104               M         BANKSEL SSR_DATA_BANK
001908 0EFF               M          MOVLW  255
00190A 6F00               M          MOVWF  SSR_00_VALUE+12,  BANKED
00190C 6B00               M          CLRF   SSR_00_STEP+12,  BANKED
00190E 6B00               M          CLRF   SSR_00_SPEED+12,  BANKED
001910 6B00               M          CLRF   SSR_00_COUNTER+12,  BANKED
001912 6B00               M          CLRF   SSR_00_FLAGS+12,  BANKED
                          M         ENDW
001914 D???               M         BRA     LLIM_END_36
                          M         
001916                    M LLIM_OFF_36:
                          M         ;
                          M         ; button pressed or masked, or scan is off; 
                          M         ; turn off until the host computer
                          M         ; stops the scan and awards the winner
                          M         ;
  00000003                M LLIM_LTN SET    3
                          M         WHILE LLIM_LTN > 0
  00000002                M LLIM_LTN --
                          M          SET_SSR_OFF 14
                          M          SET_SSR_VALUE 14,  0
001916 0104               M         BANKSEL SSR_DATA_BANK
001918 0E00               M          MOVLW  0
00191A 6F00               M          MOVWF  SSR_00_VALUE+14,  BANKED
00191C 6B00               M          CLRF   SSR_00_STEP+14,  BANKED
00191E 6B00               M          CLRF   SSR_00_SPEED+14,  BANKED
001920 6B00               M          CLRF   SSR_00_COUNTER+14,  BANKED
001922 6B00               M          CLRF   SSR_00_FLAGS+14,  BANKED
  00000001                M LLIM_LTN --
                          M          SET_SSR_OFF 13
                          M          SET_SSR_VALUE 13,  0
001924 0104               M         BANKSEL SSR_DATA_BANK
001926 0E00               M          MOVLW  0
001928 6F00               M          MOVWF  SSR_00_VALUE+13,  BANKED
00192A 6B00               M          CLRF   SSR_00_STEP+13,  BANKED
00192C 6B00               M          CLRF   SSR_00_SPEED+13,  BANKED
00192E 6B00               M          CLRF   SSR_00_COUNTER+13,  BANKED
001930 6B00               M          CLRF   SSR_00_FLAGS+13,  BANKED
  00000000                M LLIM_LTN --
                          M          SET_SSR_OFF 12
                          M          SET_SSR_VALUE 12,  0
001932 0104               M         BANKSEL SSR_DATA_BANK
001934 0E00               M          MOVLW  0
001936 6F00               M          MOVWF  SSR_00_VALUE+12,  BANKED
001938 6B00               M          CLRF   SSR_00_STEP+12,  BANKED
00193A 6B00               M          CLRF   SSR_00_SPEED+12,  BANKED
00193C 6B00               M          CLRF   SSR_00_COUNTER+12,  BANKED
00193E 6B00               M          CLRF   SSR_00_FLAGS+12,  BANKED
MPASM 5.66              ../QUIZSHOW_MAIN.ASM   3-1-2017  12:21:15         PAGE 94


LOC  OBJECT CODE     LINE SOURCE TEXT
  VALUE

                          M         ENDW
                          M 
001940                    M LLIM_END_36:
001940 010C               M         BANKSEL QUIZSHOW_DATA
  00000025                M LLIM_N  ++
                      01081           LOCAL_LIGHT_INDICATOR BTN_IDX_L3, CHAN_L3R, 1, CHAN_L3R
001942 010C               M         BANKSEL QUIZSHOW_DATA
001944 A500               M         BTFSS   BTN_X0_FLAGS+7,           BTN_FLG_LOCKED, BANKED
001946 D???               M         BRA     LLIM_NOT_LOCKED_37
001948 B900               M         BTFSC   BTN_X0_FLAGS+7,           BTN_FLG_LCK_ACK, BANKED
00194A D???               M         BRA     LLIM_NOT_LOCKED_37
                          M         ;
                          M         ; light up for locked mode for the first time
                          M         ;
00194C 8900               M         BSF     BTN_X0_FLAGS+7,           BTN_FLG_LCK_ACK, BANKED       ; don't do it again
  00000001                M LLIM_LTN SET    1
                          M         WHILE LLIM_LTN > 0
  00000000                M LLIM_LTN --
                          M          SET_SSR_OFF 15
                          M          SET_SSR_VALUE 15,  0
00194E 0104               M         BANKSEL SSR_DATA_BANK
001950 0E00               M          MOVLW  0
001952 6F00               M          MOVWF  SSR_00_VALUE+15,  BANKED
001954 6B00               M          CLRF   SSR_00_STEP+15,  BANKED
001956 6B00               M          CLRF   SSR_00_SPEED+15,  BANKED
001958 6B00               M          CLRF   SSR_00_COUNTER+15,  BANKED
00195A 6B00               M          CLRF   SSR_00_FLAGS+15,  BANKED
                          M         ENDW
                          M         SET_SSR_RAPID_FADE CHAN_L3R
                          M          SET_SSR_PATTERN CHAN_L3R, 0, 4, 1, BIT_FADE_UP|BIT_FADE_CYCLE
00195C 0104               M         BANKSEL SSR_DATA_BANK
00195E 0E00               M          MOVLW  0
001960 6F00               M          MOVWF  SSR_00_VALUE+CHAN_L3R, BANKED
001962 0E04               M          MOVLW  4
001964 6F00               M          MOVWF  SSR_00_STEP+CHAN_L3R, BANKED
001966 0E01               M          MOVLW  1
001968 6F00               M          MOVWF  SSR_00_SPEED+CHAN_L3R, BANKED
00196A 6F00               M          MOVWF  SSR_00_COUNTER+CHAN_L3R, BANKED
00196C 0EA0               M          MOVLW  BIT_FADE_UP|BIT_FADE_CYCLE
00196E 6F00               M          MOVWF  SSR_00_FLAGS+CHAN_L3R, BANKED
001970 D???               M         BRA     LLIM_END_37
                          M 
001972                    M LLIM_NOT_LOCKED_37:
001972 010C               M         BANKSEL QUIZSHOW_DATA
001974 B300               M         BTFSC   BTN_X0_FLAGS+7,           BTN_FLG_MASKED, BANKED
001976 D???               M         BRA     LLIM_OFF_37
001978 B100               M         BTFSC   BTN_X0_FLAGS+7,           BTN_FLG_PRESSED, BANKED
00197A D???               M         BRA     LLIM_OFF_37
00197C A000               M         BTFSS   QUIZSHOW_FLAGS, QS_FLAG_SCANNING, ACCESS
00197E D???               M         BRA     LLIM_OFF_37
                          M         ;
                          M         ; scanning and not pressed or masked? light up fully
                          M         ;
  00000001                M LLIM_LTN SET    1
                          M         WHILE LLIM_LTN > 0
  00000000                M LLIM_LTN --
                          M          SET_SSR_STEADY 15
                          M          SET_SSR_VALUE 15,  255
001980 0104               M         BANKSEL SSR_DATA_BANK
001982 0EFF               M          MOVLW  255
001984 6F00               M          MOVWF  SSR_00_VALUE+15,  BANKED
001986 6B00               M          CLRF   SSR_00_STEP+15,  BANKED
001988 6B00               M          CLRF   SSR_00_SPEED+15,  BANKED
00198A 6B00               M          CLRF   SSR_00_COUNTER+15,  BANKED
00198C 6B00               M          CLRF   SSR_00_FLAGS+15,  BANKED
                          M         ENDW
00198E D???               M         BRA     LLIM_END_37
                          M         
001990                    M LLIM_OFF_37:
                          M         ;
                          M         ; button pressed or masked, or scan is off; 
                          M         ; turn off until the host computer
                          M         ; stops the scan and awards the winner
                          M         ;
  00000001                M LLIM_LTN SET    1
                          M         WHILE LLIM_LTN > 0
  00000000                M LLIM_LTN --
                          M          SET_SSR_OFF 15
                          M          SET_SSR_VALUE 15,  0
001990 0104               M         BANKSEL SSR_DATA_BANK
MPASM 5.66              ../QUIZSHOW_MAIN.ASM   3-1-2017  12:21:15         PAGE 95


LOC  OBJECT CODE     LINE SOURCE TEXT
  VALUE

001992 0E00               M          MOVLW  0
001994 6F00               M          MOVWF  SSR_00_VALUE+15,  BANKED
001996 6B00               M          CLRF   SSR_00_STEP+15,  BANKED
001998 6B00               M          CLRF   SSR_00_SPEED+15,  BANKED
00199A 6B00               M          CLRF   SSR_00_COUNTER+15,  BANKED
00199C 6B00               M          CLRF   SSR_00_FLAGS+15,  BANKED
                          M         ENDW
                          M 
00199E                    M LLIM_END_37:
00199E 010C               M         BANKSEL QUIZSHOW_DATA
  00000026                M LLIM_N  ++
                      01082           LOCAL_LIGHT_INDICATOR BTN_IDX_X4, CHAN_X4R, 3, CHAN_X4R
0019A0 010C               M         BANKSEL QUIZSHOW_DATA
0019A2 A500               M         BTFSS   BTN_X0_FLAGS+8,           BTN_FLG_LOCKED, BANKED
0019A4 D???               M         BRA     LLIM_NOT_LOCKED_38
0019A6 B900               M         BTFSC   BTN_X0_FLAGS+8,           BTN_FLG_LCK_ACK, BANKED
0019A8 D???               M         BRA     LLIM_NOT_LOCKED_38
                          M         ;
                          M         ; light up for locked mode for the first time
                          M         ;
0019AA 8900               M         BSF     BTN_X0_FLAGS+8,           BTN_FLG_LCK_ACK, BANKED       ; don't do it again
  00000003                M LLIM_LTN SET    3
                          M         WHILE LLIM_LTN > 0
  00000002                M LLIM_LTN --
                          M          SET_SSR_OFF 18
                          M          SET_SSR_VALUE 18,  0
0019AC 0104               M         BANKSEL SSR_DATA_BANK
0019AE 0E00               M          MOVLW  0
0019B0 6F00               M          MOVWF  SSR_00_VALUE+18,  BANKED
0019B2 6B00               M          CLRF   SSR_00_STEP+18,  BANKED
0019B4 6B00               M          CLRF   SSR_00_SPEED+18,  BANKED
0019B6 6B00               M          CLRF   SSR_00_COUNTER+18,  BANKED
0019B8 6B00               M          CLRF   SSR_00_FLAGS+18,  BANKED
  00000001                M LLIM_LTN --
                          M          SET_SSR_OFF 17
                          M          SET_SSR_VALUE 17,  0
0019BA 0104               M         BANKSEL SSR_DATA_BANK
0019BC 0E00               M          MOVLW  0
0019BE 6F00               M          MOVWF  SSR_00_VALUE+17,  BANKED
0019C0 6B00               M          CLRF   SSR_00_STEP+17,  BANKED
0019C2 6B00               M          CLRF   SSR_00_SPEED+17,  BANKED
0019C4 6B00               M          CLRF   SSR_00_COUNTER+17,  BANKED
0019C6 6B00               M          CLRF   SSR_00_FLAGS+17,  BANKED
  00000000                M LLIM_LTN --
                          M          SET_SSR_OFF 16
                          M          SET_SSR_VALUE 16,  0
0019C8 0104               M         BANKSEL SSR_DATA_BANK
0019CA 0E00               M          MOVLW  0
0019CC 6F00               M          MOVWF  SSR_00_VALUE+16,  BANKED
0019CE 6B00               M          CLRF   SSR_00_STEP+16,  BANKED
0019D0 6B00               M          CLRF   SSR_00_SPEED+16,  BANKED
0019D2 6B00               M          CLRF   SSR_00_COUNTER+16,  BANKED
0019D4 6B00               M          CLRF   SSR_00_FLAGS+16,  BANKED
                          M         ENDW
                          M         SET_SSR_RAPID_FADE CHAN_X4R
                          M          SET_SSR_PATTERN CHAN_X4R, 0, 4, 1, BIT_FADE_UP|BIT_FADE_CYCLE
0019D6 0104               M         BANKSEL SSR_DATA_BANK
0019D8 0E00               M          MOVLW  0
0019DA 6F00               M          MOVWF  SSR_00_VALUE+CHAN_X4R, BANKED
0019DC 0E04               M          MOVLW  4
0019DE 6F00               M          MOVWF  SSR_00_STEP+CHAN_X4R, BANKED
0019E0 0E01               M          MOVLW  1
0019E2 6F00               M          MOVWF  SSR_00_SPEED+CHAN_X4R, BANKED
0019E4 6F00               M          MOVWF  SSR_00_COUNTER+CHAN_X4R, BANKED
0019E6 0EA0               M          MOVLW  BIT_FADE_UP|BIT_FADE_CYCLE
0019E8 6F00               M          MOVWF  SSR_00_FLAGS+CHAN_X4R, BANKED
0019EA D???               M         BRA     LLIM_END_38
                          M 
0019EC                    M LLIM_NOT_LOCKED_38:
0019EC 010C               M         BANKSEL QUIZSHOW_DATA
0019EE B300               M         BTFSC   BTN_X0_FLAGS+8,           BTN_FLG_MASKED, BANKED
0019F0 D???               M         BRA     LLIM_OFF_38
0019F2 B100               M         BTFSC   BTN_X0_FLAGS+8,           BTN_FLG_PRESSED, BANKED
0019F4 D???               M         BRA     LLIM_OFF_38
0019F6 A000               M         BTFSS   QUIZSHOW_FLAGS, QS_FLAG_SCANNING, ACCESS
0019F8 D???               M         BRA     LLIM_OFF_38
                          M         ;
                          M         ; scanning and not pressed or masked? light up fully
                          M         ;
  00000003                M LLIM_LTN SET    3
MPASM 5.66              ../QUIZSHOW_MAIN.ASM   3-1-2017  12:21:15         PAGE 96


LOC  OBJECT CODE     LINE SOURCE TEXT
  VALUE

                          M         WHILE LLIM_LTN > 0
  00000002                M LLIM_LTN --
                          M          SET_SSR_STEADY 18
                          M          SET_SSR_VALUE 18,  255
0019FA 0104               M         BANKSEL SSR_DATA_BANK
0019FC 0EFF               M          MOVLW  255
0019FE 6F00               M          MOVWF  SSR_00_VALUE+18,  BANKED
001A00 6B00               M          CLRF   SSR_00_STEP+18,  BANKED
001A02 6B00               M          CLRF   SSR_00_SPEED+18,  BANKED
001A04 6B00               M          CLRF   SSR_00_COUNTER+18,  BANKED
001A06 6B00               M          CLRF   SSR_00_FLAGS+18,  BANKED
  00000001                M LLIM_LTN --
                          M          SET_SSR_STEADY 17
                          M          SET_SSR_VALUE 17,  255
001A08 0104               M         BANKSEL SSR_DATA_BANK
001A0A 0EFF               M          MOVLW  255
001A0C 6F00               M          MOVWF  SSR_00_VALUE+17,  BANKED
001A0E 6B00               M          CLRF   SSR_00_STEP+17,  BANKED
001A10 6B00               M          CLRF   SSR_00_SPEED+17,  BANKED
001A12 6B00               M          CLRF   SSR_00_COUNTER+17,  BANKED
001A14 6B00               M          CLRF   SSR_00_FLAGS+17,  BANKED
  00000000                M LLIM_LTN --
                          M          SET_SSR_STEADY 16
                          M          SET_SSR_VALUE 16,  255
001A16 0104               M         BANKSEL SSR_DATA_BANK
001A18 0EFF               M          MOVLW  255
001A1A 6F00               M          MOVWF  SSR_00_VALUE+16,  BANKED
001A1C 6B00               M          CLRF   SSR_00_STEP+16,  BANKED
001A1E 6B00               M          CLRF   SSR_00_SPEED+16,  BANKED
001A20 6B00               M          CLRF   SSR_00_COUNTER+16,  BANKED
001A22 6B00               M          CLRF   SSR_00_FLAGS+16,  BANKED
                          M         ENDW
001A24 D???               M         BRA     LLIM_END_38
                          M         
001A26                    M LLIM_OFF_38:
                          M         ;
                          M         ; button pressed or masked, or scan is off; 
                          M         ; turn off until the host computer
                          M         ; stops the scan and awards the winner
                          M         ;
  00000003                M LLIM_LTN SET    3
                          M         WHILE LLIM_LTN > 0
  00000002                M LLIM_LTN --
                          M          SET_SSR_OFF 18
                          M          SET_SSR_VALUE 18,  0
001A26 0104               M         BANKSEL SSR_DATA_BANK
001A28 0E00               M          MOVLW  0
001A2A 6F00               M          MOVWF  SSR_00_VALUE+18,  BANKED
001A2C 6B00               M          CLRF   SSR_00_STEP+18,  BANKED
001A2E 6B00               M          CLRF   SSR_00_SPEED+18,  BANKED
001A30 6B00               M          CLRF   SSR_00_COUNTER+18,  BANKED
001A32 6B00               M          CLRF   SSR_00_FLAGS+18,  BANKED
  00000001                M LLIM_LTN --
                          M          SET_SSR_OFF 17
                          M          SET_SSR_VALUE 17,  0
001A34 0104               M         BANKSEL SSR_DATA_BANK
001A36 0E00               M          MOVLW  0
001A38 6F00               M          MOVWF  SSR_00_VALUE+17,  BANKED
001A3A 6B00               M          CLRF   SSR_00_STEP+17,  BANKED
001A3C 6B00               M          CLRF   SSR_00_SPEED+17,  BANKED
001A3E 6B00               M          CLRF   SSR_00_COUNTER+17,  BANKED
001A40 6B00               M          CLRF   SSR_00_FLAGS+17,  BANKED
  00000000                M LLIM_LTN --
                          M          SET_SSR_OFF 16
                          M          SET_SSR_VALUE 16,  0
001A42 0104               M         BANKSEL SSR_DATA_BANK
001A44 0E00               M          MOVLW  0
001A46 6F00               M          MOVWF  SSR_00_VALUE+16,  BANKED
001A48 6B00               M          CLRF   SSR_00_STEP+16,  BANKED
001A4A 6B00               M          CLRF   SSR_00_SPEED+16,  BANKED
001A4C 6B00               M          CLRF   SSR_00_COUNTER+16,  BANKED
001A4E 6B00               M          CLRF   SSR_00_FLAGS+16,  BANKED
                          M         ENDW
                          M 
001A50                    M LLIM_END_38:
001A50 010C               M         BANKSEL QUIZSHOW_DATA
  00000027                M LLIM_N  ++
                      01083           LOCAL_LIGHT_INDICATOR BTN_IDX_L4, CHAN_L4R, 1, CHAN_L4R
001A52 010C               M         BANKSEL QUIZSHOW_DATA
001A54 A500               M         BTFSS   BTN_X0_FLAGS+9,           BTN_FLG_LOCKED, BANKED
MPASM 5.66              ../QUIZSHOW_MAIN.ASM   3-1-2017  12:21:15         PAGE 97


LOC  OBJECT CODE     LINE SOURCE TEXT
  VALUE

001A56 D???               M         BRA     LLIM_NOT_LOCKED_39
001A58 B900               M         BTFSC   BTN_X0_FLAGS+9,           BTN_FLG_LCK_ACK, BANKED
001A5A D???               M         BRA     LLIM_NOT_LOCKED_39
                          M         ;
                          M         ; light up for locked mode for the first time
                          M         ;
001A5C 8900               M         BSF     BTN_X0_FLAGS+9,           BTN_FLG_LCK_ACK, BANKED       ; don't do it again
  00000001                M LLIM_LTN SET    1
                          M         WHILE LLIM_LTN > 0
  00000000                M LLIM_LTN --
                          M          SET_SSR_OFF 19
                          M          SET_SSR_VALUE 19,  0
001A5E 0104               M         BANKSEL SSR_DATA_BANK
001A60 0E00               M          MOVLW  0
001A62 6F00               M          MOVWF  SSR_00_VALUE+19,  BANKED
001A64 6B00               M          CLRF   SSR_00_STEP+19,  BANKED
001A66 6B00               M          CLRF   SSR_00_SPEED+19,  BANKED
001A68 6B00               M          CLRF   SSR_00_COUNTER+19,  BANKED
001A6A 6B00               M          CLRF   SSR_00_FLAGS+19,  BANKED
                          M         ENDW
                          M         SET_SSR_RAPID_FADE CHAN_L4R
                          M          SET_SSR_PATTERN CHAN_L4R, 0, 4, 1, BIT_FADE_UP|BIT_FADE_CYCLE
001A6C 0104               M         BANKSEL SSR_DATA_BANK
001A6E 0E00               M          MOVLW  0
001A70 6F00               M          MOVWF  SSR_00_VALUE+CHAN_L4R, BANKED
001A72 0E04               M          MOVLW  4
001A74 6F00               M          MOVWF  SSR_00_STEP+CHAN_L4R, BANKED
001A76 0E01               M          MOVLW  1
001A78 6F00               M          MOVWF  SSR_00_SPEED+CHAN_L4R, BANKED
001A7A 6F00               M          MOVWF  SSR_00_COUNTER+CHAN_L4R, BANKED
001A7C 0EA0               M          MOVLW  BIT_FADE_UP|BIT_FADE_CYCLE
001A7E 6F00               M          MOVWF  SSR_00_FLAGS+CHAN_L4R, BANKED
001A80 D???               M         BRA     LLIM_END_39
                          M 
001A82                    M LLIM_NOT_LOCKED_39:
001A82 010C               M         BANKSEL QUIZSHOW_DATA
001A84 B300               M         BTFSC   BTN_X0_FLAGS+9,           BTN_FLG_MASKED, BANKED
001A86 D???               M         BRA     LLIM_OFF_39
001A88 B100               M         BTFSC   BTN_X0_FLAGS+9,           BTN_FLG_PRESSED, BANKED
001A8A D???               M         BRA     LLIM_OFF_39
001A8C A000               M         BTFSS   QUIZSHOW_FLAGS, QS_FLAG_SCANNING, ACCESS
001A8E D???               M         BRA     LLIM_OFF_39
                          M         ;
                          M         ; scanning and not pressed or masked? light up fully
                          M         ;
  00000001                M LLIM_LTN SET    1
                          M         WHILE LLIM_LTN > 0
  00000000                M LLIM_LTN --
                          M          SET_SSR_STEADY 19
                          M          SET_SSR_VALUE 19,  255
001A90 0104               M         BANKSEL SSR_DATA_BANK
001A92 0EFF               M          MOVLW  255
001A94 6F00               M          MOVWF  SSR_00_VALUE+19,  BANKED
001A96 6B00               M          CLRF   SSR_00_STEP+19,  BANKED
001A98 6B00               M          CLRF   SSR_00_SPEED+19,  BANKED
001A9A 6B00               M          CLRF   SSR_00_COUNTER+19,  BANKED
001A9C 6B00               M          CLRF   SSR_00_FLAGS+19,  BANKED
                          M         ENDW
001A9E D???               M         BRA     LLIM_END_39
                          M         
001AA0                    M LLIM_OFF_39:
                          M         ;
                          M         ; button pressed or masked, or scan is off; 
                          M         ; turn off until the host computer
                          M         ; stops the scan and awards the winner
                          M         ;
  00000001                M LLIM_LTN SET    1
                          M         WHILE LLIM_LTN > 0
  00000000                M LLIM_LTN --
                          M          SET_SSR_OFF 19
                          M          SET_SSR_VALUE 19,  0
001AA0 0104               M         BANKSEL SSR_DATA_BANK
001AA2 0E00               M          MOVLW  0
001AA4 6F00               M          MOVWF  SSR_00_VALUE+19,  BANKED
001AA6 6B00               M          CLRF   SSR_00_STEP+19,  BANKED
001AA8 6B00               M          CLRF   SSR_00_SPEED+19,  BANKED
001AAA 6B00               M          CLRF   SSR_00_COUNTER+19,  BANKED
001AAC 6B00               M          CLRF   SSR_00_FLAGS+19,  BANKED
                          M         ENDW
                          M 
MPASM 5.66              ../QUIZSHOW_MAIN.ASM   3-1-2017  12:21:15         PAGE 98


LOC  OBJECT CODE     LINE SOURCE TEXT
  VALUE

001AAE                    M LLIM_END_39:
001AAE 010C               M         BANKSEL QUIZSHOW_DATA
  00000028                M LLIM_N  ++
                      01084          ELSE
                      01085           ERROR "Incorrect chip type setting!"
                      01086          ENDIF
                      01087         ENDIF
001AB0 0012           01088         RETURN
                      01089 
001AB2                01090 QS_STOP_SCANNER:
001AB2 0004           01091         CLRWDT
001AB4 9000           01092         BCF     QUIZSHOW_FLAGS, QS_FLAG_SCANNING, ACCESS
                      01093         ; stop timer
001AB6 90CD           01094         BCF     T1CON, TMR1ON, ACCESS
001AB8 909D           01095         BCF     PIE1, TMR1IE, ACCESS
001ABA 909E           01096         BCF     PIR1, TMR1IF, ACCESS
                      01097         ; extinguish non-masked buttons
001ABC D???           01098         RCALL   SET_ALL_BUTTON_LIGHTS
001ABE 0012           01099         RETURN
                      01100 
                      01101         END
MPASM 5.66              ../QUIZSHOW_MAIN.ASM   3-1-2017  12:21:15         PAGE 99


SYMBOL TABLE
  LABEL                             VALUE 

A                                 00000000
ABAT                              00000004
ABDEN                             00000000
ABDOVF                            00000007
ACCESS                            00000000
ACKDT                             00000005
ACKEN                             00000004
ACKSTAT                           00000006
ACQT0                             00000003
ACQT1                             00000004
ACQT2                             00000005
ADCON0                            00000FC2
ADCON1                            00000FC1
ADCON2                            00000FC0
ADCS0                             00000000
ADCS1                             00000001
ADCS2                             00000002
ADDEN                             00000003
ADEN                              00000003
ADFM                              00000007
ADIE                              00000006
ADIF                              00000006
ADIP                              00000006
ADON                              00000000
ADRES                             00000FC3
ADRESH                            00000FC4
ADRESL                            00000FC3
ALL_OFF                           00000004
AN0                               00000000
AN1                               00000001
AN10                              00000000
AN2                               00000002
AN3                               00000003
AN4                               00000005
AN5                               00000000
AN6                               00000001
AN7                               00000002
AN8                               00000001
AN9                               00000004
B0CON                             00000E20
B0D0                              00000E26
B0D00                             00000000
B0D01                             00000001
B0D02                             00000002
B0D03                             00000003
B0D04                             00000004
B0D05                             00000005
B0D06                             00000006
B0D07                             00000007
B0D1                              00000E27
B0D10                             00000000
B0D11                             00000001
B0D12                             00000002
B0D13                             00000003
B0D14                             00000004
B0D15                             00000005
B0D16                             00000006
B0D17                             00000007
B0D2                              00000E28
B0D20                             00000000
B0D21                             00000001
B0D22                             00000002
B0D23                             00000003
B0D24                             00000004
B0D25                             00000005
B0D26                             00000006
B0D27                             00000007
B0D3                              00000E29
B0D30                             00000000
B0D31                             00000001
B0D32                             00000002
B0D33                             00000003
B0D34                             00000004
B0D35                             00000005
B0D36                             00000006
B0D37                             00000007
B0D4                              00000E2A
B0D40                             00000000
B0D41                             00000001
B0D42                             00000002
MPASM 5.66              ../QUIZSHOW_MAIN.ASM   3-1-2017  12:21:15         PAGE 100


SYMBOL TABLE
  LABEL                             VALUE 

B0D43                             00000003
B0D44                             00000004
B0D45                             00000005
B0D46                             00000006
B0D47                             00000007
B0D5                              00000E2B
B0D50                             00000000
B0D51                             00000001
B0D52                             00000002
B0D53                             00000003
B0D54                             00000004
B0D55                             00000005
B0D56                             00000006
B0D57                             00000007
B0D6                              00000E2C
B0D60                             00000000
B0D61                             00000001
B0D62                             00000002
B0D63                             00000003
B0D64                             00000004
B0D65                             00000005
B0D66                             00000006
B0D67                             00000007
B0D7                              00000E2D
B0D70                             00000000
B0D71                             00000001
B0D72                             00000002
B0D73                             00000003
B0D74                             00000004
B0D75                             00000005
B0D76                             00000006
B0D77                             00000007
B0DLC                             00000E25
B0EIDH                            00000E23
B0EIDL                            00000E24
B0IE                              00000002
B0SIDH                            00000E21
B0SIDL                            00000E22
B0TXEN                            00000002
B1CON                             00000E30
B1D0                              00000E36
B1D00                             00000000
B1D01                             00000001
B1D02                             00000002
B1D03                             00000003
B1D04                             00000004
B1D05                             00000005
B1D06                             00000006
B1D07                             00000007
B1D1                              00000E37
B1D10                             00000000
B1D11                             00000001
B1D12                             00000002
B1D13                             00000003
B1D14                             00000004
B1D15                             00000005
B1D16                             00000006
B1D17                             00000007
B1D2                              00000E38
B1D20                             00000000
B1D21                             00000001
B1D22                             00000002
B1D23                             00000003
B1D24                             00000004
B1D25                             00000005
B1D26                             00000006
B1D27                             00000007
B1D3                              00000E39
B1D30                             00000000
B1D31                             00000001
B1D32                             00000002
B1D33                             00000003
B1D34                             00000004
B1D35                             00000005
B1D36                             00000006
B1D37                             00000007
B1D4                              00000E3A
B1D40                             00000000
B1D41                             00000001
B1D42                             00000002
MPASM 5.66              ../QUIZSHOW_MAIN.ASM   3-1-2017  12:21:15         PAGE 101


SYMBOL TABLE
  LABEL                             VALUE 

B1D43                             00000003
B1D44                             00000004
B1D45                             00000005
B1D46                             00000006
B1D47                             00000007
B1D5                              00000E3B
B1D50                             00000000
B1D51                             00000001
B1D52                             00000002
B1D53                             00000003
B1D54                             00000004
B1D55                             00000005
B1D56                             00000006
B1D57                             00000007
B1D6                              00000E3C
B1D60                             00000000
B1D61                             00000001
B1D62                             00000002
B1D63                             00000003
B1D64                             00000004
B1D65                             00000005
B1D66                             00000006
B1D67                             00000007
B1D7                              00000E3D
B1D70                             00000000
B1D71                             00000001
B1D72                             00000002
B1D73                             00000003
B1D74                             00000004
B1D75                             00000005
B1D76                             00000006
B1D77                             00000007
B1DLC                             00000E35
B1EIDH                            00000E33
B1EIDL                            00000E34
B1IE                              00000003
B1SIDH                            00000E31
B1SIDL                            00000E32
B1TXEN                            00000003
B2CON                             00000E40
B2D0                              00000E46
B2D00                             00000000
B2D01                             00000001
B2D02                             00000002
B2D03                             00000003
B2D04                             00000004
B2D05                             00000005
B2D06                             00000006
B2D07                             00000007
B2D1                              00000E47
B2D10                             00000000
B2D11                             00000001
B2D12                             00000002
B2D13                             00000003
B2D14                             00000004
B2D15                             00000005
B2D16                             00000006
B2D17                             00000007
B2D2                              00000E48
B2D20                             00000000
B2D21                             00000001
B2D22                             00000002
B2D23                             00000003
B2D24                             00000004
B2D25                             00000005
B2D26                             00000006
B2D27                             00000007
B2D3                              00000E49
B2D30                             00000000
B2D31                             00000001
B2D32                             00000002
B2D33                             00000003
B2D34                             00000004
B2D35                             00000005
B2D36                             00000006
B2D37                             00000007
B2D4                              00000E4A
B2D40                             00000000
B2D41                             00000001
B2D42                             00000002
MPASM 5.66              ../QUIZSHOW_MAIN.ASM   3-1-2017  12:21:15         PAGE 102


SYMBOL TABLE
  LABEL                             VALUE 

B2D43                             00000003
B2D44                             00000004
B2D45                             00000005
B2D46                             00000006
B2D47                             00000007
B2D5                              00000E4B
B2D50                             00000000
B2D51                             00000001
B2D52                             00000002
B2D53                             00000003
B2D54                             00000004
B2D55                             00000005
B2D56                             00000006
B2D57                             00000007
B2D6                              00000E4C
B2D60                             00000000
B2D61                             00000001
B2D62                             00000002
B2D63                             00000003
B2D64                             00000004
B2D65                             00000005
B2D66                             00000006
B2D67                             00000007
B2D7                              00000E4D
B2D70                             00000000
B2D71                             00000001
B2D72                             00000002
B2D73                             00000003
B2D74                             00000004
B2D75                             00000005
B2D76                             00000006
B2D77                             00000007
B2DLC                             00000E45
B2EIDH                            00000E43
B2EIDL                            00000E44
B2IE                              00000004
B2SIDH                            00000E41
B2SIDL                            00000E42
B2TXEN                            00000004
B3CON                             00000E50
B3D0                              00000E56
B3D00                             00000000
B3D01                             00000001
B3D02                             00000002
B3D03                             00000003
B3D04                             00000004
B3D05                             00000005
B3D06                             00000006
B3D07                             00000007
B3D1                              00000E57
B3D10                             00000000
B3D11                             00000001
B3D12                             00000002
B3D13                             00000003
B3D14                             00000004
B3D15                             00000005
B3D16                             00000006
B3D17                             00000007
B3D2                              00000E58
B3D20                             00000000
B3D21                             00000001
B3D22                             00000002
B3D23                             00000003
B3D24                             00000004
B3D25                             00000005
B3D26                             00000006
B3D27                             00000007
B3D3                              00000E59
B3D30                             00000000
B3D31                             00000001
B3D32                             00000002
B3D33                             00000003
B3D34                             00000004
B3D35                             00000005
B3D36                             00000006
B3D37                             00000007
B3D4                              00000E5A
B3D40                             00000000
B3D41                             00000001
B3D42                             00000002
MPASM 5.66              ../QUIZSHOW_MAIN.ASM   3-1-2017  12:21:15         PAGE 103


SYMBOL TABLE
  LABEL                             VALUE 

B3D43                             00000003
B3D44                             00000004
B3D45                             00000005
B3D46                             00000006
B3D47                             00000007
B3D5                              00000E5B
B3D50                             00000000
B3D51                             00000001
B3D52                             00000002
B3D53                             00000003
B3D54                             00000004
B3D55                             00000005
B3D56                             00000006
B3D57                             00000007
B3D6                              00000E5C
B3D60                             00000000
B3D61                             00000001
B3D62                             00000002
B3D63                             00000003
B3D64                             00000004
B3D65                             00000005
B3D66                             00000006
B3D67                             00000007
B3D7                              00000E5D
B3D70                             00000000
B3D71                             00000001
B3D72                             00000002
B3D73                             00000003
B3D74                             00000004
B3D75                             00000005
B3D76                             00000006
B3D77                             00000007
B3DLC                             00000E55
B3EIDH                            00000E53
B3EIDL                            00000E54
B3IE                              00000005
B3SIDH                            00000E51
B3SIDL                            00000E52
B3TXEN                            00000005
B46D77                            00000007
B4CON                             00000E60
B4D0                              00000E66
B4D00                             00000000
B4D01                             00000001
B4D02                             00000002
B4D03                             00000003
B4D04                             00000004
B4D05                             00000005
B4D06                             00000006
B4D07                             00000007
B4D1                              00000E67
B4D10                             00000000
B4D11                             00000001
B4D12                             00000002
B4D13                             00000003
B4D14                             00000004
B4D15                             00000005
B4D16                             00000006
B4D17                             00000007
B4D2                              00000E68
B4D20                             00000000
B4D21                             00000001
B4D22                             00000002
B4D23                             00000003
B4D24                             00000004
B4D25                             00000005
B4D26                             00000006
B4D27                             00000007
B4D3                              00000E69
B4D30                             00000000
B4D31                             00000001
B4D32                             00000002
B4D33                             00000003
B4D34                             00000004
B4D35                             00000005
B4D36                             00000006
B4D37                             00000007
B4D4                              00000E6A
B4D40                             00000000
B4D41                             00000001
MPASM 5.66              ../QUIZSHOW_MAIN.ASM   3-1-2017  12:21:15         PAGE 104


SYMBOL TABLE
  LABEL                             VALUE 

B4D42                             00000002
B4D43                             00000003
B4D44                             00000004
B4D45                             00000005
B4D46                             00000006
B4D47                             00000007
B4D5                              00000E6B
B4D50                             00000000
B4D51                             00000001
B4D52                             00000002
B4D53                             00000003
B4D54                             00000004
B4D55                             00000005
B4D56                             00000006
B4D57                             00000007
B4D6                              00000E6C
B4D60                             00000000
B4D61                             00000001
B4D62                             00000002
B4D63                             00000003
B4D64                             00000004
B4D65                             00000005
B4D66                             00000006
B4D67                             00000007
B4D7                              00000E6D
B4D70                             00000000
B4D71                             00000001
B4D72                             00000002
B4D73                             00000003
B4D74                             00000004
B4D75                             00000005
B4D76                             00000006
B4D77                             00000007
B4DLC                             00000E65
B4EIDH                            00000E63
B4EIDL                            00000E64
B4IE                              00000006
B4SIDH                            00000E61
B4SIDL                            00000E62
B4TXEN                            00000006
B57D07                            00000007
B57D23                            00000003
B5CON                             00000E70
B5D0                              00000E76
B5D00                             00000000
B5D01                             00000001
B5D02                             00000002
B5D03                             00000003
B5D04                             00000004
B5D05                             00000005
B5D06                             00000006
B5D07                             00000007
B5D1                              00000E77
B5D10                             00000000
B5D11                             00000001
B5D12                             00000002
B5D13                             00000003
B5D14                             00000004
B5D15                             00000005
B5D16                             00000006
B5D17                             00000007
B5D2                              00000E78
B5D20                             00000000
B5D21                             00000001
B5D22                             00000002
B5D23                             00000003
B5D24                             00000004
B5D25                             00000005
B5D26                             00000006
B5D27                             00000007
B5D3                              00000E79
B5D30                             00000000
B5D31                             00000001
B5D32                             00000002
B5D33                             00000003
B5D34                             00000004
B5D35                             00000005
B5D36                             00000006
B5D37                             00000007
B5D4                              00000E7A
MPASM 5.66              ../QUIZSHOW_MAIN.ASM   3-1-2017  12:21:15         PAGE 105


SYMBOL TABLE
  LABEL                             VALUE 

B5D40                             00000000
B5D41                             00000001
B5D42                             00000002
B5D43                             00000003
B5D44                             00000004
B5D45                             00000005
B5D46                             00000006
B5D47                             00000007
B5D5                              00000E7B
B5D50                             00000000
B5D51                             00000001
B5D52                             00000002
B5D53                             00000003
B5D54                             00000004
B5D55                             00000005
B5D56                             00000006
B5D57                             00000007
B5D6                              00000E7C
B5D60                             00000000
B5D61                             00000001
B5D62                             00000002
B5D63                             00000003
B5D64                             00000004
B5D65                             00000005
B5D66                             00000006
B5D67                             00000007
B5D7                              00000E7D
B5D70                             00000000
B5D71                             00000001
B5D72                             00000002
B5D73                             00000003
B5D74                             00000004
B5D75                             00000005
B5D76                             00000006
B5D77                             00000007
B5DLC                             00000E75
B5EIDH                            00000E73
B5EIDL                            00000E74
B5IE                              00000007
B5SIDH                            00000E71
B5SIDL                            00000E72
B5TXEN                            00000007
BANKED                            00000001
BAUDCON                           00000FB8
BAUDCTL                           00000FB8
BCLIE                             00000003
BCLIF                             00000003
BCLIP                             00000003
BF                                00000000
BGST                              00000005
BIE0                              00000DFA
BIT_0                             00000002
BIT_1                             00000001
BIT_10                            00000001
BIT_11                            00000000
BIT_12                            00000007
BIT_13                            00000006
BIT_14                            00000005
BIT_15                            00000001
BIT_16                            00000000
BIT_17                            00000003
BIT_18                            00000001
BIT_19                            00000002
BIT_2                             00000000
BIT_3                             00000002
BIT_4                             00000007
BIT_5                             00000006
BIT_6                             00000005
BIT_7                             00000004
BIT_8                             00000003
BIT_9                             00000002
BIT_FADE_CYCLE                    00000020
BIT_FADE_DOWN                     00000040
BIT_FADE_UP                       00000080
BIT_L0                            00000002
BIT_L1                            00000000
BIT_L2                            00000005
BIT_L3                            00000000
BIT_L4                            00000005
BIT_MAX_OFF_TIME                  00000010
MPASM 5.66              ../QUIZSHOW_MAIN.ASM   3-1-2017  12:21:15         PAGE 106


SYMBOL TABLE
  LABEL                             VALUE 

BIT_RX                            00000007
BIT_T_R                           00000003
BIT_X0                            00000003
BIT_X1                            00000001
BIT_X2                            00000004
BIT_X3                            00000004
BIT_X4                            00000004
BOR                               00000000
BRG16                             00000003
BRGCON1                           00000F70
BRGCON2                           00000F71
BRGCON3                           00000F72
BRGH                              00000002
BRP0                              00000000
BRP1                              00000001
BRP2                              00000002
BRP3                              00000003
BRP4                              00000004
BRP5                              00000005
BSEL0                             00000DF8
BSR                               00000FE0
BTN_FLG_ACTIVE                    00000003
BTN_FLG_LCK_ACK                   00000004
BTN_FLG_LOCKED                    00000002
BTN_FLG_MASKED                    00000001
BTN_FLG_PRESSED                   00000000
BTN_IDX_L0                        00000001
BTN_IDX_L1                        00000003
BTN_IDX_L2                        00000005
BTN_IDX_L3                        00000007
BTN_IDX_L4                        00000009
BTN_IDX_X0                        00000000
BTN_IDX_X1                        00000002
BTN_IDX_X2                        00000004
BTN_IDX_X3                        00000006
BTN_IDX_X4                        00000008
BTN_X0_DEB_TMR                    00000C3C
BTN_X0_FLAGS                      00000C28
BTN_X0_LOCKTMR                    00000C32
BTN_X0_TIME_H                     00000C14
BTN_X0_TIME_L                     00000C1E
BTN_X0_TIME_T                     00000C00
BTN_X0_TIME_U                     00000C0A
C                                 00000000
C1INA                             00000001
C1INB                             00000000
C1INV                             00000004
C1OUT                             00000006
C2INA                             00000003
C2INB                             00000002
C2INV                             00000005
C2OUT                             00000007
CANCAP                            00000004
CANCON                            00000F6F
CANCON_RO0                        00000F5F
CANCON_RO1                        00000F4F
CANCON_RO2                        00000F3F
CANCON_RO3                        00000F2F
CANCON_RO4                        00000E7F
CANCON_RO5                        00000E6F
CANCON_RO6                        00000E5F
CANCON_RO7                        00000E4F
CANCON_RO8                        00000E3F
CANCON_RO9                        00000E2F
CANRX                             00000003
CANSTAT                           00000F6E
CANSTAT_RO0                       00000F5E
CANSTAT_RO1                       00000F4E
CANSTAT_RO2                       00000F3E
CANSTAT_RO3                       00000F2E
CANSTAT_RO4                       00000E7E
CANSTAT_RO5                       00000E6E
CANSTAT_RO6                       00000E5E
CANSTAT_RO7                       00000E4E
CANSTAT_RO8                       00000E3E
CANSTAT_RO9                       00000E2E
CANTX                             00000002
CB_IDX                            0000000A
CCP1                              00000002
CCP1CON                           00000FBD
MPASM 5.66              ../QUIZSHOW_MAIN.ASM   3-1-2017  12:21:15         PAGE 107


SYMBOL TABLE
  LABEL                             VALUE 

CCP1IE                            00000002
CCP1IF                            00000002
CCP1IP                            00000002
CCP1M0                            00000000
CCP1M1                            00000001
CCP1M2                            00000002
CCP1M3                            00000003
CCPR1                             00000FBE
CCPR1H                            00000FBF
CCPR1L                            00000FBE
CFGS                              00000006
CHAN_HB                           00000013
CHAN_L0R                          00000003
CHAN_L1R                          00000007
CHAN_L2R                          0000000B
CHAN_L3R                          0000000F
CHAN_L4R                          00000013
CHAN_X0B                          00000002
CHAN_X0G                          00000001
CHAN_X0R                          00000000
CHAN_X1B                          00000006
CHAN_X1G                          00000005
CHAN_X1R                          00000004
CHAN_X2B                          0000000A
CHAN_X2G                          00000009
CHAN_X2R                          00000008
CHAN_X3B                          0000000E
CHAN_X3G                          0000000D
CHAN_X3R                          0000000C
CHAN_X4B                          00000012
CHAN_X4G                          00000011
CHAN_X4R                          00000010
CHS0                              00000002
CHS1                              00000003
CHS2                              00000004
CHS3                              00000005
CIOCON                            00000F73
CIS                               00000003
CK                                00000006
CKE                               00000006
CKP                               00000004
CLEAR_BUTTONS                     
CLKI                              00000007
CLKO                              00000006
CM0                               00000000
CM1                               00000001
CM2                               00000002
CMCON                             00000FB4
CMIE                              00000006
CMIF                              00000006
CMIP                              00000006
COMSTAT                           00000F74
CREN                              00000004
CS                                00000002
CSRC                              00000007
CVR0                              00000000
CVR1                              00000001
CVR2                              00000002
CVR3                              00000003
CVRCON                            00000FB5
CVREF_CVRCON                      00000004
CVREF_PORTA                       00000000
CVREN                             00000007
CVROE                             00000006
CVRR                              00000005
CVRSS                             00000004
D                                 00000005
DATA_ADDRESS                      00000005
DC                                00000001
DC1B0                             00000004
DC1B1                             00000005
DDRA                              TRISA
DDRB                              TRISB
DDRC                              TRISC
DDRD                              TRISD
DDRE                              TRISE
DFLC0                             00000000
DFLC1                             00000001
DFLC2                             00000002
DFLC3                             00000003
MPASM 5.66              ../QUIZSHOW_MAIN.ASM   3-1-2017  12:21:15         PAGE 108


SYMBOL TABLE
  LABEL                             VALUE 

DFLC4                             00000004
DLC0                              00000000
DLC1                              00000001
DLC2                              00000002
DLC3                              00000003
DMX_ENABLED                       0
DONE                              00000001
DRAIN_TR                          00000002
D_A                               00000005
D_NOT_A                           00000005
ECANCON                           00000F77
ECCP1                             00000004
ECCP1AS                           00000FB6
ECCP1CON                          00000FBA
ECCP1DEL                          00000FB7
ECCP1IE                           00000000
ECCP1IF                           00000000
ECCP1IP                           00000000
ECCP1M0                           00000000
ECCP1M1                           00000001
ECCP1M2                           00000002
ECCP1M3                           00000003
ECCPAS0                           00000004
ECCPAS1                           00000005
ECCPAS2                           00000006
ECCPASE                           00000007
ECCPR1                            00000FBB
ECCPR1H                           00000FBC
ECCPR1L                           00000FBB
EDC1B0                            00000004
EDC1B1                            00000005
EEADR                             00000FA9
EEADRH                            00000FAA
EECON1                            00000FA6
EECON2                            00000FA7
EEDATA                            00000FA8
EEIE                              00000004
EEIF                              00000004
EEIP                              00000004
EEPGD                             00000007
EICODE0                           00000000
EICODE1                           00000001
EICODE1_ICODE0                    00000001
EICODE2                           00000002
EICODE2_ICODE1                    00000002
EICODE3                           00000003
EICODE3_ICODE2                    00000003
EICODE4                           00000004
EID0                              00000000
EID1                              00000001
EID10                             00000002
EID11                             00000003
EID12                             00000004
EID13                             00000005
EID14                             00000006
EID15                             00000007
EID16                             00000000
EID17                             00000001
EID2                              00000002
EID3                              00000003
EID4                              00000004
EID5                              00000005
EID6                              00000006
EID7                              00000007
EID8                              00000000
EID9                              00000001
ENDRHI                            00000005
EPWM1M0                           00000006
EPWM1M1                           00000007
ERRIE                             00000005
ERRIF                             00000005
ERRIP                             00000005
EWARN                             00000000
EWIN0                             00000000
EWIN1                             00000001
EWIN2                             00000002
EWIN3                             00000003
EWIN4                             00000004
EXID                              00000003
EXIDE                             00000003
MPASM 5.66              ../QUIZSHOW_MAIN.ASM   3-1-2017  12:21:15         PAGE 109


SYMBOL TABLE
  LABEL                             VALUE 

EXIDEN                            00000003
F                                 00000005
F0BP_0                            00000000
F0BP_1                            00000001
F0BP_2                            00000002
F0BP_3                            00000003
F10BP_0                           00000000
F10BP_1                           00000001
F10BP_2                           00000002
F10BP_3                           00000003
F11BP_0                           00000004
F11BP_1                           00000005
F11BP_2                           00000006
F11BP_3                           00000007
F12BP_0                           00000000
F12BP_1                           00000001
F12BP_2                           00000002
F12BP_3                           00000003
F13BP_0                           00000004
F13BP_1                           00000005
F13BP_2                           00000006
F13BP_3                           00000007
F14BP_0                           00000000
F14BP_1                           00000001
F14BP_2                           00000002
F14BP_3                           00000003
F15BP_0                           00000004
F15BP_1                           00000005
F15BP_2                           00000006
F15BP_3                           00000007
F1BP_0                            00000004
F1BP_1                            00000005
F1BP_2                            00000006
F1BP_3                            00000007
F2BP_0                            00000000
F2BP_1                            00000001
F2BP_2                            00000002
F2BP_3                            00000003
F3BP_0                            00000004
F3BP_1                            00000005
F3BP_2                            00000006
F3BP_3                            00000007
F4BP_0                            00000000
F4BP_1                            00000001
F4BP_2                            00000002
F4BP_3                            00000003
F5BP_0                            00000004
F5BP_1                            00000005
F5BP_2                            00000006
F5BP_3                            00000007
F6BP_0                            00000000
F6BP_1                            00000001
F6BP_2                            00000002
F6BP_3                            00000003
F7BP_0                            00000004
F7BP_1                            00000005
F7BP_2                            00000006
F7BP_3                            00000007
F8BP_0                            00000000
F8BP_1                            00000001
F8BP_2                            00000002
F8BP_3                            00000003
F9BP_0                            00000004
F9BP_1                            00000005
F9BP_2                            00000006
F9BP_3                            00000007
FADE_CYCLE                        00000005
FADE_DOWN                         00000006
FADE_UP                           00000007
FAST                              00000001
FERR                              00000002
FIFOEMPTY                         00000007
FIFOMWIE                          00000000
FIFOWM                            00000005
FIFOWMIE                          00000000
FIFOWMIF                          00000000
FIFOWMIP                          00000000
FIL0_0                            00000000
FIL0_1                            00000001
FIL10_0                           00000004
MPASM 5.66              ../QUIZSHOW_MAIN.ASM   3-1-2017  12:21:15         PAGE 110


SYMBOL TABLE
  LABEL                             VALUE 

FIL10_1                           00000005
FIL11_0                           00000006
FIL11_1                           00000007
FIL12_0                           00000000
FIL12_1                           00000001
FIL13_0                           00000002
FIL13_1                           00000003
FIL14_0                           00000004
FIL14_1                           00000005
FIL15_0                           00000006
FIL15_1                           00000007
FIL1_0                            00000002
FIL1_1                            00000003
FIL2_0                            00000004
FIL2_1                            00000005
FIL3_0                            00000006
FIL3_1                            00000007
FIL4_0                            00000000
FIL4_1                            00000001
FIL5_0                            00000002
FIL5_1                            00000003
FIL6_0                            00000004
FIL6_1                            00000005
FIL7_0                            00000006
FIL7_1                            00000007
FIL8_0                            00000000
FIL8_1                            00000001
FIL9_0                            00000002
FIL9_1                            00000003
FILHIT0                           00000000
FILHIT0_TXPRI0                    00000000
FILHIT1                           00000001
FILHIT1_TXPRI1                    00000001
FILHIT2                           00000002
FILHIT2_RTREN                     00000002
FILHIT3                           00000003
FILHIT3_TXREQ                     00000003
FILHIT4                           00000004
FILHIT4_TXERR                     00000004
FLC0                              00000000
FLC1                              00000001
FLC2                              00000002
FLC3                              00000003
FLC4                              00000004
FLT0                              00000000
FP0                               00000000
FP1                               00000001
FP2                               00000002
FP3                               00000003
FREE                              00000004
FRST_RECEIVER_B                   00000004
FRST_RECEIVER_P                   00000F83
FRST_SENDER_B                     00000007
FRST_SENDER_P                     00000F8A
FRST_SIG_A_B                      00000002
FRST_SIG_A_P                      00000F8C
FRST_SIG_B_B                      00000002
FRST_SIG_B_P                      00000F8B
FRST_SIG_C_B                      00000000
FRST_SIG_C_P                      00000F8B
FRST_TRISTATE_TEST                00000000
FSR0                              00000000
FSR0H                             00000FEA
FSR0L                             00000FE9
FSR1                              00000001
FSR1H                             00000FE2
FSR1L                             00000FE1
FSR2                              00000002
FSR2H                             00000FDA
FSR2L                             00000FD9
GCEN                              00000007
GIE                               00000007
GIEH                              00000007
GIEL                              00000006
GIE_GIEH                          00000007
GO                                00000001
GO_DONE                           00000001
GO_NOT_DONE                       00000001
HAS_ACTIVE                        00000000
HAS_FACTORY_RESET                 00000001
MPASM 5.66              ../QUIZSHOW_MAIN.ASM   3-1-2017  12:21:15         PAGE 111


SYMBOL TABLE
  LABEL                             VALUE 

HAS_OPTION                        00000000
HAS_POWER_CTRL                    00000000
HAS_SENSORS                       00000000
HAS_STATUS_LEDS                   00000000
HAS_T_R                           00000001
HLVDCON                           00000FD2
HLVDEN                            00000004
HLVDIE                            00000002
HLVDIF                            00000002
HLVDIN                            00000005
HLVDIP                            00000002
HLVDL0                            00000000
HLVDL1                            00000001
HLVDL2                            00000002
HLVDL3                            00000003
I2C_DAT                           00000005
I2C_READ                          00000002
I2C_START                         00000003
I2C_STOP                          00000004
IBF                               00000007
IBOV                              00000005
ICODE0                            00000000
ICODE1                            00000001
ICODE2                            00000002
ICODE3                            00000003
ICODE4                            00000004
IDLEN                             00000007
INCYC                             00000007
INDF0                             00000FEF
INDF1                             00000FE7
INDF2                             00000FDF
INHIBIT_OUTPUT                    00000002
INT0                              00000000
INT0E                             00000004
INT0F                             00000001
INT0IE                            00000004
INT0IF                            00000001
INT1                              00000001
INT1E                             00000003
INT1F                             00000000
INT1IE                            00000003
INT1IF                            00000000
INT1IP                            00000006
INT1P                             00000006
INT2                              00000002
INT2E                             00000004
INT2F                             00000001
INT2IE                            00000004
INT2IF                            00000001
INT2IP                            00000007
INT2P                             00000007
INTCON                            00000FF2
INTCON2                           00000FF1
INTCON3                           00000FF0
INTEDG0                           00000006
INTEDG1                           00000005
INTEDG2                           00000004
INTSCR                            00000007
INTSRC                            00000007
IOFS                              00000002
IPEN                              00000007
IPR1                              00000F9F
IPR2                              00000FA2
IPR3                              00000FA5
IRCF0                             00000004
IRCF1                             00000005
IRCF2                             00000006
IRVST                             00000005
IRXIE                             00000007
IRXIF                             00000007
IRXIP                             00000007
IVRST                             00000005
JTOFF                             00000001
JTOFF_FILHIT1                     00000001
KBI0                              00000004
KBI1                              00000005
KBI2                              00000006
KBI3                              00000007
LATA                              00000F89
LATA0                             00000000
MPASM 5.66              ../QUIZSHOW_MAIN.ASM   3-1-2017  12:21:15         PAGE 112


SYMBOL TABLE
  LABEL                             VALUE 

LATA1                             00000001
LATA2                             00000002
LATA3                             00000003
LATA4                             00000004
LATA5                             00000005
LATA6                             00000006
LATA7                             00000007
LATB                              00000F8A
LATB0                             00000000
LATB1                             00000001
LATB2                             00000002
LATB3                             00000003
LATB4                             00000004
LATB5                             00000005
LATB6                             00000006
LATB7                             00000007
LATC                              00000F8B
LATC0                             00000000
LATC1                             00000001
LATC2                             00000002
LATC3                             00000003
LATC4                             00000004
LATC5                             00000005
LATC6                             00000006
LATC7                             00000007
LATD                              00000F8C
LATD0                             00000000
LATD1                             00000001
LATD2                             00000002
LATD3                             00000003
LATD4                             00000004
LATD5                             00000005
LATD6                             00000006
LATD7                             00000007
LATE                              00000F8D
LATE0                             00000000
LATE1                             00000001
LATE2                             00000002
LITERAL_ESC                       00000000
LLIM_END_0                        000001A8
LLIM_END_1                        00000294
LLIM_END_10                       0000086A
LLIM_END_11                       000008D8
LLIM_END_12                       000009A8
LLIM_END_13                       00000A94
LLIM_END_14                       00000B56
LLIM_END_15                       00000BD2
LLIM_END_16                       00000C6A
LLIM_END_17                       00000CD8
LLIM_END_18                       00000DA8
LLIM_END_19                       00000E94
LLIM_END_2                        00000356
LLIM_END_20                       00000F56
LLIM_END_21                       00000FD2
LLIM_END_22                       0000106A
LLIM_END_23                       000010D8
LLIM_END_24                       000011A8
LLIM_END_25                       00001294
LLIM_END_26                       00001356
LLIM_END_27                       000013D2
LLIM_END_28                       0000146A
LLIM_END_29                       000014D8
LLIM_END_3                        000003D2
LLIM_END_30                       00001610
LLIM_END_31                       0000166E
LLIM_END_32                       00001720
LLIM_END_33                       0000177E
LLIM_END_34                       00001830
LLIM_END_35                       0000188E
LLIM_END_36                       00001940
LLIM_END_37                       0000199E
LLIM_END_38                       00001A50
LLIM_END_39                       00001AAE
LLIM_END_4                        0000046A
LLIM_END_5                        000004D8
LLIM_END_6                        000005A8
LLIM_END_7                        00000694
LLIM_END_8                        00000756
LLIM_END_9                        000007D2
LLIM_LTN                          00000000
MPASM 5.66              ../QUIZSHOW_MAIN.ASM   3-1-2017  12:21:15         PAGE 113


SYMBOL TABLE
  LABEL                             VALUE 

LLIM_N                            00000028
LLIM_NOT_LOCKED_0                 00000144
LLIM_NOT_LOCKED_1                 00000230
LLIM_NOT_LOCKED_10                0000083E
LLIM_NOT_LOCKED_11                000008AC
LLIM_NOT_LOCKED_12                00000944
LLIM_NOT_LOCKED_13                00000A30
LLIM_NOT_LOCKED_14                00000AF2
LLIM_NOT_LOCKED_15                00000BA6
LLIM_NOT_LOCKED_16                00000C3E
LLIM_NOT_LOCKED_17                00000CAC
LLIM_NOT_LOCKED_18                00000D44
LLIM_NOT_LOCKED_19                00000E30
LLIM_NOT_LOCKED_2                 000002F2
LLIM_NOT_LOCKED_20                00000EF2
LLIM_NOT_LOCKED_21                00000FA6
LLIM_NOT_LOCKED_22                0000103E
LLIM_NOT_LOCKED_23                000010AC
LLIM_NOT_LOCKED_24                00001144
LLIM_NOT_LOCKED_25                00001230
LLIM_NOT_LOCKED_26                000012F2
LLIM_NOT_LOCKED_27                000013A6
LLIM_NOT_LOCKED_28                0000143E
LLIM_NOT_LOCKED_29                000014AC
LLIM_NOT_LOCKED_3                 000003A6
LLIM_NOT_LOCKED_30                000015AC
LLIM_NOT_LOCKED_31                00001642
LLIM_NOT_LOCKED_32                000016BC
LLIM_NOT_LOCKED_33                00001752
LLIM_NOT_LOCKED_34                000017CC
LLIM_NOT_LOCKED_35                00001862
LLIM_NOT_LOCKED_36                000018DC
LLIM_NOT_LOCKED_37                00001972
LLIM_NOT_LOCKED_38                000019EC
LLIM_NOT_LOCKED_39                00001A82
LLIM_NOT_LOCKED_4                 0000043E
LLIM_NOT_LOCKED_5                 000004AC
LLIM_NOT_LOCKED_6                 00000544
LLIM_NOT_LOCKED_7                 00000630
LLIM_NOT_LOCKED_8                 000006F2
LLIM_NOT_LOCKED_9                 000007A6
LLIM_OFF_0                        0000017E
LLIM_OFF_1                        0000026A
LLIM_OFF_10                       0000085C
LLIM_OFF_11                       000008CA
LLIM_OFF_12                       0000097E
LLIM_OFF_13                       00000A6A
LLIM_OFF_14                       00000B2C
LLIM_OFF_15                       00000BC4
LLIM_OFF_16                       00000C5C
LLIM_OFF_17                       00000CCA
LLIM_OFF_18                       00000D7E
LLIM_OFF_19                       00000E6A
LLIM_OFF_2                        0000032C
LLIM_OFF_20                       00000F2C
LLIM_OFF_21                       00000FC4
LLIM_OFF_22                       0000105C
LLIM_OFF_23                       000010CA
LLIM_OFF_24                       0000117E
LLIM_OFF_25                       0000126A
LLIM_OFF_26                       0000132C
LLIM_OFF_27                       000013C4
LLIM_OFF_28                       0000145C
LLIM_OFF_29                       000014CA
LLIM_OFF_3                        000003C4
LLIM_OFF_30                       000015E6
LLIM_OFF_31                       00001660
LLIM_OFF_32                       000016F6
LLIM_OFF_33                       00001770
LLIM_OFF_34                       00001806
LLIM_OFF_35                       00001880
LLIM_OFF_36                       00001916
LLIM_OFF_37                       00001990
LLIM_OFF_38                       00001A26
LLIM_OFF_39                       00001AA0
LLIM_OFF_4                        0000045C
LLIM_OFF_5                        000004CA
LLIM_OFF_6                        0000057E
LLIM_OFF_7                        0000066A
LLIM_OFF_8                        0000072C
MPASM 5.66              ../QUIZSHOW_MAIN.ASM   3-1-2017  12:21:15         PAGE 114


SYMBOL TABLE
  LABEL                             VALUE 

LLIM_OFF_9                        000007C4
LOCAL_LIGHT_INDICATOR             
LUMOS_ARCH                        LUMOS_ARCH_4685
LUMOS_ARCH_14K50                  (0x1450)
LUMOS_ARCH_4685                   (0x4685)
LUMOS_CHIP_4CHANNEL               0x44
LUMOS_CHIP_MASTER                 0x41
LUMOS_CHIP_QSCC                   0x45
LUMOS_CHIP_QSRC                   0x46
LUMOS_CHIP_SLAVE                  0x42
LUMOS_CHIP_STANDALONE             0x43
LUMOS_CHIP_TYPE                   LUMOS_CHIP_QSRC
LUMOS_CONFIG_INC                  
LUMOS_INTERNAL                    0x58
LUMOS_SET_SSR_INC                 
LUMOS_SLICE_TIMER                 LUMOS_INTERNAL
LUMOS_ZC                          0x55
LVDCON                            00000FD2
LVDEN                             00000004
LVDIE                             00000002
LVDIF                             00000002
LVDIN                             00000005
LVDIP                             00000002
LVDL0                             00000000
LVDL1                             00000001
LVDL2                             00000002
LVDL3                             00000003
LVV0                              00000000
LVV1                              00000001
LVV2                              00000002
LVV3                              00000003
MAIN_DATA                         00000500
MAX_OFF_TIME                      00000004
MDSEL0                            00000006
MDSEL1                            00000007
MSB_ESC                           00000001
MSEL0                             00000DF0
MSEL1                             00000DF1
MSEL2                             00000DF2
MSEL3                             00000DF3
N                                 00000004
NOT_A                             00000005
NOT_ADDRESS                       00000005
NOT_BOR                           00000000
NOT_CS                            00000002
NOT_DONE                          00000001
NOT_FIFOEMPTY                     00000007
NOT_PD                            00000002
NOT_POR                           00000001
NOT_RBPU                          00000007
NOT_RD                            00000000
NOT_RI                            00000004
NOT_SS                            00000005
NOT_T1SYNC                        00000002
NOT_T3SYNC                        00000002
NOT_TO                            00000003
NOT_W                             00000002
NOT_WR                            00000001
NOT_WRITE                         00000002
NUM_CHANNELS                      (.20)
N_BUTTONS                         0000000A
OBF                               00000006
OERR                              00000001
OPMODE0                           00000005
OPMODE1                           00000006
OPMODE2                           00000007
OSC1                              00000007
OSC2                              00000006
OSCCON                            00000FD3
OSCFIE                            00000007
OSCFIF                            00000007
OSCFIP                            00000007
OSCTUNE                           00000F9B
OSTS                              00000003
OV                                00000003
P                                 00000004
P1A                               00000004
P1B                               00000005
P1C                               00000006
P1D                               00000007
MPASM 5.66              ../QUIZSHOW_MAIN.ASM   3-1-2017  12:21:15         PAGE 115


SYMBOL TABLE
  LABEL                             VALUE 

PC                                00000FF9
PCFG0                             00000000
PCFG1                             00000001
PCFG2                             00000002
PCFG3                             00000003
PCL                               00000FF9
PCLATH                            00000FFA
PCLATU                            00000FFB
PD                                00000002
PDC0                              00000000
PDC1                              00000001
PDC2                              00000002
PDC3                              00000003
PDC4                              00000004
PDC5                              00000005
PDC6                              00000006
PEIE                              00000006
PEIE_GIEL                         00000006
PEN                               00000002
PGC                               00000006
PGD                               00000007
PGM                               00000005
PIE1                              00000F9D
PIE2                              00000FA0
PIE3                              00000FA3
PIR1                              00000F9E
PIR2                              00000FA1
PIR3                              00000FA4
PLAT_0                            00000F8B
PLAT_1                            00000F8B
PLAT_10                           00000F8A
PLAT_11                           00000F8D
PLAT_12                           00000F8C
PLAT_13                           00000F8C
PLAT_14                           00000F8C
PLAT_15                           00000F8D
PLAT_16                           00000F8A
PLAT_17                           00000F8C
PLAT_18                           00000F8C
PLAT_19                           00000F8C
PLAT_2                            00000F8B
PLAT_3                            00000F8D
PLAT_4                            00000F8A
PLAT_5                            00000F8A
PLAT_6                            00000F8A
PLAT_7                            00000F8A
PLAT_8                            00000F8A
PLAT_9                            00000F8A
PLAT_T_R                          00000F8B
PLLEN                             00000006
PLUSW0                            00000FEB
PLUSW1                            00000FE3
PLUSW2                            00000FDB
POR                               00000001
PORTA                             00000F80
PORTB                             00000F81
PORTC                             00000F82
PORTD                             00000F83
PORTE                             00000F84
PORT_L0                           00000F80
PORT_L1                           00000F80
PORT_L2                           00000F80
PORT_L3                           00000F83
PORT_L4                           00000F82
PORT_RX                           00000F82
PORT_T_R                          00000F82
PORT_X0                           00000F80
PORT_X1                           00000F80
PORT_X2                           00000F80
PORT_X3                           00000F82
PORT_X4                           00000F83
POSTDEC0                          00000FED
POSTDEC1                          00000FE5
POSTDEC2                          00000FDD
POSTINC0                          00000FEE
POSTINC1                          00000FE6
POSTINC2                          00000FDE
PR2                               00000FCB
PRECYC                            00000006
PREINC0                           00000FEC
MPASM 5.66              ../QUIZSHOW_MAIN.ASM   3-1-2017  12:21:15         PAGE 116


SYMBOL TABLE
  LABEL                             VALUE 

PREINC1                           00000FE4
PREINC2                           00000FDC
PRE_PRIV                          00000001
PRIV_FORBID                       00000003
PRIV_MODE                         00000004
PROD                              00000FF3
PRODH                             00000FF4
PRODL                             00000FF3
PRSEG0                            00000000
PRSEG1                            00000001
PRSEG2                            00000002
PRSEN                             00000007
PSA                               00000003
PSP0                              00000000
PSP1                              00000001
PSP2                              00000002
PSP3                              00000003
PSP4                              00000004
PSP5                              00000005
PSP6                              00000006
PSP7                              00000007
PSPIE                             00000007
PSPIF                             00000007
PSPIP                             00000007
PSPMODE                           00000004
PSSAC0                            00000002
PSSAC1                            00000003
PSSBD0                            00000000
PSSBD1                            00000001
QSCC_BITS_INC                     
QSCC_CMD5_START                   000014DE
QSCC_MAIN                         000000CE
QSCC_PORT                         (1)
QSCC_SENS_END                     000000B8
QSCC_START                        00000000
QS_BTN_TMR_T                      00000000
QS_BTN_TMR_U                      00000000
QS_FLAG_DOING120                  00000002
QS_FLAG_ON_120_S                  00000001
QS_FLAG_SCANNING                  00000000
QS_SENS_CONF                      00000028
QS_SENS_MASK                      0000003F
QS_SENS_PORT                      00000F80
QS_SENS_STAND                     00000006
QS_STOP_SCANNER                   00001AB2
QUIZSHOW_DATA                     00000C00
QUIZSHOW_FLAGS                    00000000
QUIZSHOW_LCKTM                    00000C46
R                                 00000002
RA0                               00000000
RA1                               00000001
RA2                               00000002
RA3                               00000003
RA4                               00000004
RA5                               00000005
RA6                               00000006
RA7                               00000007
RB0_B0DLC                         00000004
RB0_B1DLC                         00000004
RB0_B2DLC                         00000004
RB0_B3DLC                         00000004
RB0_B4DLC                         00000004
RB0_B5DLC                         00000004
RB0_DDRB                          00000000
RB0_PORTB                         00000000
RB0_RXB0DLC                       00000004
RB0_RXB1DLC                       00000004
RB0_TRISB                         00000000
RB1_B0DLC                         00000005
RB1_B1DLC                         00000005
RB1_B2DLC                         00000005
RB1_B3DLC                         00000005
RB1_B4DLC                         00000005
RB1_B5DLC                         00000005
RB1_DDRB                          00000001
RB1_PORTB                         00000001
RB1_RXB0DLC                       00000005
RB1_RXB1DLC                       00000005
RB1_TRISB                         00000001
RB2                               00000002
MPASM 5.66              ../QUIZSHOW_MAIN.ASM   3-1-2017  12:21:15         PAGE 117


SYMBOL TABLE
  LABEL                             VALUE 

RB3                               00000003
RB4                               00000004
RB5                               00000005
RB6                               00000006
RB7                               00000007
RBIE                              00000003
RBIF                              00000000
RBIP                              00000000
RBPU                              00000007
RC0                               00000000
RC1                               00000001
RC2                               00000002
RC3                               00000003
RC4                               00000004
RC5                               00000005
RC6                               00000006
RC7                               00000007
RCEN                              00000003
RCIDL                             00000006
RCIE                              00000005
RCIF                              00000005
RCIP                              00000005
RCON                              00000FD0
RCREG                             00000FAE
RCSTA                             00000FAB
RD                                00000000
RD0                               00000000
RD1                               00000001
RD16                              00000007
RD2                               00000002
RD3                               00000003
RD4                               00000004
RD5                               00000005
RD6                               00000006
RD7                               00000007
RE0                               00000000
RE1                               00000001
RE2                               00000002
RE3                               00000003
READ_WRITE                        00000002
REC0                              00000000
REC1                              00000001
REC2                              00000002
REC3                              00000003
REC4                              00000004
REC5                              00000005
REC6                              00000006
REC7                              00000007
REQOP0                            00000005
REQOP1                            00000006
REQOP2                            00000007
RESRB0                            00000004
RESRB1                            00000005
RI                                00000004
ROLE_MASTER                       (0)
ROLE_SLAVE                        (0)
ROLE_STANDALONE                   (1)
RSEN                              00000001
RTREN                             00000002
RTRRO                             00000005
RX                                00000007
RX9                               00000006
RX9D                              00000000
RXB0CON                           00000F60
RXB0D0                            00000F66
RXB0D00                           00000000
RXB0D01                           00000001
RXB0D02                           00000002
RXB0D03                           00000003
RXB0D04                           00000004
RXB0D05                           00000005
RXB0D06                           00000006
RXB0D07                           00000007
RXB0D1                            00000F67
RXB0D10                           00000000
RXB0D11                           00000001
RXB0D12                           00000002
RXB0D13                           00000003
RXB0D14                           00000004
RXB0D15                           00000005
MPASM 5.66              ../QUIZSHOW_MAIN.ASM   3-1-2017  12:21:15         PAGE 118


SYMBOL TABLE
  LABEL                             VALUE 

RXB0D16                           00000006
RXB0D17                           00000007
RXB0D2                            00000F68
RXB0D20                           00000000
RXB0D21                           00000001
RXB0D22                           00000002
RXB0D23                           00000003
RXB0D24                           00000004
RXB0D25                           00000005
RXB0D26                           00000006
RXB0D27                           00000007
RXB0D3                            00000F69
RXB0D30                           00000000
RXB0D31                           00000001
RXB0D32                           00000002
RXB0D33                           00000003
RXB0D34                           00000004
RXB0D35                           00000005
RXB0D36                           00000006
RXB0D37                           00000007
RXB0D4                            00000F6A
RXB0D40                           00000000
RXB0D41                           00000001
RXB0D42                           00000002
RXB0D43                           00000003
RXB0D44                           00000004
RXB0D45                           00000005
RXB0D46                           00000006
RXB0D47                           00000007
RXB0D5                            00000F6B
RXB0D50                           00000000
RXB0D51                           00000001
RXB0D52                           00000002
RXB0D53                           00000003
RXB0D54                           00000004
RXB0D55                           00000005
RXB0D56                           00000006
RXB0D57                           00000007
RXB0D6                            00000F6C
RXB0D60                           00000000
RXB0D61                           00000001
RXB0D62                           00000002
RXB0D63                           00000003
RXB0D64                           00000004
RXB0D65                           00000005
RXB0D66                           00000006
RXB0D67                           00000007
RXB0D7                            00000F6D
RXB0D70                           00000000
RXB0D71                           00000001
RXB0D72                           00000002
RXB0D73                           00000003
RXB0D74                           00000004
RXB0D75                           00000005
RXB0D76                           00000006
RXB0D77                           00000007
RXB0DBEN                          00000002
RXB0DBEN_FILHIT2                  00000002
RXB0DLC                           00000F65
RXB0EIDH                          00000F63
RXB0EIDL                          00000F64
RXB0IE                            00000000
RXB0IF                            00000000
RXB0IP                            00000000
RXB0OVFL                          00000007
RXB0OVFL_NOT_FIFOEMPTY            00000007
RXB0SIDH                          00000F61
RXB0SIDL                          00000F62
RXB1CON                           00000F50
RXB1D0                            00000F56
RXB1D00                           00000000
RXB1D01                           00000001
RXB1D02                           00000002
RXB1D03                           00000003
RXB1D04                           00000004
RXB1D05                           00000005
RXB1D06                           00000006
RXB1D07                           00000007
RXB1D1                            00000F57
RXB1D10                           00000000
MPASM 5.66              ../QUIZSHOW_MAIN.ASM   3-1-2017  12:21:15         PAGE 119


SYMBOL TABLE
  LABEL                             VALUE 

RXB1D11                           00000001
RXB1D12                           00000002
RXB1D13                           00000003
RXB1D14                           00000004
RXB1D15                           00000005
RXB1D16                           00000006
RXB1D17                           00000007
RXB1D2                            00000F58
RXB1D20                           00000000
RXB1D21                           00000001
RXB1D22                           00000002
RXB1D23                           00000003
RXB1D24                           00000004
RXB1D25                           00000005
RXB1D26                           00000006
RXB1D27                           00000007
RXB1D3                            00000F59
RXB1D30                           00000000
RXB1D31                           00000001
RXB1D32                           00000002
RXB1D33                           00000003
RXB1D34                           00000004
RXB1D35                           00000005
RXB1D36                           00000006
RXB1D37                           00000007
RXB1D4                            00000F5A
RXB1D40                           00000000
RXB1D41                           00000001
RXB1D42                           00000002
RXB1D43                           00000003
RXB1D44                           00000004
RXB1D45                           00000005
RXB1D46                           00000006
RXB1D47                           00000007
RXB1D5                            00000F5B
RXB1D50                           00000000
RXB1D51                           00000001
RXB1D52                           00000002
RXB1D53                           00000003
RXB1D54                           00000004
RXB1D55                           00000005
RXB1D56                           00000006
RXB1D57                           00000007
RXB1D6                            00000F5C
RXB1D60                           00000000
RXB1D61                           00000001
RXB1D62                           00000002
RXB1D63                           00000003
RXB1D64                           00000004
RXB1D65                           00000005
RXB1D66                           00000006
RXB1D67                           00000007
RXB1D7                            00000F5D
RXB1D70                           00000000
RXB1D71                           00000001
RXB1D72                           00000002
RXB1D73                           00000003
RXB1D74                           00000004
RXB1D75                           00000005
RXB1D76                           00000006
RXB1D77                           00000007
RXB1DLC                           00000F55
RXB1EIDH                          00000F53
RXB1EIDL                          00000F54
RXB1IE                            00000001
RXB1IF                            00000001
RXB1IP                            00000001
RXB1OVFL                          00000006
RXB1SIDH                          00000F51
RXB1SIDL                          00000F52
RXBODBEN                          00000002
RXBP                              00000003
RXBnIE                            00000001
RXBnIF                            00000001
RXBnIP                            00000001
RXBnOVFL                          00000006
RXERRCNT                          00000F75
RXF0EIDH                          00000F02
RXF0EIDL                          00000F03
RXF0EN                            00000000
MPASM 5.66              ../QUIZSHOW_MAIN.ASM   3-1-2017  12:21:15         PAGE 120


SYMBOL TABLE
  LABEL                             VALUE 

RXF0SIDH                          00000F00
RXF0SIDL                          00000F01
RXF10EIDH                         00000D76
RXF10EIDL                         00000D77
RXF10EN                           00000002
RXF10SIDH                         00000D74
RXF10SIDL                         00000D75
RXF11EIDH                         00000D7A
RXF11EIDL                         00000D7B
RXF11EN                           00000003
RXF11SIDH                         00000D78
RXF11SIDL                         00000D79
RXF12EIDH                         00000D82
RXF12EIDL                         00000D83
RXF12EN                           00000004
RXF12SIDH                         00000D80
RXF12SIDL                         00000D81
RXF13EIDH                         00000D86
RXF13EIDL                         00000D87
RXF13EN                           00000005
RXF13SIDH                         00000D84
RXF13SIDL                         00000D85
RXF14EIDH                         00000D8A
RXF14EIDL                         00000D8B
RXF14EN                           00000006
RXF14SIDH                         00000D88
RXF14SIDL                         00000D89
RXF15EIDH                         00000D92
RXF15EIDL                         00000D93
RXF15EN                           00000007
RXF15SIDH                         00000D90
RXF15SIDL                         00000D91
RXF1EIDH                          00000F06
RXF1EIDL                          00000F07
RXF1EN                            00000001
RXF1SIDH                          00000F04
RXF1SIDL                          00000F05
RXF2EIDH                          00000F0A
RXF2EIDL                          00000F0B
RXF2EN                            00000002
RXF2SIDH                          00000F08
RXF2SIDL                          00000F09
RXF3EIDH                          00000F0E
RXF3EIDL                          00000F0F
RXF3EN                            00000003
RXF3SIDH                          00000F0C
RXF3SIDL                          00000F0D
RXF4EIDH                          00000F12
RXF4EIDL                          00000F13
RXF4EN                            00000004
RXF4SIDH                          00000F10
RXF4SIDL                          00000F11
RXF5EIDH                          00000F16
RXF5EIDL                          00000F17
RXF5EN                            00000005
RXF5SIDH                          00000F14
RXF5SIDL                          00000F15
RXF6EIDH                          00000D62
RXF6EIDL                          00000D63
RXF6EN                            00000006
RXF6SIDH                          00000D60
RXF6SIDL                          00000D61
RXF7EIDH                          00000D66
RXF7EIDL                          00000D67
RXF7EN                            00000007
RXF7SIDH                          00000D64
RXF7SIDL                          00000D65
RXF8EIDH                          00000D6A
RXF8EIDL                          00000D6B
RXF8EN                            00000000
RXF8SIDH                          00000D68
RXF8SIDL                          00000D69
RXF9EIDH                          00000D72
RXF9EIDL                          00000D73
RXF9EN                            00000001
RXF9SIDH                          00000D70
RXF9SIDL                          00000D71
RXFBCON0                          00000DE0
RXFBCON1                          00000DE1
RXFBCON2                          00000DE2
MPASM 5.66              ../QUIZSHOW_MAIN.ASM   3-1-2017  12:21:15         PAGE 121


SYMBOL TABLE
  LABEL                             VALUE 

RXFBCON3                          00000DE3
RXFBCON4                          00000DE4
RXFBCON5                          00000DE5
RXFBCON6                          00000DE6
RXFBCON7                          00000DE7
RXFCON0                           00000DD4
RXFCON1                           00000DD5
RXFUL                             00000007
RXFUL_TXBIF                       00000007
RXM0                              00000005
RXM0EIDH                          00000F1A
RXM0EIDL                          00000F1B
RXM0SIDH                          00000F18
RXM0SIDL                          00000F19
RXM0_RTRRO                        00000005
RXM1                              00000006
RXM1EIDH                          00000F1E
RXM1EIDL                          00000F1F
RXM1SIDH                          00000F1C
RXM1SIDL                          00000F1D
RXM1_TXABT                        00000006
RXRTR                             00000006
RXRTRRO_B0CON                     00000005
RXRTRRO_B1CON                     00000005
RXRTRRO_B2CON                     00000005
RXRTRRO_B3CON                     00000005
RXRTRRO_B4CON                     00000005
RXRTRRO_B5CON                     00000005
RXRTRRO_FILHIT3                   00000003
RXRTRRO_RXB0CON                   00000003
RXRTRRO_RXB1CON                   00000003
RXRTRRO_TXLARB                    00000005
RXRTR_TXRTR                       00000006
RXWARN                            00000001
R_NOT_W                           00000002
R_W                               00000002
S                                 00000003
SAM                               00000006
SBOREN                            00000006
SCAN_DEBOUNCE                     
SCAN_DEBOUNCERS                   000000DA
SCK                               00000003
SCKP                              00000004
SCL                               00000003
SCN_DBN                           0000000A
SCN_DB_DONE_0                     00000296
SCN_DB_DONE_1                     0000046C
SCN_DB_DONE_2                     00000696
SCN_DB_DONE_3                     0000086C
SCN_DB_DONE_4                     00000A96
SCN_DB_DONE_5                     00000C6C
SCN_DB_DONE_6                     00000E96
SCN_DB_DONE_7                     0000106C
SCN_DB_DONE_8                     00001296
SCN_DB_DONE_9                     0000146C
SCN_DB_DOWN_0                     000001AC
SCN_DB_DOWN_1                     000003D6
SCN_DB_DOWN_2                     000005AC
SCN_DB_DOWN_3                     000007D6
SCN_DB_DOWN_4                     000009AC
SCN_DB_DOWN_5                     00000BD6
SCN_DB_DOWN_6                     00000DAC
SCN_DB_DOWN_7                     00000FD6
SCN_DB_DOWN_8                     000011AC
SCN_DB_DOWN_9                     000013D6
SCN_DB_DRAIN_0                    000000EA
SCN_DB_DRAIN_1                    00000368
SCN_DB_DRAIN_2                    000004EA
SCN_DB_DRAIN_3                    00000768
SCN_DB_DRAIN_4                    000008EA
SCN_DB_DRAIN_5                    00000B68
SCN_DB_DRAIN_6                    00000CEA
SCN_DB_DRAIN_7                    00000F68
SCN_DB_DRAIN_8                    000010EA
SCN_DB_DRAIN_9                    00001368
SCN_DB_END_0                      00000358
SCN_DB_END_1                      000004DA
SCN_DB_END_2                      00000758
SCN_DB_END_3                      000008DA
SCN_DB_END_4                      00000B58
MPASM 5.66              ../QUIZSHOW_MAIN.ASM   3-1-2017  12:21:15         PAGE 122


SYMBOL TABLE
  LABEL                             VALUE 

SCN_DB_END_5                      00000CDA
SCN_DB_END_6                      00000F58
SCN_DB_END_7                      000010DA
SCN_DB_END_8                      00001358
SCN_DB_END_9                      000014DA
SCN_DB_RST_LCK_0                  000000F0
SCN_DB_RST_LCK_1                  0000036E
SCN_DB_RST_LCK_2                  000004F0
SCN_DB_RST_LCK_3                  0000076E
SCN_DB_RST_LCK_4                  000008F0
SCN_DB_RST_LCK_5                  00000B6E
SCN_DB_RST_LCK_6                  00000CF0
SCN_DB_RST_LCK_7                  00000F6E
SCN_DB_RST_LCK_8                  000010F0
SCN_DB_RST_LCK_9                  0000136E
SCS0                              00000000
SCS1                              00000001
SDA                               00000004
SDFLC                             00000DD8
SDI                               00000004
SDO                               00000005
SEG1PH0                           00000003
SEG1PH1                           00000004
SEG1PH2                           00000005
SEG2PH0                           00000000
SEG2PH1                           00000001
SEG2PH2                           00000002
SEG2PHT                           00000007
SEG2PHTS                          00000007
SEN                               00000000
SENDB                             00000003
SET_ALL_BUTTON_LIGHTS             0000155C
SET_SSR_BLINK_FADE                
SET_SSR_DMX_MODE                  
SET_SSR_NORMAL_MODE               
SET_SSR_OFF                       
SET_SSR_PATTERN                   
SET_SSR_RAPID_FADE                
SET_SSR_RAPID_FLASH               
SET_SSR_SLOW_FADE                 
SET_SSR_SLOW_FLASH                
SET_SSR_STEADY                    
SET_SSR_VALUE                     
SID0                              00000005
SID1                              00000006
SID10                             00000007
SID2                              00000007
SID3                              00000000
SID4                              00000001
SID5                              00000002
SID6                              00000003
SID7                              00000004
SID8                              00000005
SID9                              00000006
SJW0                              00000006
SJW1                              00000007
SLEEP_MODE                        00000003
SLICE_UPD                         00000005
SMP                               00000007
SP0                               00000000
SP1                               00000001
SP2                               00000002
SP3                               00000003
SP4                               00000004
SPBRG                             00000FAF
SPBRGH                            00000FB0
SPEN                              00000007
SREN                              00000005
SRR                               00000004
SS                                00000005
SSPADD                            00000FC8
SSPBUF                            00000FC9
SSPCON1                           00000FC6
SSPCON2                           00000FC5
SSPEN                             00000005
SSPIE                             00000003
SSPIF                             00000003
SSPIP                             00000003
SSPM0                             00000000
SSPM1                             00000001
MPASM 5.66              ../QUIZSHOW_MAIN.ASM   3-1-2017  12:21:15         PAGE 123


SYMBOL TABLE
  LABEL                             VALUE 

SSPM2                             00000002
SSPM3                             00000003
SSPOV                             00000006
SSPSTAT                           00000FC7
SSR_00_COUNTER                    00000000
SSR_00_FLAGS                      00000000
SSR_00_SPEED                      00000000
SSR_00_STEP                       00000000
SSR_00_VALUE                      00000000
SSR_DATA_BANK                     00000400
SSR_MAX                           00000013
SSR_STATE                         00000000
STATUS                            00000FD8
STKFUL                            00000007
STKOVF                            00000007
STKPTR                            00000FFC
STKPTR0                           00000000
STKPTR1                           00000001
STKPTR2                           00000002
STKPTR3                           00000003
STKPTR4                           00000004
STKUNF                            00000006
SWDTE                             00000000
SWDTEN                            00000000
SYNC                              00000004
T08BIT                            00000006
T0CKI                             00000004
T0CON                             00000FD5
T0CS                              00000005
T0IE                              00000005
T0IF                              00000002
T0IP                              00000002
T0PS0                             00000000
T0PS1                             00000001
T0PS2                             00000002
T0PS3                             00000003
T0SE                              00000004
T13CKI                            00000000
T1CKPS0                           00000004
T1CKPS1                           00000005
T1CON                             00000FCD
T1INSYNC                          00000002
T1OSCEN                           00000003
T1OSI                             00000001
T1OSO                             00000000
T1RUN                             00000006
T1SYNC                            00000002
T2CKPS0                           00000000
T2CKPS1                           00000001
T2CON                             00000FCA
T2OUTPS0                          00000003
T2OUTPS1                          00000004
T2OUTPS2                          00000005
T2OUTPS3                          00000006
T3CCP1                            00000003
T3CCP2                            00000006
T3CKPS0                           00000004
T3CKPS1                           00000005
T3CON                             00000FB1
T3ECCP1                           00000006
T3NSYNC                           00000002
T3SYNC                            00000002
TABLAT                            00000FF5
TBLPTR                            00000FF6
TBLPTRH                           00000FF7
TBLPTRL                           00000FF6
TBLPTRU                           00000FF8
TEC0                              00000000
TEC1                              00000001
TEC2                              00000002
TEC3                              00000003
TEC4                              00000004
TEC5                              00000005
TEC6                              00000006
TEC7                              00000007
TEST_BUTTON                       00000005
TEST_MODE                         00000000
TEST_PAUSE                        00000007
TEST_UPD                          00000006
TMR0                              00000FD6
MPASM 5.66              ../QUIZSHOW_MAIN.ASM   3-1-2017  12:21:15         PAGE 124


SYMBOL TABLE
  LABEL                             VALUE 

TMR0H                             00000FD7
TMR0IE                            00000005
TMR0IF                            00000002
TMR0IP                            00000002
TMR0L                             00000FD6
TMR0ON                            00000007
TMR1                              00000FCE
TMR1CS                            00000001
TMR1H                             00000FCF
TMR1IE                            00000000
TMR1IF                            00000000
TMR1IP                            00000000
TMR1L                             00000FCE
TMR1ON                            00000000
TMR2                              00000FCC
TMR2IE                            00000001
TMR2IF                            00000001
TMR2IP                            00000001
TMR2ON                            00000002
TMR3                              00000FB2
TMR3CS                            00000001
TMR3H                             00000FB3
TMR3IE                            00000001
TMR3IF                            00000001
TMR3IP                            00000001
TMR3L                             00000FB2
TMR3ON                            00000000
TO                                00000003
TOS                               00000FFD
TOSH                              00000FFE
TOSL                              00000FFD
TOSU                              00000FFF
TRISA                             00000F92
TRISA0                            00000000
TRISA1                            00000001
TRISA2                            00000002
TRISA3                            00000003
TRISA4                            00000004
TRISA5                            00000005
TRISA6                            00000006
TRISA7                            00000007
TRISB                             00000F93
TRISB0                            00000000
TRISB1                            00000001
TRISB2                            00000002
TRISB3                            00000003
TRISB4                            00000004
TRISB5                            00000005
TRISB6                            00000006
TRISB7                            00000007
TRISC                             00000F94
TRISC0                            00000000
TRISC1                            00000001
TRISC2                            00000002
TRISC3                            00000003
TRISC4                            00000004
TRISC5                            00000005
TRISC6                            00000006
TRISC7                            00000007
TRISD                             00000F95
TRISD0                            00000000
TRISD1                            00000001
TRISD2                            00000002
TRISD3                            00000003
TRISD4                            00000004
TRISD5                            00000005
TRISD6                            00000006
TRISD7                            00000007
TRISE                             00000F96
TRISE0                            00000000
TRISE1                            00000001
TRISE2                            00000002
TRIS_T_R                          00000F94
TRMT                              00000001
TUN0                              00000000
TUN1                              00000001
TUN2                              00000002
TUN3                              00000003
TUN4                              00000004
TX                                00000006
MPASM 5.66              ../QUIZSHOW_MAIN.ASM   3-1-2017  12:21:15         PAGE 125


SYMBOL TABLE
  LABEL                             VALUE 

TX9                               00000006
TX9D                              00000000
TXABT                             00000006
TXB0CON                           00000F40
TXB0D0                            00000F46
TXB0D00                           00000000
TXB0D01                           00000001
TXB0D02                           00000002
TXB0D03                           00000003
TXB0D04                           00000004
TXB0D05                           00000005
TXB0D06                           00000006
TXB0D07                           00000007
TXB0D1                            00000F47
TXB0D10                           00000000
TXB0D11                           00000001
TXB0D12                           00000002
TXB0D13                           00000003
TXB0D14                           00000004
TXB0D15                           00000005
TXB0D16                           00000006
TXB0D17                           00000007
TXB0D2                            00000F48
TXB0D20                           00000000
TXB0D21                           00000001
TXB0D22                           00000002
TXB0D23                           00000003
TXB0D24                           00000004
TXB0D25                           00000005
TXB0D26                           00000006
TXB0D27                           00000007
TXB0D3                            00000F49
TXB0D30                           00000000
TXB0D31                           00000001
TXB0D32                           00000002
TXB0D33                           00000003
TXB0D34                           00000004
TXB0D35                           00000005
TXB0D36                           00000006
TXB0D37                           00000007
TXB0D4                            00000F4A
TXB0D40                           00000000
TXB0D41                           00000001
TXB0D42                           00000002
TXB0D43                           00000003
TXB0D44                           00000004
TXB0D45                           00000005
TXB0D46                           00000006
TXB0D47                           00000007
TXB0D5                            00000F4B
TXB0D50                           00000000
TXB0D51                           00000001
TXB0D52                           00000002
TXB0D53                           00000003
TXB0D54                           00000004
TXB0D55                           00000005
TXB0D56                           00000006
TXB0D57                           00000007
TXB0D6                            00000F4C
TXB0D60                           00000000
TXB0D61                           00000001
TXB0D62                           00000002
TXB0D63                           00000003
TXB0D64                           00000004
TXB0D65                           00000005
TXB0D66                           00000006
TXB0D67                           00000007
TXB0D7                            00000F4D
TXB0D70                           00000000
TXB0D71                           00000001
TXB0D72                           00000002
TXB0D73                           00000003
TXB0D74                           00000004
TXB0D75                           00000005
TXB0D76                           00000006
TXB0D77                           00000007
TXB0DLC                           00000F45
TXB0EIDH                          00000F43
TXB0EIDL                          00000F44
TXB0IE                            00000002
MPASM 5.66              ../QUIZSHOW_MAIN.ASM   3-1-2017  12:21:15         PAGE 126


SYMBOL TABLE
  LABEL                             VALUE 

TXB0IF                            00000002
TXB0IP                            00000002
TXB0SIDH                          00000F41
TXB0SIDL                          00000F42
TXB1CON                           00000F30
TXB1D0                            00000F36
TXB1D00                           00000000
TXB1D01                           00000001
TXB1D02                           00000002
TXB1D03                           00000003
TXB1D04                           00000004
TXB1D05                           00000005
TXB1D06                           00000006
TXB1D07                           00000007
TXB1D1                            00000F37
TXB1D10                           00000000
TXB1D11                           00000001
TXB1D12                           00000002
TXB1D13                           00000003
TXB1D14                           00000004
TXB1D15                           00000005
TXB1D16                           00000006
TXB1D17                           00000007
TXB1D2                            00000F38
TXB1D20                           00000000
TXB1D21                           00000001
TXB1D22                           00000002
TXB1D23                           00000003
TXB1D24                           00000004
TXB1D25                           00000005
TXB1D26                           00000006
TXB1D27                           00000007
TXB1D3                            00000F39
TXB1D30                           00000000
TXB1D31                           00000001
TXB1D32                           00000002
TXB1D33                           00000003
TXB1D34                           00000004
TXB1D35                           00000005
TXB1D36                           00000006
TXB1D37                           00000007
TXB1D4                            00000F3A
TXB1D40                           00000000
TXB1D41                           00000001
TXB1D42                           00000002
TXB1D43                           00000003
TXB1D44                           00000004
TXB1D45                           00000005
TXB1D46                           00000006
TXB1D47                           00000007
TXB1D5                            00000F3B
TXB1D50                           00000000
TXB1D51                           00000001
TXB1D52                           00000002
TXB1D53                           00000003
TXB1D54                           00000004
TXB1D55                           00000005
TXB1D56                           00000006
TXB1D57                           00000007
TXB1D6                            00000F3C
TXB1D60                           00000000
TXB1D61                           00000001
TXB1D62                           00000002
TXB1D63                           00000003
TXB1D64                           00000004
TXB1D65                           00000005
TXB1D66                           00000006
TXB1D67                           00000007
TXB1D7                            00000F3D
TXB1D70                           00000000
TXB1D71                           00000001
TXB1D72                           00000002
TXB1D73                           00000003
TXB1D74                           00000004
TXB1D75                           00000005
TXB1D76                           00000006
TXB1D77                           00000007
TXB1DLC                           00000F35
TXB1EIDH                          00000F33
TXB1EIDL                          00000F34
MPASM 5.66              ../QUIZSHOW_MAIN.ASM   3-1-2017  12:21:15         PAGE 127


SYMBOL TABLE
  LABEL                             VALUE 

TXB1IE                            00000003
TXB1IF                            00000003
TXB1IP                            00000003
TXB1SIDH                          00000F31
TXB1SIDL                          00000F32
TXB2CON                           00000F20
TXB2D0                            00000F26
TXB2D00                           00000000
TXB2D01                           00000001
TXB2D02                           00000002
TXB2D03                           00000003
TXB2D04                           00000004
TXB2D05                           00000005
TXB2D06                           00000006
TXB2D07                           00000007
TXB2D1                            00000F27
TXB2D10                           00000000
TXB2D11                           00000001
TXB2D12                           00000002
TXB2D13                           00000003
TXB2D14                           00000004
TXB2D15                           00000005
TXB2D16                           00000006
TXB2D17                           00000007
TXB2D2                            00000F28
TXB2D20                           00000000
TXB2D21                           00000001
TXB2D22                           00000002
TXB2D23                           00000003
TXB2D24                           00000004
TXB2D25                           00000005
TXB2D26                           00000006
TXB2D27                           00000007
TXB2D3                            00000F29
TXB2D30                           00000000
TXB2D31                           00000001
TXB2D32                           00000002
TXB2D33                           00000003
TXB2D34                           00000004
TXB2D35                           00000005
TXB2D36                           00000006
TXB2D37                           00000007
TXB2D4                            00000F2A
TXB2D40                           00000000
TXB2D41                           00000001
TXB2D42                           00000002
TXB2D43                           00000003
TXB2D44                           00000004
TXB2D45                           00000005
TXB2D46                           00000006
TXB2D47                           00000007
TXB2D5                            00000F2B
TXB2D50                           00000000
TXB2D51                           00000001
TXB2D52                           00000002
TXB2D53                           00000003
TXB2D54                           00000004
TXB2D55                           00000005
TXB2D56                           00000006
TXB2D57                           00000007
TXB2D6                            00000F2C
TXB2D60                           00000000
TXB2D61                           00000001
TXB2D62                           00000002
TXB2D63                           00000003
TXB2D64                           00000004
TXB2D65                           00000005
TXB2D66                           00000006
TXB2D67                           00000007
TXB2D7                            00000F2D
TXB2D70                           00000000
TXB2D71                           00000001
TXB2D72                           00000002
TXB2D73                           00000003
TXB2D74                           00000004
TXB2D75                           00000005
TXB2D76                           00000006
TXB2D77                           00000007
TXB2DLC                           00000F25
TXB2EIDH                          00000F23
MPASM 5.66              ../QUIZSHOW_MAIN.ASM   3-1-2017  12:21:15         PAGE 128


SYMBOL TABLE
  LABEL                             VALUE 

TXB2EIDL                          00000F24
TXB2IE                            00000004
TXB2IF                            00000004
TXB2IP                            00000004
TXB2SIDH                          00000F21
TXB2SIDL                          00000F22
TXBIE                             00000DFC
TXBIF                             00000007
TXBIFBXB2CON                      00000007
TXBIFTXB1CON                      00000007
TXBIP                             00000004
TXBO                              00000005
TXBP                              00000004
TXBnIE                            00000004
TXBnIF                            00000004
TXBnIP                            00000004
TXCKP                             00000004
TXEN                              00000005
TXERR                             00000004
TXERRCNT                          00000F76
TXIE                              00000004
TXIF                              00000004
TXIP                              00000004
TXLARB                            00000005
TXPRI0                            00000000
TXPRI1                            00000001
TXREG                             00000FAD
TXREQ                             00000003
TXRTR                             00000006
TXSTA                             00000FAC
TXWARN                            00000002
UA                                00000001
VCFG0                             00000004
VCFG1                             00000005
VDIRMAG                           00000007
VREFM                             00000002
VREFP                             00000003
W                                 00000000
WAKDIS                            00000007
WAKFIL                            00000006
WAKIE                             00000006
WAKIF                             00000006
WAKIP                             00000006
WCOL                              00000007
WDTCON                            00000FD1
WIN0                              00000001
WIN0_FP1                          00000001
WIN1                              00000002
WIN1_FP2                          00000002
WIN2                              00000003
WIN2_FP3                          00000003
WR                                00000001
WREG                              00000FE8
WREN                              00000002
WRERR                             00000003
WUE                               00000001
YY_BUF_LEN                        000000C8
Z                                 00000002
_BBSIZ_1024_4L                    000000CF
_BBSIZ_2048_4L                    000000DF
_BBSIZ_4096_4L                    000000EF
_BOREN_BOACTIVE_2L                000000FD
_BOREN_BOHW_2L                    000000FF
_BOREN_OFF_2L                     000000F9
_BOREN_SBORENCTRL_2L              000000FB
_BORV_0_2L                        000000E7
_BORV_1_2L                        000000EF
_BORV_2_2L                        000000F7
_BORV_3_2L                        000000FF
_CONFIG1H                         00300001
_CONFIG2H                         00300003
_CONFIG2L                         00300002
_CONFIG3H                         00300005
_CONFIG4L                         00300006
_CONFIG5H                         00300009
_CONFIG5L                         00300008
_CONFIG6H                         0030000B
_CONFIG6L                         0030000A
_CONFIG7H                         0030000D
_CONFIG7L                         0030000C
MPASM 5.66              ../QUIZSHOW_MAIN.ASM   3-1-2017  12:21:15         PAGE 129


SYMBOL TABLE
  LABEL                             VALUE 

_CP0_OFF_5L                       000000FF
_CP0_ON_5L                        000000FE
_CP1_OFF_5L                       000000FF
_CP1_ON_5L                        000000FD
_CP2_OFF_5L                       000000FF
_CP2_ON_5L                        000000FB
_CP3_OFF_5L                       000000FF
_CP3_ON_5L                        000000F7
_CP4_OFF_5L                       000000FF
_CP4_ON_5L                        000000EF
_CP5_OFF_5L                       000000FF
_CP5_ON_5L                        000000DF
_CPB_OFF_5H                       000000FF
_CPB_ON_5H                        000000BF
_CPD_OFF_5H                       000000FF
_CPD_ON_5H                        0000007F
_DEBUG_OFF_4L                     000000FF
_DEBUG_ON_4L                      0000007F
_DEVID1                           003FFFFE
_DEVID2                           003FFFFF
_EBTR0_OFF_7L                     000000FF
_EBTR0_ON_7L                      000000FE
_EBTR1_OFF_7L                     000000FF
_EBTR1_ON_7L                      000000FD
_EBTR2_OFF_7L                     000000FF
_EBTR2_ON_7L                      000000FB
_EBTR3_OFF_7L                     000000FF
_EBTR3_ON_7L                      000000F7
_EBTR4_OFF_7L                     000000FF
_EBTR4_ON_7L                      000000EF
_EBTR5_OFF_7L                     000000FF
_EBTR5_ON_7L                      000000DF
_EBTRB_OFF_7H                     000000FF
_EBTRB_ON_7H                      000000BF
_FCMEN_OFF_1H                     000000BF
_FCMEN_ON_1H                      000000FF
_IDLOC0                           00200000
_IDLOC1                           00200001
_IDLOC2                           00200002
_IDLOC3                           00200003
_IDLOC4                           00200004
_IDLOC5                           00200005
_IDLOC6                           00200006
_IDLOC7                           00200007
_IESO_OFF_1H                      0000007F
_IESO_ON_1H                       000000FF
_LPT1OSC_OFF_3H                   000000FB
_LPT1OSC_ON_3H                    000000FF
_LVP_OFF_4L                       000000FB
_LVP_ON_4L                        000000FF
_MCLRE_OFF_3H                     0000007F
_MCLRE_ON_3H                      000000FF
_OSC_ECIO_1H                      000000F5
_OSC_EC_1H                        000000F4
_OSC_HSPLL_1H                     000000F6
_OSC_HS_1H                        000000F2
_OSC_IRCIO67_1H                   000000F8
_OSC_IRCIO7_1H                    000000F9
_OSC_LP_1H                        000000F0
_OSC_RCIO_1H                      000000F7
_OSC_RC_1H                        000000F3
_OSC_XT_1H                        000000F1
_PBADEN_OFF_3H                    000000FD
_PBADEN_ON_3H                     000000FF
_PWRT_OFF_2L                      000000FF
_PWRT_ON_2L                       000000FE
_STVREN_OFF_4L                    000000FE
_STVREN_ON_4L                     000000FF
_WDTPS_1024_2H                    000000F5
_WDTPS_128_2H                     000000EF
_WDTPS_16384_2H                   000000FD
_WDTPS_16_2H                      000000E9
_WDTPS_1_2H                       000000E1
_WDTPS_2048_2H                    000000F7
_WDTPS_256_2H                     000000F1
_WDTPS_2_2H                       000000E3
_WDTPS_32768_2H                   000000FF
_WDTPS_32_2H                      000000EB
_WDTPS_4096_2H                    000000F9
_WDTPS_4_2H                       000000E5
MPASM 5.66              ../QUIZSHOW_MAIN.ASM   3-1-2017  12:21:15         PAGE 130


SYMBOL TABLE
  LABEL                             VALUE 

_WDTPS_512_2H                     000000F3
_WDTPS_64_2H                      000000ED
_WDTPS_8192_2H                    000000FB
_WDTPS_8_2H                       000000E7
_WDT_OFF_2H                       000000FE
_WDT_ON_2H                        000000FF
_WRT0_OFF_6L                      000000FF
_WRT0_ON_6L                       000000FE
_WRT1_OFF_6L                      000000FF
_WRT1_ON_6L                       000000FD
_WRT2_OFF_6L                      000000FF
_WRT2_ON_6L                       000000FB
_WRT3_OFF_6L                      000000FF
_WRT3_ON_6L                       000000F7
_WRT4_OFF_6L                      000000FF
_WRT4_ON_6L                       000000EF
_WRT5_OFF_6L                      000000FF
_WRT5_ON_6L                       000000DF
_WRTB_OFF_6H                      000000FF
_WRTB_ON_6H                       000000BF
_WRTC_OFF_6H                      000000FF
_WRTC_ON_6H                       000000DF
_WRTD_OFF_6H                      000000FF
_WRTD_ON_6H                       0000007F
_XINST_OFF_4L                     000000BF
_XINST_ON_4L                      000000FF
__18F4685                         00000001

Errors   :     0
Warnings :     0 reported,     0 suppressed
Messages :     0 reported,     0 suppressed

