MPLINK 4.51, LINKER
Linker Map File - Created Mon May 26 22:35:00 2014

                                 Section Info
                  Section       Type    Address   Location Size(Bytes)
                ---------  ---------  ---------  ---------  ---------
                    V_RST       code   0x000000    program   0x000006
                   .cinit    romdata   0x000006    program   0x000002
                  V_INT_H       code   0x000008    program   0x000006
           _QUIZSHOW_CODE       code   0x00000e    program   0x000002
                  V_INT_L       code   0x000018    program   0x000006
          LUMOS_CODE_INIT       code   0x00001e    program   0x000094
                    _BOOT       code   0x000100    program   0x000212
                _SIO_CODE       code   0x000312    program   0x000292
                     _INT       code   0x0005a4    program   0x000068
                    _MAIN       code   0x000800    program   0x001446
         _EEPROM_DEFS_TBL       code   0x014000    program   0x000010
                   .org_0       code   0x015000    program   0x00007e
                  __SYS__       code   0x016ff0    program   0x000002
.config_300001_BUILD/DEFAULT/PRODUCTION/_EXT/14    romdata   0x300001    program   0x000001
.config_300002_BUILD/DEFAULT/PRODUCTION/_EXT/14    romdata   0x300002    program   0x000001
.config_300003_BUILD/DEFAULT/PRODUCTION/_EXT/14    romdata   0x300003    program   0x000001
.config_300005_BUILD/DEFAULT/PRODUCTION/_EXT/14    romdata   0x300005    program   0x000001
.config_300006_BUILD/DEFAULT/PRODUCTION/_EXT/14    romdata   0x300006    program   0x000001
.config_300008_BUILD/DEFAULT/PRODUCTION/_EXT/14    romdata   0x300008    program   0x000001
.config_300009_BUILD/DEFAULT/PRODUCTION/_EXT/14    romdata   0x300009    program   0x000001
.config_30000A_BUILD/DEFAULT/PRODUCTION/_EXT/14    romdata   0x30000a    program   0x000001
.config_30000B_BUILD/DEFAULT/PRODUCTION/_EXT/14    romdata   0x30000b    program   0x000001
.config_30000C_BUILD/DEFAULT/PRODUCTION/_EXT/14    romdata   0x30000c    program   0x000001
.config_30000D_BUILD/DEFAULT/PRODUCTION/_EXT/14    romdata   0x30000d    program   0x000001
                  _EEPROM       code   0xf00000    program   0x000010
                   _ADATA      udata   0x000000       data   0x000024
          _SIO_TXBUF_DATA      udata   0x000100       data   0x000100
          _SIO_RXBUF_DATA      udata   0x000200       data   0x000100
            _SIO_VAR_DATA      udata   0x000300       data   0x00001b
                _SSR_DATA      udata   0x000400       data   0x000064
                _MAINDATA      udata   0x000500       data   0x0000c8



                              Program Memory Usage 
                               Start         End      
                           ---------   ---------      
                            0x000000    0x000002      
                            0x000006    0x000006      
                            0x000008    0x00000a      
                            0x00000e    0x00000e      
                            0x000018    0x00001a      
                            0x00001e    0x000067      
                            0x000100    0x000208      
                            0x000312    0x00045a      
                            0x0005a4    0x0005d7      
                            0x000800    0x001222      
                            0x014000    0x014007      
                            0x015000    0x01503e      
                            0x016ff0    0x016ff0      
                            0x300001    0x300003      
                            0x300005    0x300006      
                            0x300008    0x30000d      
                            0xf00000    0xf00007      
            3417 out of 99352 program addresses used, program memory utilization is 3%



                              Symbols - Sorted by Name
                     Name    Address   Location    Storage File                     
                ---------  ---------  ---------  --------- ---------                
           B32__B2BCD_BIT   0x0004a4    program     static ../serial-io.asm         
          B32__B2BCD_LOOP   0x0004ac    program     static ../serial-io.asm         
           B32__BCD2ASCII   0x0004e0    program     extern ../serial-io.asm         
          B32__BCD2A_LOOP   0x000500    program     static ../serial-io.asm         
             B32__BIN2BCD   0x00048a    program     extern ../serial-io.asm         
                BAD_BREAK   0x000862    program     static ../lumos_main.asm        
                 BAUDTBLH   0x01502a    program     static ../serial-io.asm         
                 BAUDTBLL   0x015054    program     static ../serial-io.asm         
             BE_AWAKE_NOW   0x001b6c    program     static ../lumos_main.asm        
          BREAK_CONFIRMED   0x00084e    program     static ../lumos_main.asm        
                  BRK_DET   0x000828    program     static ../lumos_main.asm        
                 BRK_DET2   0x000820    program     static ../lumos_main.asm        
              CLR_NEXT_RX   0x000336    program     static ../serial-io.asm         
              CLR_NEXT_TX   0x000328    program     static ../serial-io.asm         
                CMD_XPRIV   0x001410    program     static ../lumos_main.asm        
                DATA_BYTE   0x000a72    program     static ../lumos_main.asm        
                DB_CHK_7E   0x000a86    program     static ../lumos_main.asm        
                DB_CHK_7F   0x000a90    program     static ../lumos_main.asm        
           DB_CHK_LITERAL   0x000a7e    program     static ../lumos_main.asm        
               DB_HANDLER   0x000a9a    program     static ../lumos_main.asm        
              DEFAULT_TBL   0x014000    program     static ../lumos_main.asm        
           DELAY_1_12_SEC   0x0002f2    program     static ../lumos_main.asm        
            DELAY_1_6_SEC   0x0002fa    program     static ../lumos_main.asm        
                   DMX_18   0x001bf0    program     static ../lumos_main.asm        
                   DMX_19   0x001c22    program     static ../lumos_main.asm        
                 DMX_DONE   0x001c1e    program     static ../lumos_main.asm        
     DMX_EXIT_TEMPORARILY   0x001b78    program     static ../lumos_main.asm        
            DMX_NOT_FIRST   0x001bd8    program     static ../lumos_main.asm        
    DMX_PASS_DOWN_SET_LVL   0x001c16    program     static ../lumos_main.asm        
        DMX_RECEIVED_BYTE   0x001bb8    program     static ../lumos_main.asm        
               DMX_RESUME   0x001ba6    program     static ../lumos_main.asm        
         DMX_SLOT_REACHED   0x001bee    program     static ../lumos_main.asm        
               DMX_ST_LSB   0x001bea    program     static ../lumos_main.asm        
          DMX_WEIRD_FRAME   0x001bd4    program     static ../lumos_main.asm        
             DO_CMD_SLEEP   0x000dd4    program     static ../lumos_main.asm        
              DO_CMD_WAKE   0x000dfe    program     static ../lumos_main.asm        
             DO_TEST_MODE   0x0008ac    program     static ../lumos_main.asm        
    DRAIN_M_S_TX_BLOCKING   0x0008a4    program     static ../lumos_main.asm        
        DRAIN_TRANSMITTER   0x00088c    program     static ../lumos_main.asm        
                  D_1_6_J   0x000302    program     static ../lumos_main.asm        
                  D_1_6_K   0x000304    program     static ../lumos_main.asm        
                 D_1_6_KK   0x000300    program     static ../lumos_main.asm        
                  D_FLASH   0x000102    program     static ../lumos_main.asm        
               ECHO_7BITS   0x0003b6    program     static ../serial-io.asm         
          ECHO_NOT_DELETE   0x0003c4    program     static ../serial-io.asm         
          ECHO_NOT_ESCAPE   0x0003ce    program     static ../serial-io.asm         
               ECHO_PLAIN   0x0003da    program     static ../serial-io.asm         
               END_FADE_0   0x0015d6    program     static ../lumos_main.asm        
               END_FADE_1   0x001620    program     static ../lumos_main.asm        
              END_FADE_10   0x0018ba    program     static ../lumos_main.asm        
              END_FADE_11   0x001904    program     static ../lumos_main.asm        
              END_FADE_12   0x00194e    program     static ../lumos_main.asm        
              END_FADE_13   0x001998    program     static ../lumos_main.asm        
              END_FADE_14   0x0019e2    program     static ../lumos_main.asm        
              END_FADE_15   0x001a2c    program     static ../lumos_main.asm        
              END_FADE_16   0x001a76    program     static ../lumos_main.asm        
              END_FADE_17   0x001ac0    program     static ../lumos_main.asm        
              END_FADE_18   0x001b0a    program     static ../lumos_main.asm        
              END_FADE_19   0x001b54    program     static ../lumos_main.asm        
               END_FADE_2   0x00166a    program     static ../lumos_main.asm        
               END_FADE_3   0x0016b4    program     static ../lumos_main.asm        
               END_FADE_4   0x0016fe    program     static ../lumos_main.asm        
               END_FADE_5   0x001748    program     static ../lumos_main.asm        
               END_FADE_6   0x001792    program     static ../lumos_main.asm        
               END_FADE_7   0x0017dc    program     static ../lumos_main.asm        
               END_FADE_8   0x001826    program     static ../lumos_main.asm        
               END_FADE_9   0x001870    program     static ../lumos_main.asm        
                 END_FRJC   0x000284    program     static ../lumos_main.asm        
          END_SERIAL_READ   0x000882    program     static ../lumos_main.asm        
                ERR_ABORT   0x00091e    program     static ../lumos_main.asm        
       ERR_CMD_INCOMPLETE   0x00090a    program     static ../lumos_main.asm        
              ERR_COMMAND   0x00091a    program     static ../lumos_main.asm        
              ERR_FRAMING   0x000598    program     static ../serial-io.asm         
              ERR_NOT_IMP   0x000912    program     static ../lumos_main.asm        
              ERR_OVERRUN   0x00059c    program     static ../serial-io.asm         
       ERR_SERIAL_FRAMING   0x0008f2    program     static ../lumos_main.asm        
          ERR_SERIAL_FULL   0x000902    program     static ../lumos_main.asm        
       ERR_SERIAL_OVERRUN   0x0008fc    program     static ../lumos_main.asm        
            FACTORY_RESET   0x000298    program     static ../lumos_main.asm        
      FACTORY_RESET_FLASH   0x0002f0    program     static ../lumos_main.asm        
FACTORY_RESET_JUMPER_CHECK   0x000284    program     static ../lumos_main.asm        
       FACTORY_RESET_LOOP   0x0002bc    program     static ../lumos_main.asm        
                  GC_SPIN   0x000460    program     static ../serial-io.asm         
                HALT_MODE   0x001c26    program     static ../lumos_main.asm        
               HALT_SLEEP   0x001c34    program     static ../lumos_main.asm        
                   HEXTBL   0x015000    program     static ../serial-io.asm         
             INTERP_START   0x000942    program     static ../lumos_main.asm        
                 INT_HIGH   0x0005ce    program     static ../lumos_main.asm        
                  INT_LOW   0x0005a4    program     static ../lumos_main.asm        
                   INT_RX   0x0005b8    program     static ../lumos_main.asm        
               INT_RX_END   0x0005c2    program     static ../lumos_main.asm        
                 INT_TMR2   0x0005e8    program     static ../lumos_main.asm        
            INT_TMR2_DONE   0x000602    program     static ../lumos_main.asm        
             INT_TMR2_END   0x000604    program     static ../lumos_main.asm        
             INT_TMR2_MSB   0x000606    program     static ../lumos_main.asm        
            INT_TMR2_NEXT   0x0005fe    program     static ../lumos_main.asm        
                   INT_TX   0x0005ae    program     static ../lumos_main.asm        
               INT_TX_END   0x0005b8    program     static ../lumos_main.asm        
                   INT_ZC   0x0005ce    program     static ../lumos_main.asm        
               INT_ZC_END   0x0005e8    program     static ../lumos_main.asm        
               LUMOS_INIT   0x00001e    program     extern ../lumos_init.asm        
                     MAIN   0x000800    program     static ../lumos_main.asm        
                  NOT_DMX   0x00085e    program     static ../lumos_main.asm        
                ON_OFF_ON   0x000ac2    program     static ../lumos_main.asm        
           ON_OFF_YY_DATA   0x000aa8    program     static ../lumos_main.asm        
         PASS_DOWN_ON_OFF   0x000ac8    program     static ../lumos_main.asm        
        PASS_DOWN_SET_LVL   0x000af8    program     static ../lumos_main.asm        
            QUIZSHOW_INIT   0x00000e    program     extern ../quizshow_main.asm     
                READ_DONE   0x000456    program     static ../serial-io.asm         
                  READ_OK   0x000440    program     static ../serial-io.asm         
          RECEIVE_COMMAND   0x000922    program     static ../lumos_main.asm        
                    RX_OK   0x000576    program     static ../serial-io.asm         
                  S0_CMD0   0x00095a    program     static ../lumos_main.asm        
                  S0_CMD1   0x000a26    program     static ../lumos_main.asm        
                  S0_CMD2   0x000a32    program     static ../lumos_main.asm        
                  S0_CMD3   0x000a3c    program     static ../lumos_main.asm        
                  S0_CMD4   0x000a46    program     static ../lumos_main.asm        
                  S0_CMD5   0x000a50    program     static ../qscc_hook_5_6.asm     
                  S0_CMD6   0x000a58    program     static ../qscc_hook_5_6.asm     
                  S0_CMD7   0x000a60    program     static ../lumos_main.asm        
               S0_CMD_ERR   0x000a6a    program     static ../lumos_main.asm        
                 S10_DATA   0x001462    program     static ../lumos_main.asm        
                 S11_DATA   0x00146e    program     static ../lumos_main.asm        
                 S12_DATA   0x00147a    program     static ../lumos_main.asm        
                 S13_DATA   0x001486    program     static ../lumos_main.asm        
                 S14_DATA   0x001492    program     static ../lumos_main.asm        
                 S15_DATA   0x0014ae    program     static ../lumos_main.asm        
                 S16_DATA   0x0014b6    program     static ../lumos_main.asm        
                 S17_DATA   0x0014be    program     static ../lumos_main.asm        
                  S1_DATA   0x000aa0    program     static ../lumos_main.asm        
                  S2_DATA   0x000acc    program     static ../lumos_main.asm        
                  S3_DATA   0x000ae2    program     static ../lumos_main.asm        
                  S4_DATA   0x000b00    program     static ../lumos_main.asm        
                  S5_DATA   0x000b22    program     static ../lumos_main.asm        
                S6_0_DATA   0x000b58    program     static ../lumos_main.asm        
           S6_0_DATA_N_OK   0x000b6e    program     static ../lumos_main.asm        
       S6_0_UPDATE_MASTER   0x000b82    program     static ../lumos_main.asm        
         S6_0_UPDATE_NEXT   0x000b9e    program     static ../lumos_main.asm        
               S6_10_DATA   0x0011ca    program     static ../lumos_main.asm        
           S6_10_DEF_SENS   0x0011de    program     static ../lumos_main.asm        
              S6_10_VALID   0x0011d8    program     static ../lumos_main.asm        
            S6_11_CLR_SEQ   0x0011fa    program     static ../lumos_main.asm        
               S6_11_DATA   0x0011e6    program     static ../lumos_main.asm        
              S6_11_VALID   0x0011f4    program     static ../lumos_main.asm        
               S6_12_DATA   0x00120a    program     static ../lumos_main.asm        
            S6_12_DEF_SEQ   0x00122e    program     static ../lumos_main.asm        
              S6_12_VALID   0x001216    program     static ../lumos_main.asm        
             S6_12_VALID2   0x001228    program     static ../lumos_main.asm        
               S6_13_DATA   0x00123e    program     static ../lumos_main.asm        
              S6_13_VALID   0x00124c    program     static ../lumos_main.asm        
               S6_14_DATA   0x001264    program     static ../lumos_main.asm        
           S6_1_CONFIGURE   0x000bd0    program     static ../lumos_main.asm        
                S6_1_DATA   0x000bae    program     static ../lumos_main.asm        
             S6_1_VALID_1   0x000bbc    program     static ../lumos_main.asm        
             S6_1_VALID_2   0x000bc2    program     static ../lumos_main.asm        
                S6_2_DATA   0x000c34    program     static ../lumos_main.asm        
            S6_2_SET_BAUD   0x000c56    program     static ../lumos_main.asm        
              S6_2_VALID1   0x000c42    program     static ../lumos_main.asm        
              S6_2_VALID2   0x000c48    program     static ../lumos_main.asm        
                S6_3_DATA   0x000c98    program     static ../lumos_main.asm        
                S6_3_HALT   0x000cc4    program     static ../lumos_main.asm        
               S6_3_RESET   0x000cac    program     static ../lumos_main.asm        
               S6_3_VALID   0x000ca6    program     static ../lumos_main.asm        
                S6_4_DATA   0x000cc6    program     static ../lumos_main.asm        
           S6_4_SET_PHASE   0x000cda    program     static ../lumos_main.asm        
               S6_4_VALID   0x000cd4    program     static ../lumos_main.asm        
                S6_5_ADDR   0x000d60    program     static ../lumos_main.asm        
                S6_5_DATA   0x000d4c    program     static ../lumos_main.asm        
               S6_5_VALID   0x000d5a    program     static ../lumos_main.asm        
                S6_6_DATA   0x000db2    program     static ../lumos_main.asm        
               S6_6_SLEEP   0x000dc6    program     static ../lumos_main.asm        
               S6_6_VALID   0x000dc0    program     static ../lumos_main.asm        
                S6_7_DATA   0x000ddc    program     static ../lumos_main.asm        
               S6_7_VALID   0x000dea    program     static ../lumos_main.asm        
                S6_7_WAKE   0x000df0    program     static ../lumos_main.asm        
                S6_8_DATA   0x000e0a    program     static ../lumos_main.asm        
            S6_8_SHUTDOWN   0x000e1e    program     static ../lumos_main.asm        
               S6_8_VALID   0x000e18    program     static ../lumos_main.asm        
                   S6_8_X   0x000e02    program     static ../lumos_main.asm        
                S6_9_DATA   0x000e2e    program     static ../lumos_main.asm        
               S6_9_QUERY   0x000e42    program     static ../lumos_main.asm        
               S6_9_VALID   0x000e3c    program     static ../lumos_main.asm        
                  S6_DATA   0x000b40    program     static ../lumos_main.asm        
          S6_KEEP_LOOKING   0x00126e    program     static ../lumos_main.asm        
               S6_RESTART   0x00126c    program     static ../lumos_main.asm        
                  S7_DATA   0x001286    program     static ../lumos_main.asm        
              S8B_CHK_7E1   0x000e74    program     static ../lumos_main.asm        
             S8B_CHK_7E10   0x00115a    program     static ../lumos_main.asm        
             S8B_CHK_7E11   0x001198    program     static ../lumos_main.asm        
              S8B_CHK_7E2   0x000eb0    program     static ../lumos_main.asm        
              S8B_CHK_7E3   0x000ef8    program     static ../lumos_main.asm        
              S8B_CHK_7E4   0x000f36    program     static ../lumos_main.asm        
              S8B_CHK_7E5   0x000f7a    program     static ../lumos_main.asm        
              S8B_CHK_7E6   0x000fc2    program     static ../lumos_main.asm        
              S8B_CHK_7E7   0x001000    program     static ../lumos_main.asm        
              S8B_CHK_7E8   0x00105a    program     static ../lumos_main.asm        
              S8B_CHK_7E9   0x0010fe    program     static ../lumos_main.asm        
             S8B_CHK_MSB1   0x000e88    program     static ../lumos_main.asm        
            S8B_CHK_MSB10   0x00116e    program     static ../lumos_main.asm        
            S8B_CHK_MSB11   0x0011ac    program     static ../lumos_main.asm        
             S8B_CHK_MSB2   0x000ec4    program     static ../lumos_main.asm        
             S8B_CHK_MSB3   0x000f0c    program     static ../lumos_main.asm        
             S8B_CHK_MSB4   0x000f4a    program     static ../lumos_main.asm        
             S8B_CHK_MSB5   0x000f8e    program     static ../lumos_main.asm        
             S8B_CHK_MSB6   0x000fd6    program     static ../lumos_main.asm        
             S8B_CHK_MSB7   0x001014    program     static ../lumos_main.asm        
             S8B_CHK_MSB8   0x00106e    program     static ../lumos_main.asm        
             S8B_CHK_MSB9   0x001112    program     static ../lumos_main.asm        
                 S8B_END1   0x000e9a    program     static ../lumos_main.asm        
                S8B_END10   0x001180    program     static ../lumos_main.asm        
                S8B_END11   0x0011be    program     static ../lumos_main.asm        
                 S8B_END2   0x000ed6    program     static ../lumos_main.asm        
                 S8B_END3   0x000f1e    program     static ../lumos_main.asm        
                 S8B_END4   0x000f5c    program     static ../lumos_main.asm        
                 S8B_END5   0x000fa0    program     static ../lumos_main.asm        
                 S8B_END6   0x000fe8    program     static ../lumos_main.asm        
                 S8B_END7   0x001026    program     static ../lumos_main.asm        
                 S8B_END8   0x001080    program     static ../lumos_main.asm        
                 S8B_END9   0x001124    program     static ../lumos_main.asm        
         S8B_SEND_NORMAL1   0x000e94    program     static ../lumos_main.asm        
        S8B_SEND_NORMAL10   0x00117a    program     static ../lumos_main.asm        
        S8B_SEND_NORMAL11   0x0011b8    program     static ../lumos_main.asm        
         S8B_SEND_NORMAL2   0x000ed0    program     static ../lumos_main.asm        
         S8B_SEND_NORMAL3   0x000f18    program     static ../lumos_main.asm        
         S8B_SEND_NORMAL4   0x000f56    program     static ../lumos_main.asm        
         S8B_SEND_NORMAL5   0x000f9a    program     static ../lumos_main.asm        
         S8B_SEND_NORMAL6   0x000fe2    program     static ../lumos_main.asm        
         S8B_SEND_NORMAL7   0x001020    program     static ../lumos_main.asm        
         S8B_SEND_NORMAL8   0x00107a    program     static ../lumos_main.asm        
         S8B_SEND_NORMAL9   0x00111e    program     static ../lumos_main.asm        
                  S8_DATA   0x001292    program     static ../lumos_main.asm        
    S8_PASS_DOWN_RAMP_LVL   0x0012cc    program     static ../lumos_main.asm        
               S9_CF_ADDR   0x00144a    program     static ../lumos_main.asm        
              S9_CF_PHASE   0x001432    program     static ../lumos_main.asm        
                  S9_DATA   0x0012d4    program     static ../lumos_main.asm        
           S9_DO_PRIV_CMD   0x0013a8    program     static ../lumos_main.asm        
          S9_INTERNAL_CMD   0x001398    program     static ../lumos_main.asm        
                S9_PRIV_0   0x0013b6    program     static ../lumos_main.asm        
               S9_PRIV_0X   0x0013bc    program     static ../lumos_main.asm        
                S9_PRIV_1   0x0013c4    program     static ../lumos_main.asm        
                S9_PRIV_2   0x0013dc    program     static ../lumos_main.asm        
                S9_PRIV_3   0x0013f4    program     static ../lumos_main.asm        
                S9_PRIV_4   0x00140c    program     static ../lumos_main.asm        
                S9_PRIV_5   0x001416    program     static ../lumos_main.asm        
                S9_PRIV_6   0x00142e    program     static ../lumos_main.asm        
              S9_PRIV_CMD   0x00139c    program     static ../lumos_main.asm        
              S9_X0_SLEEP   0x0012e4    program     static ../lumos_main.asm        
               S9_X1_WAKE   0x0012f8    program     static ../lumos_main.asm        
           S9_X2_SHUTDOWN   0x001310    program     static ../lumos_main.asm        
              S9_X3_QUERY   0x001328    program     static ../lumos_main.asm        
            S9_X4_DEF_SEQ   0x001340    program     static ../lumos_main.asm        
           S9_X5_EXEC_SEQ   0x00134a    program     static ../lumos_main.asm        
           S9_X6_DEF_SENS   0x001354    program     static ../lumos_main.asm        
           S9_X7_MSK_SENS   0x00136c    program     static ../lumos_main.asm        
            S9_X8_CLR_SEQ   0x001376    program     static ../lumos_main.asm        
              S9_X9_XPRIV   0x00138e    program     static ../lumos_main.asm        
                 SIO_ECHO   0x0003a4    program     extern ../serial-io.asm         
               SIO_ECHO_W   0x0003a0    program     extern ../serial-io.asm         
          SIO_FLUSH_INPUT   0x000356    program     extern ../serial-io.asm         
           SIO_FLUSH_IN_1   0x000362    program     static ../serial-io.asm         
         SIO_FLUSH_OUTPUT   0x000370    program     extern ../serial-io.asm         
          SIO_FLUSH_OUT_1   0x00037c    program     static ../serial-io.asm         
              SIO_GETCHAR   0x00045e    program     extern ../serial-io.asm         
            SIO_GETCHAR_W   0x000458    program     extern ../serial-io.asm         
                 SIO_INIT   0x000312    program     extern ../serial-io.asm         
              SIO_NEWLINE   0x000422    program     extern ../serial-io.asm         
            SIO_PRINT_HEX   0x00046c    program     extern ../serial-io.asm         
          SIO_PRINT_HEX_W   0x000468    program     extern ../serial-io.asm         
              SIO_PUTCHAR   0x0003e0    program     extern ../serial-io.asm         
            SIO_PUTCHAR_W   0x0003e4    program     extern ../serial-io.asm         
                 SIO_READ   0x000434    program     extern ../serial-io.asm         
               SIO_READ_W   0x00042e    program     extern ../serial-io.asm         
                 SIO_RECV   0x00055a    program     extern ../serial-io.asm         
                 SIO_SEND   0x000526    program     extern ../serial-io.asm         
           SIO_SET_BAUD_W   0x00038a    program     extern ../serial-io.asm         
                SIO_WRITE   0x0003f6    program     extern ../serial-io.asm         
              SIO_WRITE_W   0x0003fa    program     extern ../serial-io.asm         
       SPIN_FOR_BUF_DRAIN   0x0003ea    program     static ../serial-io.asm         
         SSR_OUTPUT_VALUE   0x0014c6    program     static ../lumos_main.asm        
                    START   0x000104    program     static ../lumos_main.asm        
          START_DMX_FRAME   0x0008f8    program     static ../lumos_main.asm        
                  SYS_SNH   0x016ff0    program     static ../lumos_main.asm        
                  SYS_SNL   0x016ff1    program     static ../lumos_main.asm        
                  S_FLASH   0x000100    program     static ../lumos_main.asm        
              TEST_MODE_1   0x0008ca    program     static ../lumos_main.asm        
         TEST_MODE_BYPASS   0x00087e    program     static ../lumos_main.asm        
         TEST_NOT_PRESSED   0x0008b6    program     static ../lumos_main.asm        
                TEST_NP_1   0x0008ca    program     static ../lumos_main.asm        
                TEST_NP_2   0x0008ca    program     static ../lumos_main.asm        
               TRY_DOWN_0   0x0015b8    program     static ../lumos_main.asm        
               TRY_DOWN_1   0x001602    program     static ../lumos_main.asm        
              TRY_DOWN_10   0x00189c    program     static ../lumos_main.asm        
              TRY_DOWN_11   0x0018e6    program     static ../lumos_main.asm        
              TRY_DOWN_12   0x001930    program     static ../lumos_main.asm        
              TRY_DOWN_13   0x00197a    program     static ../lumos_main.asm        
              TRY_DOWN_14   0x0019c4    program     static ../lumos_main.asm        
              TRY_DOWN_15   0x001a0e    program     static ../lumos_main.asm        
              TRY_DOWN_16   0x001a58    program     static ../lumos_main.asm        
              TRY_DOWN_17   0x001aa2    program     static ../lumos_main.asm        
              TRY_DOWN_18   0x001aec    program     static ../lumos_main.asm        
              TRY_DOWN_19   0x001b36    program     static ../lumos_main.asm        
               TRY_DOWN_2   0x00164c    program     static ../lumos_main.asm        
               TRY_DOWN_3   0x001696    program     static ../lumos_main.asm        
               TRY_DOWN_4   0x0016e0    program     static ../lumos_main.asm        
               TRY_DOWN_5   0x00172a    program     static ../lumos_main.asm        
               TRY_DOWN_6   0x001774    program     static ../lumos_main.asm        
               TRY_DOWN_7   0x0017be    program     static ../lumos_main.asm        
               TRY_DOWN_8   0x001808    program     static ../lumos_main.asm        
               TRY_DOWN_9   0x001852    program     static ../lumos_main.asm        
             TR_OFF_DELAY   0x001c44    program     static ../lumos_main.asm        
              TR_ON_DELAY   0x001c3a    program     static ../lumos_main.asm        
                  TR_ON_L   0x001c3c    program     static ../lumos_main.asm        
                  TX_DONE   0x000550    program     static ../serial-io.asm         
                    TX_OK   0x000532    program     static ../serial-io.asm         
     UPDATE_MINIMUM_LEVEL   0x001588    program     static ../lumos_main.asm        
      UPDATE_MIN_DIMMED_0   0x001594    program     static ../lumos_main.asm        
      UPDATE_MIN_DIMMED_1   0x0015de    program     static ../lumos_main.asm        
     UPDATE_MIN_DIMMED_10   0x001878    program     static ../lumos_main.asm        
     UPDATE_MIN_DIMMED_11   0x0018c2    program     static ../lumos_main.asm        
     UPDATE_MIN_DIMMED_12   0x00190c    program     static ../lumos_main.asm        
     UPDATE_MIN_DIMMED_13   0x001956    program     static ../lumos_main.asm        
     UPDATE_MIN_DIMMED_14   0x0019a0    program     static ../lumos_main.asm        
     UPDATE_MIN_DIMMED_15   0x0019ea    program     static ../lumos_main.asm        
     UPDATE_MIN_DIMMED_16   0x001a34    program     static ../lumos_main.asm        
     UPDATE_MIN_DIMMED_17   0x001a7e    program     static ../lumos_main.asm        
     UPDATE_MIN_DIMMED_18   0x001ac8    program     static ../lumos_main.asm        
     UPDATE_MIN_DIMMED_19   0x001b12    program     static ../lumos_main.asm        
      UPDATE_MIN_DIMMED_2   0x001628    program     static ../lumos_main.asm        
      UPDATE_MIN_DIMMED_3   0x001672    program     static ../lumos_main.asm        
      UPDATE_MIN_DIMMED_4   0x0016bc    program     static ../lumos_main.asm        
      UPDATE_MIN_DIMMED_5   0x001706    program     static ../lumos_main.asm        
      UPDATE_MIN_DIMMED_6   0x001750    program     static ../lumos_main.asm        
      UPDATE_MIN_DIMMED_7   0x00179a    program     static ../lumos_main.asm        
      UPDATE_MIN_DIMMED_8   0x0017e4    program     static ../lumos_main.asm        
      UPDATE_MIN_DIMMED_9   0x00182e    program     static ../lumos_main.asm        
        UPDATE_MIN_SKIP_0   0x00159a    program     static ../lumos_main.asm        
        UPDATE_MIN_SKIP_1   0x0015e4    program     static ../lumos_main.asm        
       UPDATE_MIN_SKIP_10   0x00187e    program     static ../lumos_main.asm        
       UPDATE_MIN_SKIP_11   0x0018c8    program     static ../lumos_main.asm        
       UPDATE_MIN_SKIP_12   0x001912    program     static ../lumos_main.asm        
       UPDATE_MIN_SKIP_13   0x00195c    program     static ../lumos_main.asm        
       UPDATE_MIN_SKIP_14   0x0019a6    program     static ../lumos_main.asm        
       UPDATE_MIN_SKIP_15   0x0019f0    program     static ../lumos_main.asm        
       UPDATE_MIN_SKIP_16   0x001a3a    program     static ../lumos_main.asm        
       UPDATE_MIN_SKIP_17   0x001a84    program     static ../lumos_main.asm        
       UPDATE_MIN_SKIP_18   0x001ace    program     static ../lumos_main.asm        
       UPDATE_MIN_SKIP_19   0x001b18    program     static ../lumos_main.asm        
        UPDATE_MIN_SKIP_2   0x00162e    program     static ../lumos_main.asm        
        UPDATE_MIN_SKIP_3   0x001678    program     static ../lumos_main.asm        
        UPDATE_MIN_SKIP_4   0x0016c2    program     static ../lumos_main.asm        
        UPDATE_MIN_SKIP_5   0x00170c    program     static ../lumos_main.asm        
        UPDATE_MIN_SKIP_6   0x001756    program     static ../lumos_main.asm        
        UPDATE_MIN_SKIP_7   0x0017a0    program     static ../lumos_main.asm        
        UPDATE_MIN_SKIP_8   0x0017ea    program     static ../lumos_main.asm        
        UPDATE_MIN_SKIP_9   0x001834    program     static ../lumos_main.asm        
       UPDATE_SSR_OUTPUTS   0x001502    program     static ../lumos_main.asm        
        UPDATE_SSR_SKIP_0   0x001512    program     static ../lumos_main.asm        
        UPDATE_SSR_SKIP_1   0x001518    program     static ../lumos_main.asm        
       UPDATE_SSR_SKIP_10   0x00154e    program     static ../lumos_main.asm        
       UPDATE_SSR_SKIP_11   0x001554    program     static ../lumos_main.asm        
       UPDATE_SSR_SKIP_12   0x00155a    program     static ../lumos_main.asm        
       UPDATE_SSR_SKIP_13   0x001560    program     static ../lumos_main.asm        
       UPDATE_SSR_SKIP_14   0x001566    program     static ../lumos_main.asm        
       UPDATE_SSR_SKIP_15   0x00156c    program     static ../lumos_main.asm        
       UPDATE_SSR_SKIP_16   0x001572    program     static ../lumos_main.asm        
       UPDATE_SSR_SKIP_17   0x001578    program     static ../lumos_main.asm        
       UPDATE_SSR_SKIP_18   0x00157e    program     static ../lumos_main.asm        
       UPDATE_SSR_SKIP_19   0x001584    program     static ../lumos_main.asm        
        UPDATE_SSR_SKIP_2   0x00151e    program     static ../lumos_main.asm        
        UPDATE_SSR_SKIP_3   0x001524    program     static ../lumos_main.asm        
        UPDATE_SSR_SKIP_4   0x00152a    program     static ../lumos_main.asm        
        UPDATE_SSR_SKIP_5   0x001530    program     static ../lumos_main.asm        
        UPDATE_SSR_SKIP_6   0x001536    program     static ../lumos_main.asm        
        UPDATE_SSR_SKIP_7   0x00153c    program     static ../lumos_main.asm        
        UPDATE_SSR_SKIP_8   0x001542    program     static ../lumos_main.asm        
        UPDATE_SSR_SKIP_9   0x001548    program     static ../lumos_main.asm        
              WATCH_BREAK   0x000838    program     static ../lumos_main.asm        
       WRITE_EEPROM_LOOP0   0x0002ce    program     static ../lumos_main.asm        
       WRITE_EEPROM_LOOP1   0x000c04    program     static ../lumos_main.asm        
       WRITE_EEPROM_LOOP2   0x000c1e    program     static ../lumos_main.asm        
       WRITE_EEPROM_LOOP3   0x000c7c    program     static ../lumos_main.asm        
       WRITE_EEPROM_LOOP4   0x000d16    program     static ../lumos_main.asm        
       WRITE_EEPROM_LOOP5   0x000d36    program     static ../lumos_main.asm        
       WRITE_EEPROM_LOOP6   0x000d9c    program     static ../lumos_main.asm        
                 WRITE_OK   0x00040e    program     static ../serial-io.asm         
             XLATE_SSR_ID   0x0014ee    program     static ../lumos_main.asm        
            AUTO_OFF_CTRH   0x00001c       data     static ../lumos_main.asm        
            AUTO_OFF_CTRL   0x00001d       data     static ../lumos_main.asm        
             B32__BCD_ASC   0x000312       data     extern ../serial-io.asm         
                 B32__BIN   0x000317       data     extern ../serial-io.asm         
                 B32__BIT   0x00030c       data     static ../serial-io.asm         
               B32__FSR0H   0x00030e       data     static ../serial-io.asm         
               B32__FSR0L   0x00030f       data     static ../serial-io.asm         
               B32__FSR1H   0x000310       data     static ../serial-io.asm         
               B32__FSR1L   0x000311       data     static ../serial-io.asm         
              B32__OUTCTR   0x00030d       data     static ../serial-io.asm         
                  CUR_PRE   0x000015       data     static ../lumos_main.asm        
                 CUR_PREH   0x000014       data     static ../lumos_main.asm        
                CUR_SLICE   0x000016       data     static ../lumos_main.asm        
                DMX_SLOTH   0x000008       data     static ../lumos_main.asm        
                DMX_SLOTL   0x000009       data     static ../lumos_main.asm        
           EIGHTBITSIOBUF   0x00001e       data     static ../lumos_main.asm        
               FSR1H_SAVE   0x00030a       data     static ../serial-io.asm         
               FSR1L_SAVE   0x00030b       data     static ../serial-io.asm         
                        I   0x00001f       data     static ../lumos_main.asm        
             ISR_TMPL_BSR   0x000001       data     static ../lumos_main.asm        
          ISR_TMPL_STATUS   0x000000       data     static ../lumos_main.asm        
            ISR_TMPL_WREG   0x000002       data     static ../lumos_main.asm        
                        J   0x000020       data     static ../lumos_main.asm        
                        K   0x000021       data     static ../lumos_main.asm        
                       KK   0x000022       data     static ../lumos_main.asm        
               LAST_ERROR   0x000013       data     static ../lumos_main.asm        
               MY_ADDRESS   0x000003       data     static ../lumos_main.asm        
          OPTION_DEBOUNCE   0x000018       data     static ../lumos_main.asm        
              OPTION_HOLD   0x000019       data     static ../lumos_main.asm        
            PHASE_OFFSETH   0x000004       data     static ../lumos_main.asm        
            PHASE_OFFSETL   0x000005       data     static ../lumos_main.asm        
                RX_BUFFER   0x000200       data     static ../serial-io.asm         
               RX_BUF_END   0x000306       data     static ../serial-io.asm         
             RX_BUF_START   0x000305       data     static ../serial-io.asm         
                SIO_INPUT   0x000301       data     extern ../serial-io.asm         
               SIO_OUTPUT   0x000302       data     extern ../serial-io.asm         
               SIO_STATUS   0x000300       data     extern ../serial-io.asm         
                SIO_TMPPC   0x000309       data     static ../serial-io.asm         
                    SIO_X   0x000308       data     static ../serial-io.asm         
           SSR_00_COUNTER   0x000450       data     static ../lumos_main.asm        
             SSR_00_FLAGS   0x000414       data     static ../lumos_main.asm        
             SSR_00_SPEED   0x00043c       data     static ../lumos_main.asm        
              SSR_00_STEP   0x000428       data     static ../lumos_main.asm        
             SSR_00_VALUE   0x000400       data     static ../lumos_main.asm        
                SSR_STATE   0x000006       data     static ../lumos_main.asm        
               SSR_STATE2   0x000007       data     static ../lumos_main.asm        
               TARGET_SSR   0x000017       data     static ../lumos_main.asm        
               TEST_CYCLE   0x00001a       data     static ../lumos_main.asm        
                 TEST_SSR   0x00001b       data     static ../lumos_main.asm        
                     TR_I   0x000023       data     static ../lumos_main.asm        
                TX_BUFFER   0x000100       data     static ../serial-io.asm         
               TX_BUF_END   0x000304       data     static ../serial-io.asm         
             TX_BUF_START   0x000303       data     static ../serial-io.asm         
                  TX_CHAR   0x000307       data     static ../serial-io.asm         
                YY_BUFFER   0x000500       data     static ../lumos_main.asm        
               YY_BUF_IDX   0x000010       data     static ../lumos_main.asm        
             YY_CMD_FLAGS   0x00000c       data     static ../lumos_main.asm        
               YY_COMMAND   0x00000b       data     static ../lumos_main.asm        
                  YY_DATA   0x00000d       data     static ../lumos_main.asm        
         YY_LOOKAHEAD_MAX   0x00000e       data     static ../lumos_main.asm        
              YY_LOOK_FOR   0x00000f       data     static ../lumos_main.asm        
            YY_NEXT_STATE   0x000011       data     static ../lumos_main.asm        
                 YY_STATE   0x00000a       data     static ../lumos_main.asm        
                    YY_YY   0x000012       data     static ../lumos_main.asm        



                              Symbols - Sorted by Address
                     Name    Address   Location    Storage File                     
                ---------  ---------  ---------  --------- ---------                
            QUIZSHOW_INIT   0x00000e    program     extern ../quizshow_main.asm     
               LUMOS_INIT   0x00001e    program     extern ../lumos_init.asm        
                  S_FLASH   0x000100    program     static ../lumos_main.asm        
                  D_FLASH   0x000102    program     static ../lumos_main.asm        
                    START   0x000104    program     static ../lumos_main.asm        
FACTORY_RESET_JUMPER_CHECK   0x000284    program     static ../lumos_main.asm        
                 END_FRJC   0x000284    program     static ../lumos_main.asm        
            FACTORY_RESET   0x000298    program     static ../lumos_main.asm        
       FACTORY_RESET_LOOP   0x0002bc    program     static ../lumos_main.asm        
       WRITE_EEPROM_LOOP0   0x0002ce    program     static ../lumos_main.asm        
      FACTORY_RESET_FLASH   0x0002f0    program     static ../lumos_main.asm        
           DELAY_1_12_SEC   0x0002f2    program     static ../lumos_main.asm        
            DELAY_1_6_SEC   0x0002fa    program     static ../lumos_main.asm        
                 D_1_6_KK   0x000300    program     static ../lumos_main.asm        
                  D_1_6_J   0x000302    program     static ../lumos_main.asm        
                  D_1_6_K   0x000304    program     static ../lumos_main.asm        
                 SIO_INIT   0x000312    program     extern ../serial-io.asm         
              CLR_NEXT_TX   0x000328    program     static ../serial-io.asm         
              CLR_NEXT_RX   0x000336    program     static ../serial-io.asm         
          SIO_FLUSH_INPUT   0x000356    program     extern ../serial-io.asm         
           SIO_FLUSH_IN_1   0x000362    program     static ../serial-io.asm         
         SIO_FLUSH_OUTPUT   0x000370    program     extern ../serial-io.asm         
          SIO_FLUSH_OUT_1   0x00037c    program     static ../serial-io.asm         
           SIO_SET_BAUD_W   0x00038a    program     extern ../serial-io.asm         
               SIO_ECHO_W   0x0003a0    program     extern ../serial-io.asm         
                 SIO_ECHO   0x0003a4    program     extern ../serial-io.asm         
               ECHO_7BITS   0x0003b6    program     static ../serial-io.asm         
          ECHO_NOT_DELETE   0x0003c4    program     static ../serial-io.asm         
          ECHO_NOT_ESCAPE   0x0003ce    program     static ../serial-io.asm         
               ECHO_PLAIN   0x0003da    program     static ../serial-io.asm         
              SIO_PUTCHAR   0x0003e0    program     extern ../serial-io.asm         
            SIO_PUTCHAR_W   0x0003e4    program     extern ../serial-io.asm         
       SPIN_FOR_BUF_DRAIN   0x0003ea    program     static ../serial-io.asm         
                SIO_WRITE   0x0003f6    program     extern ../serial-io.asm         
              SIO_WRITE_W   0x0003fa    program     extern ../serial-io.asm         
                 WRITE_OK   0x00040e    program     static ../serial-io.asm         
              SIO_NEWLINE   0x000422    program     extern ../serial-io.asm         
               SIO_READ_W   0x00042e    program     extern ../serial-io.asm         
                 SIO_READ   0x000434    program     extern ../serial-io.asm         
                  READ_OK   0x000440    program     static ../serial-io.asm         
                READ_DONE   0x000456    program     static ../serial-io.asm         
            SIO_GETCHAR_W   0x000458    program     extern ../serial-io.asm         
              SIO_GETCHAR   0x00045e    program     extern ../serial-io.asm         
                  GC_SPIN   0x000460    program     static ../serial-io.asm         
          SIO_PRINT_HEX_W   0x000468    program     extern ../serial-io.asm         
            SIO_PRINT_HEX   0x00046c    program     extern ../serial-io.asm         
             B32__BIN2BCD   0x00048a    program     extern ../serial-io.asm         
           B32__B2BCD_BIT   0x0004a4    program     static ../serial-io.asm         
          B32__B2BCD_LOOP   0x0004ac    program     static ../serial-io.asm         
           B32__BCD2ASCII   0x0004e0    program     extern ../serial-io.asm         
          B32__BCD2A_LOOP   0x000500    program     static ../serial-io.asm         
                 SIO_SEND   0x000526    program     extern ../serial-io.asm         
                    TX_OK   0x000532    program     static ../serial-io.asm         
                  TX_DONE   0x000550    program     static ../serial-io.asm         
                 SIO_RECV   0x00055a    program     extern ../serial-io.asm         
                    RX_OK   0x000576    program     static ../serial-io.asm         
              ERR_FRAMING   0x000598    program     static ../serial-io.asm         
              ERR_OVERRUN   0x00059c    program     static ../serial-io.asm         
                  INT_LOW   0x0005a4    program     static ../lumos_main.asm        
                   INT_TX   0x0005ae    program     static ../lumos_main.asm        
                   INT_RX   0x0005b8    program     static ../lumos_main.asm        
               INT_TX_END   0x0005b8    program     static ../lumos_main.asm        
               INT_RX_END   0x0005c2    program     static ../lumos_main.asm        
                   INT_ZC   0x0005ce    program     static ../lumos_main.asm        
                 INT_HIGH   0x0005ce    program     static ../lumos_main.asm        
               INT_ZC_END   0x0005e8    program     static ../lumos_main.asm        
                 INT_TMR2   0x0005e8    program     static ../lumos_main.asm        
            INT_TMR2_NEXT   0x0005fe    program     static ../lumos_main.asm        
            INT_TMR2_DONE   0x000602    program     static ../lumos_main.asm        
             INT_TMR2_END   0x000604    program     static ../lumos_main.asm        
             INT_TMR2_MSB   0x000606    program     static ../lumos_main.asm        
                     MAIN   0x000800    program     static ../lumos_main.asm        
                 BRK_DET2   0x000820    program     static ../lumos_main.asm        
                  BRK_DET   0x000828    program     static ../lumos_main.asm        
              WATCH_BREAK   0x000838    program     static ../lumos_main.asm        
          BREAK_CONFIRMED   0x00084e    program     static ../lumos_main.asm        
                  NOT_DMX   0x00085e    program     static ../lumos_main.asm        
                BAD_BREAK   0x000862    program     static ../lumos_main.asm        
         TEST_MODE_BYPASS   0x00087e    program     static ../lumos_main.asm        
          END_SERIAL_READ   0x000882    program     static ../lumos_main.asm        
        DRAIN_TRANSMITTER   0x00088c    program     static ../lumos_main.asm        
    DRAIN_M_S_TX_BLOCKING   0x0008a4    program     static ../lumos_main.asm        
             DO_TEST_MODE   0x0008ac    program     static ../lumos_main.asm        
         TEST_NOT_PRESSED   0x0008b6    program     static ../lumos_main.asm        
              TEST_MODE_1   0x0008ca    program     static ../lumos_main.asm        
                TEST_NP_1   0x0008ca    program     static ../lumos_main.asm        
                TEST_NP_2   0x0008ca    program     static ../lumos_main.asm        
       ERR_SERIAL_FRAMING   0x0008f2    program     static ../lumos_main.asm        
          START_DMX_FRAME   0x0008f8    program     static ../lumos_main.asm        
       ERR_SERIAL_OVERRUN   0x0008fc    program     static ../lumos_main.asm        
          ERR_SERIAL_FULL   0x000902    program     static ../lumos_main.asm        
       ERR_CMD_INCOMPLETE   0x00090a    program     static ../lumos_main.asm        
              ERR_NOT_IMP   0x000912    program     static ../lumos_main.asm        
              ERR_COMMAND   0x00091a    program     static ../lumos_main.asm        
                ERR_ABORT   0x00091e    program     static ../lumos_main.asm        
          RECEIVE_COMMAND   0x000922    program     static ../lumos_main.asm        
             INTERP_START   0x000942    program     static ../lumos_main.asm        
                  S0_CMD0   0x00095a    program     static ../lumos_main.asm        
                  S0_CMD1   0x000a26    program     static ../lumos_main.asm        
                  S0_CMD2   0x000a32    program     static ../lumos_main.asm        
                  S0_CMD3   0x000a3c    program     static ../lumos_main.asm        
                  S0_CMD4   0x000a46    program     static ../lumos_main.asm        
                  S0_CMD5   0x000a50    program     static ../qscc_hook_5_6.asm     
                  S0_CMD6   0x000a58    program     static ../qscc_hook_5_6.asm     
                  S0_CMD7   0x000a60    program     static ../lumos_main.asm        
               S0_CMD_ERR   0x000a6a    program     static ../lumos_main.asm        
                DATA_BYTE   0x000a72    program     static ../lumos_main.asm        
           DB_CHK_LITERAL   0x000a7e    program     static ../lumos_main.asm        
                DB_CHK_7E   0x000a86    program     static ../lumos_main.asm        
                DB_CHK_7F   0x000a90    program     static ../lumos_main.asm        
               DB_HANDLER   0x000a9a    program     static ../lumos_main.asm        
                  S1_DATA   0x000aa0    program     static ../lumos_main.asm        
           ON_OFF_YY_DATA   0x000aa8    program     static ../lumos_main.asm        
                ON_OFF_ON   0x000ac2    program     static ../lumos_main.asm        
         PASS_DOWN_ON_OFF   0x000ac8    program     static ../lumos_main.asm        
                  S2_DATA   0x000acc    program     static ../lumos_main.asm        
                  S3_DATA   0x000ae2    program     static ../lumos_main.asm        
        PASS_DOWN_SET_LVL   0x000af8    program     static ../lumos_main.asm        
                  S4_DATA   0x000b00    program     static ../lumos_main.asm        
                  S5_DATA   0x000b22    program     static ../lumos_main.asm        
                  S6_DATA   0x000b40    program     static ../lumos_main.asm        
                S6_0_DATA   0x000b58    program     static ../lumos_main.asm        
           S6_0_DATA_N_OK   0x000b6e    program     static ../lumos_main.asm        
       S6_0_UPDATE_MASTER   0x000b82    program     static ../lumos_main.asm        
         S6_0_UPDATE_NEXT   0x000b9e    program     static ../lumos_main.asm        
                S6_1_DATA   0x000bae    program     static ../lumos_main.asm        
             S6_1_VALID_1   0x000bbc    program     static ../lumos_main.asm        
             S6_1_VALID_2   0x000bc2    program     static ../lumos_main.asm        
           S6_1_CONFIGURE   0x000bd0    program     static ../lumos_main.asm        
       WRITE_EEPROM_LOOP1   0x000c04    program     static ../lumos_main.asm        
       WRITE_EEPROM_LOOP2   0x000c1e    program     static ../lumos_main.asm        
                S6_2_DATA   0x000c34    program     static ../lumos_main.asm        
              S6_2_VALID1   0x000c42    program     static ../lumos_main.asm        
              S6_2_VALID2   0x000c48    program     static ../lumos_main.asm        
            S6_2_SET_BAUD   0x000c56    program     static ../lumos_main.asm        
       WRITE_EEPROM_LOOP3   0x000c7c    program     static ../lumos_main.asm        
                S6_3_DATA   0x000c98    program     static ../lumos_main.asm        
               S6_3_VALID   0x000ca6    program     static ../lumos_main.asm        
               S6_3_RESET   0x000cac    program     static ../lumos_main.asm        
                S6_3_HALT   0x000cc4    program     static ../lumos_main.asm        
                S6_4_DATA   0x000cc6    program     static ../lumos_main.asm        
               S6_4_VALID   0x000cd4    program     static ../lumos_main.asm        
           S6_4_SET_PHASE   0x000cda    program     static ../lumos_main.asm        
       WRITE_EEPROM_LOOP4   0x000d16    program     static ../lumos_main.asm        
       WRITE_EEPROM_LOOP5   0x000d36    program     static ../lumos_main.asm        
                S6_5_DATA   0x000d4c    program     static ../lumos_main.asm        
               S6_5_VALID   0x000d5a    program     static ../lumos_main.asm        
                S6_5_ADDR   0x000d60    program     static ../lumos_main.asm        
       WRITE_EEPROM_LOOP6   0x000d9c    program     static ../lumos_main.asm        
                S6_6_DATA   0x000db2    program     static ../lumos_main.asm        
               S6_6_VALID   0x000dc0    program     static ../lumos_main.asm        
               S6_6_SLEEP   0x000dc6    program     static ../lumos_main.asm        
             DO_CMD_SLEEP   0x000dd4    program     static ../lumos_main.asm        
                S6_7_DATA   0x000ddc    program     static ../lumos_main.asm        
               S6_7_VALID   0x000dea    program     static ../lumos_main.asm        
                S6_7_WAKE   0x000df0    program     static ../lumos_main.asm        
              DO_CMD_WAKE   0x000dfe    program     static ../lumos_main.asm        
                   S6_8_X   0x000e02    program     static ../lumos_main.asm        
                S6_8_DATA   0x000e0a    program     static ../lumos_main.asm        
               S6_8_VALID   0x000e18    program     static ../lumos_main.asm        
            S6_8_SHUTDOWN   0x000e1e    program     static ../lumos_main.asm        
                S6_9_DATA   0x000e2e    program     static ../lumos_main.asm        
               S6_9_VALID   0x000e3c    program     static ../lumos_main.asm        
               S6_9_QUERY   0x000e42    program     static ../lumos_main.asm        
              S8B_CHK_7E1   0x000e74    program     static ../lumos_main.asm        
             S8B_CHK_MSB1   0x000e88    program     static ../lumos_main.asm        
         S8B_SEND_NORMAL1   0x000e94    program     static ../lumos_main.asm        
                 S8B_END1   0x000e9a    program     static ../lumos_main.asm        
              S8B_CHK_7E2   0x000eb0    program     static ../lumos_main.asm        
             S8B_CHK_MSB2   0x000ec4    program     static ../lumos_main.asm        
         S8B_SEND_NORMAL2   0x000ed0    program     static ../lumos_main.asm        
                 S8B_END2   0x000ed6    program     static ../lumos_main.asm        
              S8B_CHK_7E3   0x000ef8    program     static ../lumos_main.asm        
             S8B_CHK_MSB3   0x000f0c    program     static ../lumos_main.asm        
         S8B_SEND_NORMAL3   0x000f18    program     static ../lumos_main.asm        
                 S8B_END3   0x000f1e    program     static ../lumos_main.asm        
              S8B_CHK_7E4   0x000f36    program     static ../lumos_main.asm        
             S8B_CHK_MSB4   0x000f4a    program     static ../lumos_main.asm        
         S8B_SEND_NORMAL4   0x000f56    program     static ../lumos_main.asm        
                 S8B_END4   0x000f5c    program     static ../lumos_main.asm        
              S8B_CHK_7E5   0x000f7a    program     static ../lumos_main.asm        
             S8B_CHK_MSB5   0x000f8e    program     static ../lumos_main.asm        
         S8B_SEND_NORMAL5   0x000f9a    program     static ../lumos_main.asm        
                 S8B_END5   0x000fa0    program     static ../lumos_main.asm        
              S8B_CHK_7E6   0x000fc2    program     static ../lumos_main.asm        
             S8B_CHK_MSB6   0x000fd6    program     static ../lumos_main.asm        
         S8B_SEND_NORMAL6   0x000fe2    program     static ../lumos_main.asm        
                 S8B_END6   0x000fe8    program     static ../lumos_main.asm        
              S8B_CHK_7E7   0x001000    program     static ../lumos_main.asm        
             S8B_CHK_MSB7   0x001014    program     static ../lumos_main.asm        
         S8B_SEND_NORMAL7   0x001020    program     static ../lumos_main.asm        
                 S8B_END7   0x001026    program     static ../lumos_main.asm        
              S8B_CHK_7E8   0x00105a    program     static ../lumos_main.asm        
             S8B_CHK_MSB8   0x00106e    program     static ../lumos_main.asm        
         S8B_SEND_NORMAL8   0x00107a    program     static ../lumos_main.asm        
                 S8B_END8   0x001080    program     static ../lumos_main.asm        
              S8B_CHK_7E9   0x0010fe    program     static ../lumos_main.asm        
             S8B_CHK_MSB9   0x001112    program     static ../lumos_main.asm        
         S8B_SEND_NORMAL9   0x00111e    program     static ../lumos_main.asm        
                 S8B_END9   0x001124    program     static ../lumos_main.asm        
             S8B_CHK_7E10   0x00115a    program     static ../lumos_main.asm        
            S8B_CHK_MSB10   0x00116e    program     static ../lumos_main.asm        
        S8B_SEND_NORMAL10   0x00117a    program     static ../lumos_main.asm        
                S8B_END10   0x001180    program     static ../lumos_main.asm        
             S8B_CHK_7E11   0x001198    program     static ../lumos_main.asm        
            S8B_CHK_MSB11   0x0011ac    program     static ../lumos_main.asm        
        S8B_SEND_NORMAL11   0x0011b8    program     static ../lumos_main.asm        
                S8B_END11   0x0011be    program     static ../lumos_main.asm        
               S6_10_DATA   0x0011ca    program     static ../lumos_main.asm        
              S6_10_VALID   0x0011d8    program     static ../lumos_main.asm        
           S6_10_DEF_SENS   0x0011de    program     static ../lumos_main.asm        
               S6_11_DATA   0x0011e6    program     static ../lumos_main.asm        
              S6_11_VALID   0x0011f4    program     static ../lumos_main.asm        
            S6_11_CLR_SEQ   0x0011fa    program     static ../lumos_main.asm        
               S6_12_DATA   0x00120a    program     static ../lumos_main.asm        
              S6_12_VALID   0x001216    program     static ../lumos_main.asm        
             S6_12_VALID2   0x001228    program     static ../lumos_main.asm        
            S6_12_DEF_SEQ   0x00122e    program     static ../lumos_main.asm        
               S6_13_DATA   0x00123e    program     static ../lumos_main.asm        
              S6_13_VALID   0x00124c    program     static ../lumos_main.asm        
               S6_14_DATA   0x001264    program     static ../lumos_main.asm        
               S6_RESTART   0x00126c    program     static ../lumos_main.asm        
          S6_KEEP_LOOKING   0x00126e    program     static ../lumos_main.asm        
                  S7_DATA   0x001286    program     static ../lumos_main.asm        
                  S8_DATA   0x001292    program     static ../lumos_main.asm        
    S8_PASS_DOWN_RAMP_LVL   0x0012cc    program     static ../lumos_main.asm        
                  S9_DATA   0x0012d4    program     static ../lumos_main.asm        
              S9_X0_SLEEP   0x0012e4    program     static ../lumos_main.asm        
               S9_X1_WAKE   0x0012f8    program     static ../lumos_main.asm        
           S9_X2_SHUTDOWN   0x001310    program     static ../lumos_main.asm        
              S9_X3_QUERY   0x001328    program     static ../lumos_main.asm        
            S9_X4_DEF_SEQ   0x001340    program     static ../lumos_main.asm        
           S9_X5_EXEC_SEQ   0x00134a    program     static ../lumos_main.asm        
           S9_X6_DEF_SENS   0x001354    program     static ../lumos_main.asm        
           S9_X7_MSK_SENS   0x00136c    program     static ../lumos_main.asm        
            S9_X8_CLR_SEQ   0x001376    program     static ../lumos_main.asm        
              S9_X9_XPRIV   0x00138e    program     static ../lumos_main.asm        
          S9_INTERNAL_CMD   0x001398    program     static ../lumos_main.asm        
              S9_PRIV_CMD   0x00139c    program     static ../lumos_main.asm        
           S9_DO_PRIV_CMD   0x0013a8    program     static ../lumos_main.asm        
                S9_PRIV_0   0x0013b6    program     static ../lumos_main.asm        
               S9_PRIV_0X   0x0013bc    program     static ../lumos_main.asm        
                S9_PRIV_1   0x0013c4    program     static ../lumos_main.asm        
                S9_PRIV_2   0x0013dc    program     static ../lumos_main.asm        
                S9_PRIV_3   0x0013f4    program     static ../lumos_main.asm        
                S9_PRIV_4   0x00140c    program     static ../lumos_main.asm        
                CMD_XPRIV   0x001410    program     static ../lumos_main.asm        
                S9_PRIV_5   0x001416    program     static ../lumos_main.asm        
                S9_PRIV_6   0x00142e    program     static ../lumos_main.asm        
              S9_CF_PHASE   0x001432    program     static ../lumos_main.asm        
               S9_CF_ADDR   0x00144a    program     static ../lumos_main.asm        
                 S10_DATA   0x001462    program     static ../lumos_main.asm        
                 S11_DATA   0x00146e    program     static ../lumos_main.asm        
                 S12_DATA   0x00147a    program     static ../lumos_main.asm        
                 S13_DATA   0x001486    program     static ../lumos_main.asm        
                 S14_DATA   0x001492    program     static ../lumos_main.asm        
                 S15_DATA   0x0014ae    program     static ../lumos_main.asm        
                 S16_DATA   0x0014b6    program     static ../lumos_main.asm        
                 S17_DATA   0x0014be    program     static ../lumos_main.asm        
         SSR_OUTPUT_VALUE   0x0014c6    program     static ../lumos_main.asm        
             XLATE_SSR_ID   0x0014ee    program     static ../lumos_main.asm        
       UPDATE_SSR_OUTPUTS   0x001502    program     static ../lumos_main.asm        
        UPDATE_SSR_SKIP_0   0x001512    program     static ../lumos_main.asm        
        UPDATE_SSR_SKIP_1   0x001518    program     static ../lumos_main.asm        
        UPDATE_SSR_SKIP_2   0x00151e    program     static ../lumos_main.asm        
        UPDATE_SSR_SKIP_3   0x001524    program     static ../lumos_main.asm        
        UPDATE_SSR_SKIP_4   0x00152a    program     static ../lumos_main.asm        
        UPDATE_SSR_SKIP_5   0x001530    program     static ../lumos_main.asm        
        UPDATE_SSR_SKIP_6   0x001536    program     static ../lumos_main.asm        
        UPDATE_SSR_SKIP_7   0x00153c    program     static ../lumos_main.asm        
        UPDATE_SSR_SKIP_8   0x001542    program     static ../lumos_main.asm        
        UPDATE_SSR_SKIP_9   0x001548    program     static ../lumos_main.asm        
       UPDATE_SSR_SKIP_10   0x00154e    program     static ../lumos_main.asm        
       UPDATE_SSR_SKIP_11   0x001554    program     static ../lumos_main.asm        
       UPDATE_SSR_SKIP_12   0x00155a    program     static ../lumos_main.asm        
       UPDATE_SSR_SKIP_13   0x001560    program     static ../lumos_main.asm        
       UPDATE_SSR_SKIP_14   0x001566    program     static ../lumos_main.asm        
       UPDATE_SSR_SKIP_15   0x00156c    program     static ../lumos_main.asm        
       UPDATE_SSR_SKIP_16   0x001572    program     static ../lumos_main.asm        
       UPDATE_SSR_SKIP_17   0x001578    program     static ../lumos_main.asm        
       UPDATE_SSR_SKIP_18   0x00157e    program     static ../lumos_main.asm        
       UPDATE_SSR_SKIP_19   0x001584    program     static ../lumos_main.asm        
     UPDATE_MINIMUM_LEVEL   0x001588    program     static ../lumos_main.asm        
      UPDATE_MIN_DIMMED_0   0x001594    program     static ../lumos_main.asm        
        UPDATE_MIN_SKIP_0   0x00159a    program     static ../lumos_main.asm        
               TRY_DOWN_0   0x0015b8    program     static ../lumos_main.asm        
               END_FADE_0   0x0015d6    program     static ../lumos_main.asm        
      UPDATE_MIN_DIMMED_1   0x0015de    program     static ../lumos_main.asm        
        UPDATE_MIN_SKIP_1   0x0015e4    program     static ../lumos_main.asm        
               TRY_DOWN_1   0x001602    program     static ../lumos_main.asm        
               END_FADE_1   0x001620    program     static ../lumos_main.asm        
      UPDATE_MIN_DIMMED_2   0x001628    program     static ../lumos_main.asm        
        UPDATE_MIN_SKIP_2   0x00162e    program     static ../lumos_main.asm        
               TRY_DOWN_2   0x00164c    program     static ../lumos_main.asm        
               END_FADE_2   0x00166a    program     static ../lumos_main.asm        
      UPDATE_MIN_DIMMED_3   0x001672    program     static ../lumos_main.asm        
        UPDATE_MIN_SKIP_3   0x001678    program     static ../lumos_main.asm        
               TRY_DOWN_3   0x001696    program     static ../lumos_main.asm        
               END_FADE_3   0x0016b4    program     static ../lumos_main.asm        
      UPDATE_MIN_DIMMED_4   0x0016bc    program     static ../lumos_main.asm        
        UPDATE_MIN_SKIP_4   0x0016c2    program     static ../lumos_main.asm        
               TRY_DOWN_4   0x0016e0    program     static ../lumos_main.asm        
               END_FADE_4   0x0016fe    program     static ../lumos_main.asm        
      UPDATE_MIN_DIMMED_5   0x001706    program     static ../lumos_main.asm        
        UPDATE_MIN_SKIP_5   0x00170c    program     static ../lumos_main.asm        
               TRY_DOWN_5   0x00172a    program     static ../lumos_main.asm        
               END_FADE_5   0x001748    program     static ../lumos_main.asm        
      UPDATE_MIN_DIMMED_6   0x001750    program     static ../lumos_main.asm        
        UPDATE_MIN_SKIP_6   0x001756    program     static ../lumos_main.asm        
               TRY_DOWN_6   0x001774    program     static ../lumos_main.asm        
               END_FADE_6   0x001792    program     static ../lumos_main.asm        
      UPDATE_MIN_DIMMED_7   0x00179a    program     static ../lumos_main.asm        
        UPDATE_MIN_SKIP_7   0x0017a0    program     static ../lumos_main.asm        
               TRY_DOWN_7   0x0017be    program     static ../lumos_main.asm        
               END_FADE_7   0x0017dc    program     static ../lumos_main.asm        
      UPDATE_MIN_DIMMED_8   0x0017e4    program     static ../lumos_main.asm        
        UPDATE_MIN_SKIP_8   0x0017ea    program     static ../lumos_main.asm        
               TRY_DOWN_8   0x001808    program     static ../lumos_main.asm        
               END_FADE_8   0x001826    program     static ../lumos_main.asm        
      UPDATE_MIN_DIMMED_9   0x00182e    program     static ../lumos_main.asm        
        UPDATE_MIN_SKIP_9   0x001834    program     static ../lumos_main.asm        
               TRY_DOWN_9   0x001852    program     static ../lumos_main.asm        
               END_FADE_9   0x001870    program     static ../lumos_main.asm        
     UPDATE_MIN_DIMMED_10   0x001878    program     static ../lumos_main.asm        
       UPDATE_MIN_SKIP_10   0x00187e    program     static ../lumos_main.asm        
              TRY_DOWN_10   0x00189c    program     static ../lumos_main.asm        
              END_FADE_10   0x0018ba    program     static ../lumos_main.asm        
     UPDATE_MIN_DIMMED_11   0x0018c2    program     static ../lumos_main.asm        
       UPDATE_MIN_SKIP_11   0x0018c8    program     static ../lumos_main.asm        
              TRY_DOWN_11   0x0018e6    program     static ../lumos_main.asm        
              END_FADE_11   0x001904    program     static ../lumos_main.asm        
     UPDATE_MIN_DIMMED_12   0x00190c    program     static ../lumos_main.asm        
       UPDATE_MIN_SKIP_12   0x001912    program     static ../lumos_main.asm        
              TRY_DOWN_12   0x001930    program     static ../lumos_main.asm        
              END_FADE_12   0x00194e    program     static ../lumos_main.asm        
     UPDATE_MIN_DIMMED_13   0x001956    program     static ../lumos_main.asm        
       UPDATE_MIN_SKIP_13   0x00195c    program     static ../lumos_main.asm        
              TRY_DOWN_13   0x00197a    program     static ../lumos_main.asm        
              END_FADE_13   0x001998    program     static ../lumos_main.asm        
     UPDATE_MIN_DIMMED_14   0x0019a0    program     static ../lumos_main.asm        
       UPDATE_MIN_SKIP_14   0x0019a6    program     static ../lumos_main.asm        
              TRY_DOWN_14   0x0019c4    program     static ../lumos_main.asm        
              END_FADE_14   0x0019e2    program     static ../lumos_main.asm        
     UPDATE_MIN_DIMMED_15   0x0019ea    program     static ../lumos_main.asm        
       UPDATE_MIN_SKIP_15   0x0019f0    program     static ../lumos_main.asm        
              TRY_DOWN_15   0x001a0e    program     static ../lumos_main.asm        
              END_FADE_15   0x001a2c    program     static ../lumos_main.asm        
     UPDATE_MIN_DIMMED_16   0x001a34    program     static ../lumos_main.asm        
       UPDATE_MIN_SKIP_16   0x001a3a    program     static ../lumos_main.asm        
              TRY_DOWN_16   0x001a58    program     static ../lumos_main.asm        
              END_FADE_16   0x001a76    program     static ../lumos_main.asm        
     UPDATE_MIN_DIMMED_17   0x001a7e    program     static ../lumos_main.asm        
       UPDATE_MIN_SKIP_17   0x001a84    program     static ../lumos_main.asm        
              TRY_DOWN_17   0x001aa2    program     static ../lumos_main.asm        
              END_FADE_17   0x001ac0    program     static ../lumos_main.asm        
     UPDATE_MIN_DIMMED_18   0x001ac8    program     static ../lumos_main.asm        
       UPDATE_MIN_SKIP_18   0x001ace    program     static ../lumos_main.asm        
              TRY_DOWN_18   0x001aec    program     static ../lumos_main.asm        
              END_FADE_18   0x001b0a    program     static ../lumos_main.asm        
     UPDATE_MIN_DIMMED_19   0x001b12    program     static ../lumos_main.asm        
       UPDATE_MIN_SKIP_19   0x001b18    program     static ../lumos_main.asm        
              TRY_DOWN_19   0x001b36    program     static ../lumos_main.asm        
              END_FADE_19   0x001b54    program     static ../lumos_main.asm        
             BE_AWAKE_NOW   0x001b6c    program     static ../lumos_main.asm        
     DMX_EXIT_TEMPORARILY   0x001b78    program     static ../lumos_main.asm        
               DMX_RESUME   0x001ba6    program     static ../lumos_main.asm        
        DMX_RECEIVED_BYTE   0x001bb8    program     static ../lumos_main.asm        
          DMX_WEIRD_FRAME   0x001bd4    program     static ../lumos_main.asm        
            DMX_NOT_FIRST   0x001bd8    program     static ../lumos_main.asm        
               DMX_ST_LSB   0x001bea    program     static ../lumos_main.asm        
         DMX_SLOT_REACHED   0x001bee    program     static ../lumos_main.asm        
                   DMX_18   0x001bf0    program     static ../lumos_main.asm        
    DMX_PASS_DOWN_SET_LVL   0x001c16    program     static ../lumos_main.asm        
                 DMX_DONE   0x001c1e    program     static ../lumos_main.asm        
                   DMX_19   0x001c22    program     static ../lumos_main.asm        
                HALT_MODE   0x001c26    program     static ../lumos_main.asm        
               HALT_SLEEP   0x001c34    program     static ../lumos_main.asm        
              TR_ON_DELAY   0x001c3a    program     static ../lumos_main.asm        
                  TR_ON_L   0x001c3c    program     static ../lumos_main.asm        
             TR_OFF_DELAY   0x001c44    program     static ../lumos_main.asm        
              DEFAULT_TBL   0x014000    program     static ../lumos_main.asm        
                   HEXTBL   0x015000    program     static ../serial-io.asm         
                 BAUDTBLH   0x01502a    program     static ../serial-io.asm         
                 BAUDTBLL   0x015054    program     static ../serial-io.asm         
                  SYS_SNH   0x016ff0    program     static ../lumos_main.asm        
                  SYS_SNL   0x016ff1    program     static ../lumos_main.asm        
          ISR_TMPL_STATUS   0x000000       data     static ../lumos_main.asm        
             ISR_TMPL_BSR   0x000001       data     static ../lumos_main.asm        
            ISR_TMPL_WREG   0x000002       data     static ../lumos_main.asm        
               MY_ADDRESS   0x000003       data     static ../lumos_main.asm        
            PHASE_OFFSETH   0x000004       data     static ../lumos_main.asm        
            PHASE_OFFSETL   0x000005       data     static ../lumos_main.asm        
                SSR_STATE   0x000006       data     static ../lumos_main.asm        
               SSR_STATE2   0x000007       data     static ../lumos_main.asm        
                DMX_SLOTH   0x000008       data     static ../lumos_main.asm        
                DMX_SLOTL   0x000009       data     static ../lumos_main.asm        
                 YY_STATE   0x00000a       data     static ../lumos_main.asm        
               YY_COMMAND   0x00000b       data     static ../lumos_main.asm        
             YY_CMD_FLAGS   0x00000c       data     static ../lumos_main.asm        
                  YY_DATA   0x00000d       data     static ../lumos_main.asm        
         YY_LOOKAHEAD_MAX   0x00000e       data     static ../lumos_main.asm        
              YY_LOOK_FOR   0x00000f       data     static ../lumos_main.asm        
               YY_BUF_IDX   0x000010       data     static ../lumos_main.asm        
            YY_NEXT_STATE   0x000011       data     static ../lumos_main.asm        
                    YY_YY   0x000012       data     static ../lumos_main.asm        
               LAST_ERROR   0x000013       data     static ../lumos_main.asm        
                 CUR_PREH   0x000014       data     static ../lumos_main.asm        
                  CUR_PRE   0x000015       data     static ../lumos_main.asm        
                CUR_SLICE   0x000016       data     static ../lumos_main.asm        
               TARGET_SSR   0x000017       data     static ../lumos_main.asm        
          OPTION_DEBOUNCE   0x000018       data     static ../lumos_main.asm        
              OPTION_HOLD   0x000019       data     static ../lumos_main.asm        
               TEST_CYCLE   0x00001a       data     static ../lumos_main.asm        
                 TEST_SSR   0x00001b       data     static ../lumos_main.asm        
            AUTO_OFF_CTRH   0x00001c       data     static ../lumos_main.asm        
            AUTO_OFF_CTRL   0x00001d       data     static ../lumos_main.asm        
           EIGHTBITSIOBUF   0x00001e       data     static ../lumos_main.asm        
                        I   0x00001f       data     static ../lumos_main.asm        
                        J   0x000020       data     static ../lumos_main.asm        
                        K   0x000021       data     static ../lumos_main.asm        
                       KK   0x000022       data     static ../lumos_main.asm        
                     TR_I   0x000023       data     static ../lumos_main.asm        
                TX_BUFFER   0x000100       data     static ../serial-io.asm         
                RX_BUFFER   0x000200       data     static ../serial-io.asm         
               SIO_STATUS   0x000300       data     extern ../serial-io.asm         
                SIO_INPUT   0x000301       data     extern ../serial-io.asm         
               SIO_OUTPUT   0x000302       data     extern ../serial-io.asm         
             TX_BUF_START   0x000303       data     static ../serial-io.asm         
               TX_BUF_END   0x000304       data     static ../serial-io.asm         
             RX_BUF_START   0x000305       data     static ../serial-io.asm         
               RX_BUF_END   0x000306       data     static ../serial-io.asm         
                  TX_CHAR   0x000307       data     static ../serial-io.asm         
                    SIO_X   0x000308       data     static ../serial-io.asm         
                SIO_TMPPC   0x000309       data     static ../serial-io.asm         
               FSR1H_SAVE   0x00030a       data     static ../serial-io.asm         
               FSR1L_SAVE   0x00030b       data     static ../serial-io.asm         
                 B32__BIT   0x00030c       data     static ../serial-io.asm         
              B32__OUTCTR   0x00030d       data     static ../serial-io.asm         
               B32__FSR0H   0x00030e       data     static ../serial-io.asm         
               B32__FSR0L   0x00030f       data     static ../serial-io.asm         
               B32__FSR1H   0x000310       data     static ../serial-io.asm         
               B32__FSR1L   0x000311       data     static ../serial-io.asm         
             B32__BCD_ASC   0x000312       data     extern ../serial-io.asm         
                 B32__BIN   0x000317       data     extern ../serial-io.asm         
             SSR_00_VALUE   0x000400       data     static ../lumos_main.asm        
             SSR_00_FLAGS   0x000414       data     static ../lumos_main.asm        
              SSR_00_STEP   0x000428       data     static ../lumos_main.asm        
             SSR_00_SPEED   0x00043c       data     static ../lumos_main.asm        
           SSR_00_COUNTER   0x000450       data     static ../lumos_main.asm        
                YY_BUFFER   0x000500       data     static ../lumos_main.asm        


